(lp1
(I0
I5
tp2
a(I1
I5
tp3
a(I0
I4
tp4
a(I2
I5
tp5
a(I1
I4
tp6
a(I0
I3
tp7
a(I3
I5
tp8
a(I2
I4
tp9
a(I1
I3
tp10
a(I0
I2
tp11
a(I4
I5
tp12
a(I3
I4
tp13
a(I2
I3
tp14
a(I1
I2
tp15
a(I0
I1
tp16
a(I0
I0
tp17
a.