(dp1
(I14
I17
tp2
I156
s(I10
I17
tp3
I94
s(I0
I20
tp4
I0
s(I15
I20
tp5
I120
s(I1
I17
tp6
I13
s(I0
I7
tp7
I104
s(I13
I17
tp8
I139
s(I1
I3
tp9
I188
s(I1
I6
tp10
I134
s(I0
I10
tp11
I65
s(I3
I7
tp12
I149
s(I2
I5
tp13
I168
s(I1
I11
tp14
I64
s(I5
I8
tp15
I165
s(I6
I7
tp16
I203
s(I4
I19
tp17
I16
s(I1
I5
tp18
I151
s(I14
I18
tp19
I138
s(I5
I18
tp20
I30
s(I10
I18
tp21
I80
s(I0
I17
tp22
I9
s(I7
I19
tp23
I37
s(I12
I17
tp24
I123
s(I0
I4
tp25
I152
s(I13
I20
tp26
I91
s(I18
I20
tp27
I171
s(I8
I15
tp28
I96
s(I4
I10
tp29
I115
s(I2
I6
tp30
I150
s(I9
I14
tp31
I126
s(I7
I10
tp32
I163
s(I5
I11
tp33
I114
s(I4
I5
tp34
I205
s(I10
I13
tp35
I160
s(I4
I16
tp36
I40
s(I9
I16
tp37
I95
s(I14
I15
tp38
I195
s(I17
I20
tp39
I153
s(I16
I19
tp40
I154
s(I2
I17
tp41
I18
s(I6
I8
tp42
I183
s(I17
I18
tp43
I192
s(I6
I9
tp44
I164
s(I3
I12
tp45
I74
s(I1
I12
tp46
I53
s(I8
I12
tp47
I144
s(I4
I15
tp48
I50
s(I2
I11
tp49
I75
s(I5
I14
tp50
I72
s(I3
I18
tp51
I17
s(I10
I14
tp52
I142
s(I8
I18
tp53
I57
s(I6
I13
tp54
I98
s(I11
I15
tp55
I141
s(I9
I19
tp56
I56
s(I15
I16
tp57
I194
s(I6
I16
tp58
I59
s(I11
I16
tp59
I124
s(I2
I18
tp60
I12
s(I0
I14
tp61
I27
s(I3
I11
tp62
I87
s(I1
I15
tp63
I26
s(I8
I9
tp64
I201
s(I4
I12
tp65
I86
s(I2
I12
tp66
I63
s(I7
I11
tp67
I145
s(I3
I17
tp68
I24
s(I6
I14
tp69
I84
s(I7
I15
tp70
I83
s(I12
I13
tp71
I197
s(I1
I16
tp72
I19
s(I13
I16
tp73
I157
s(I6
I11
tp74
I129
s(I0
I11
tp75
I54
s(I3
I6
tp76
I167
s(I1
I10
tp77
I76
s(I16
I17
tp78
I193
s(I9
I20
tp79
I45
s(I14
I19
tp80
I121
s(I5
I17
tp81
I39
s(I10
I19
tp82
I67
s(I0
I18
tp83
I5
s(I7
I18
tp84
I47
s(I12
I18
tp85
I107
s(I1
I19
tp86
I4
s(I0
I5
tp87
I135
s(I13
I19
tp88
I106
s(I0
I8
tp89
I90
s(I4
I11
tp90
I100
s(I3
I5
tp91
I186
s(I2
I7
tp92
I133
s(I9
I13
tp93
I143
s(I5
I10
tp94
I130
s(I4
I6
tp95
I185
s(I7
I8
tp96
I202
s(I5
I7
tp97
I184
s(I4
I17
tp98
I31
s(I6
I20
tp99
I21
s(I5
I20
tp100
I15
s(I11
I20
tp101
I66
s(I10
I20
tp102
I55
s(I7
I17
tp103
I58
s(I0
I2
tp104
I189
s(I3
I15
tp105
I41
s(I6
I10
tp106
I146
s(I8
I13
tp107
I127
s(I4
I8
tp108
I148
s(I2
I8
tp109
I117
s(I5
I13
tp110
I85
s(I10
I15
tp111
I125
s(I8
I19
tp112
I46
s(I11
I14
tp113
I159
s(I6
I12
tp114
I113
s(I9
I18
tp115
I68
s(I15
I19
tp116
I137
s(I6
I17
tp117
I48
s(I11
I19
tp118
I79
s(I1
I20
tp119
I1
s(I7
I20
tp120
I28
s(I12
I20
tp121
I78
s(I2
I19
tp122
I7
s(I0
I15
tp123
I20
s(I11
I12
tp124
I198
s(I3
I10
tp125
I101
s(I1
I14
tp126
I34
s(I8
I10
tp127
I181
s(I0
I0
tp128
I210
s(I4
I13
tp129
I73
s(I2
I13
tp130
I52
s(I9
I11
tp131
I180
s(I3
I16
tp132
I32
s(I8
I16
tp133
I82
s(I6
I15
tp134
I71
s(I11
I13
tp135
I178
s(I7
I14
tp136
I97
s(I6
I18
tp137
I38
s(I12
I14
tp138
I177
s(I13
I15
tp139
I176
s(I2
I20
tp140
I3
s(I1
I4
tp141
I169
s(I0
I12
tp142
I44
s(I3
I9
tp143
I116
s(I2
I3
tp144
I207
s(I1
I9
tp145
I89
s(I2
I14
tp146
I42
s(I14
I16
tp147
I175
s(I5
I16
tp148
I49
s(I10
I16
tp149
I109
s(I0
I19
tp150
I2
s(I7
I13
tp151
I112
s(I12
I19
tp152
I92
s(I1
I18
tp153
I8
s(I0
I6
tp154
I119
s(I13
I18
tp155
I122
s(I7
I9
tp156
I182
s(I1
I7
tp157
I118
s(I0
I9
tp158
I77
s(I3
I4
tp159
I206
s(I2
I4
tp160
I187
s(I9
I12
tp161
I161
s(I5
I9
tp162
I147
s(I4
I7
tp163
I166
s(I10
I11
tp164
I199
s(I5
I6
tp165
I204
s(I4
I18
tp166
I23
s(I5
I19
tp167
I22
s(I18
I19
tp168
I191
s(I0
I16
tp169
I14
s(I7
I16
tp170
I70
s(I12
I16
tp171
I140
s(I0
I3
tp172
I170
s(I3
I14
tp173
I51
s(I1
I2
tp174
I208
s(I8
I14
tp175
I111
s(I4
I9
tp176
I131
s(I2
I9
tp177
I102
s(I9
I15
tp178
I110
s(I5
I12
tp179
I99
s(I3
I20
tp180
I6
s(I10
I12
tp181
I179
s(I8
I20
tp182
I36
s(I9
I17
tp183
I81
s(I15
I18
tp184
I155
s(I0
I1
tp185
I209
s(I11
I18
tp186
I93
s(I16
I18
tp187
I173
s(I2
I16
tp188
I25
s(I17
I19
tp189
I172
s(I3
I13
tp190
I62
s(I1
I13
tp191
I43
s(I8
I11
tp192
I162
s(I16
I20
tp193
I136
s(I4
I14
tp194
I61
s(I2
I10
tp195
I88
s(I9
I10
tp196
I200
s(I5
I15
tp197
I60
s(I3
I19
tp198
I11
s(I7
I12
tp199
I128
s(I8
I17
tp200
I69
s(I14
I20
tp201
I105
s(I4
I20
tp202
I10
s(I19
I20
tp203
I190
s(I15
I17
tp204
I174
s(I6
I19
tp205
I29
s(I12
I15
tp206
I158
s(I11
I17
tp207
I108
s(I13
I14
tp208
I196
s(I0
I13
tp209
I35
s(I3
I8
tp210
I132
s(I1
I8
tp211
I103
s(I2
I15
tp212
I33
s.