(dp1
(I0
I4
I26
I29
tp2
I186
s(I0
I12
I19
I29
tp3
I28
s(I0
I2
I23
I29
tp4
I177
s(I0
I13
I27
I29
tp5
I110
s(I0
I14
I23
I29
tp6
I49
s(I0
I9
I19
I29
tp7
I55
s(I0
I5
I18
I29
tp8
I88
s(I0
I1
I17
I29
tp9
I148
s(I0
I1
I26
I29
tp10
I198
s(I0
I9
I24
I29
tp11
I119
s(I0
I4
I22
I29
tp12
I152
s(I0
I16
I22
I29
tp13
I24
s(I0
I6
I26
I29
tp14
I173
s(I0
I17
I24
I29
tp15
I33
s(I0
I14
I19
I29
tp16
I15
s(I0
I11
I21
I29
tp17
I57
s(I0
I1
I21
I29
tp18
I168
s(I0
I3
I28
I29
tp19
I200
s(I0
I13
I21
I29
tp20
I38
s(I0
I9
I28
I29
tp21
I167
s(I0
I4
I18
I29
tp22
I100
s(I0
I5
I28
I29
tp23
I193
s(I0
I12
I27
I29
tp24
I122
s(I0
I8
I24
I29
tp25
I131
s(I0
I17
I28
I29
tp26
I75
s(I0
I8
I19
I29
tp27
I66
s(I0
I11
I25
I29
tp28
I108
s(I0
I13
I17
I29
tp29
I20
s(I0
I5
I24
I29
tp30
I163
s(I0
I2
I28
I29
tp31
I202
s(I0
I8
I28
I29
tp32
I175
s(I0
I10
I21
I29
tp33
I68
s(I0
I4
I28
I29
tp34
I197
s(I0
I16
I28
I29
tp35
I87
s(I0
I12
I21
I29
tp36
I47
s(I0
I3
I20
I29
tp37
I139
s(I0
I15
I20
I29
tp38
I16
s(I0
I7
I22
I29
tp39
I117
s(I0
I10
I25
I29
tp40
I120
s(I0
I4
I24
I29
tp41
I171
s(I0
I12
I17
I29
tp42
I27
s(I0
I9
I23
I29
tp43
I106
s(I0
I15
I27
I29
tp44
I86
s(I0
I11
I19
I29
tp45
I36
s(I0
I7
I18
I29
tp46
I64
s(I0
I2
I20
I29
tp47
I150
s(I0
I3
I26
I29
tp48
I191
s(I0
I14
I20
I29
tp49
I22
s(I0
I6
I22
I29
tp50
I129
s(I0
I9
I27
I29
tp51
I157
s(I0
I1
I18
I29
tp52
I136
s(I0
I11
I23
I29
tp53
I82
s(I0
I17
I27
I29
tp54
I63
s(I0
I6
I18
I29
tp55
I76
s(I0
I8
I23
I29
tp56
I118
s(I0
I2
I26
I29
tp57
I195
s(I0
I14
I27
I29
tp58
I98
s(I0
I10
I19
I29
tp59
I45
s(I0
I1
I22
I29
tp60
I176
s(I0
I13
I22
I29
tp61
I48
s(I0
I5
I20
I29
tp62
I115
s(I0
I17
I20
I29
tp63
I7
s(I0
I8
I27
I29
tp64
I166
s(I0
I10
I23
I29
tp65
I94
s(I0
I7
I25
I29
tp66
I155
s(I0
I16
I27
I29
tp67
I74
s(I0
I13
I25
I29
tp68
I84
s(I0
I17
I19
I29
tp69
I3
s(I0
I9
I17
I29
tp70
I54
s(I0
I1
I24
I29
tp71
I189
s(I0
I12
I22
I29
tp72
I58
s(I0
I4
I20
I29
tp73
I127
s(I0
I16
I20
I29
tp74
I11
s(I0
I7
I21
I29
tp75
I104
s(I0
I15
I28
I29
tp76
I99
s(I0
I9
I21
I29
tp77
I80
s(I0
I1
I28
I29
tp78
I203
s(I0
I6
I25
I29
tp79
I164
s(I0
I12
I25
I29
tp80
I96
s(I0
I7
I17
I29
tp81
I77
s(I0
I8
I17
I29
tp82
I65
s(I0
I3
I25
I29
tp83
I185
s(I0
I15
I24
I29
tp84
I50
s(I0
I11
I27
I29
tp85
I134
s(I0
I3
I18
I29
tp86
I112
s(I0
I14
I28
I29
tp87
I111
s(I0
I17
I25
I29
tp88
I42
s(I0
I6
I21
I29
tp89
I116
s(I0
I8
I21
I29
tp90
I92
s(I0
I5
I27
I29
tp91
I187
s(I0
I13
I18
I29
tp92
I13
s(I0
I3
I22
I29
tp93
I161
s(I0
I14
I24
I29
tp94
I60
s(I0
I15
I22
I29
tp95
I31
s(I0
I6
I17
I29
tp96
I89
s(I0
I2
I18
I29
tp97
I124
s(I0
I2
I25
I29
tp98
I190
s(I0
I10
I27
I29
tp99
I146
s(I0
I5
I23
I29
tp100
I153
s(I0
I17
I23
I29
tp101
I25
s(I0
I7
I27
I29
tp102
I174
s(I0
I15
I18
I29
tp103
I4
s(I0
I12
I18
I29
tp104
I19
s(I0
I2
I22
I29
tp105
I169
s(I0
I4
I27
I29
tp106
I192
s(I0
I14
I22
I29
tp107
I39
s(I0
I5
I19
I29
tp108
I102
s(I0
I16
I19
I29
tp109
I6
s(I0
I1
I27
I29
tp110
I201
s(I0
I13
I26
I29
tp111
I97
s(I0
I9
I25
I29
tp112
I132
s(I0
I9
I18
I29
tp113
I43
s(I0
I4
I23
I29
tp114
I162
s(I0
I14
I18
I29
tp115
I8
s(I0
I16
I23
I29
tp116
I32
s(I0
I6
I27
I29
tp117
I181
s(I0
I11
I20
I29
tp118
I46
s(I0
I1
I20
I29
tp119
I159
s(I0
I12
I26
I29
tp120
I109
s(I0
I13
I20
I29
tp121
I29
s(I0
I8
I18
I29
tp122
I53
s(I0
I4
I19
I29
tp123
I114
s(I0
I8
I25
I29
tp124
I144
s(I0
I3
I17
I29
tp125
I125
s(I0
I11
I24
I29
tp126
I95
s(I0
I5
I25
I29
tp127
I172
s(I0
I16
I25
I29
tp128
I51
s(I0
I17
I17
I29
tp129
I2
s(I0
I10
I20
I29
tp130
I56
s(I0
I12
I20
I29
tp131
I37
s(I0
I3
I21
I29
tp132
I151
s(I0
I15
I21
I29
tp133
I23
s(I0
I11
I28
I29
tp134
I147
s(I0
I7
I23
I29
tp135
I130
s(I0
I7
I28
I29
tp136
I182
s(I0
I10
I24
I29
tp137
I107
s(I0
I2
I17
I29
tp138
I137
s(I0
I4
I25
I29
tp139
I179
s(I0
I7
I19
I29
tp140
I78
s(I0
I16
I17
I29
tp141
I5
s(I0
I9
I22
I29
tp142
I93
s(I0
I3
I27
I29
tp143
I196
s(I0
I15
I26
I29
tp144
I73
s(I0
I10
I28
I29
tp145
I158
s(I0
I11
I18
I29
tp146
I26
s(I0
I6
I28
I29
tp147
I188
s(I0
I2
I21
I29
tp148
I160
s(I0
I14
I21
I29
tp149
I30
s(I0
I6
I23
I29
tp150
I142
s(I0
I1
I19
I29
tp151
I149
s(I0
I9
I26
I29
tp152
I145
s(I0
I11
I22
I29
tp153
I69
s(I0
I8
I22
I29
tp154
I105
s(I0
I17
I26
I29
tp155
I52
s(I0
I14
I26
I29
tp156
I85
s(I0
I10
I18
I29
tp157
I34
s(I0
I6
I19
I29
tp158
I90
s(I0
I1
I23
I29
tp159
I183
s(I0
I2
I27
I29
tp160
I199
s(I0
I13
I23
I29
tp161
I59
s(I0
I5
I21
I29
tp162
I128
s(I0
I17
I21
I29
tp163
I12
s(I0
I13
I28
I29
tp164
I123
s(I0
I8
I26
I29
tp165
I156
s(I0
I10
I22
I29
tp166
I81
s(I0
I16
I26
I29
tp167
I62
s(I0
I15
I17
I29
tp168
I9
s(I0
I5
I17
I29
tp169
I101
s(I0
I7
I24
I29
tp170
I143
s(I0
I1
I25
I29
tp171
I194
s(I0
I13
I24
I29
tp172
I71
s(I0
I12
I28
I29
tp173
I135
s(I0
I12
I23
I29
tp174
I70
s(I0
I4
I21
I29
tp175
I140
s(I0
I16
I21
I29
tp176
I17
s(I0
I7
I20
I29
tp177
I91
s(I0
I9
I20
I29
tp178
I67
s(I0
I6
I24
I29
tp179
I154
s(I0
I12
I24
I29
tp180
I83
s(I0
I16
I18
I29
tp181
I1
s(I0
I14
I17
I29
tp182
I14
s(I0
I4
I17
I29
tp183
I113
s(I0
I15
I25
I29
tp184
I61
s(I0
I11
I17
I29
tp185
I35
s(I0
I3
I19
I29
tp186
I126
s(I0
I3
I24
I29
tp187
I178
s(I0
I11
I26
I29
tp188
I121
s(I0
I6
I20
I29
tp189
I103
s(I0
I8
I20
I29
tp190
I79
s(I0
I13
I19
I29
tp191
I21
s(I0
I3
I23
I29
tp192
I170
s(I0
I5
I26
I29
tp193
I180
s(I0
I15
I23
I29
tp194
I40
s(I0
I17
I18
I29
tp195
I0
s(I0
I2
I24
I29
tp196
I184
s(I0
I14
I25
I29
tp197
I72
s(I0
I10
I26
I29
tp198
I133
s(I0
I10
I17
I29
tp199
I44
s(I0
I2
I19
I29
tp200
I138
s(I0
I16
I24
I29
tp201
I41
s(I0
I5
I22
I29
tp202
I141
s(I0
I15
I19
I29
tp203
I10
s(I0
I17
I22
I29
tp204
I18
s(I0
I7
I26
I29
tp205
I165
s.