(lp1
(I0
I0
I0
I12
tp2
a(I0
I0
I0
I11
tp3
a(I0
I0
I1
I12
tp4
a(I0
I0
I0
I10
tp5
a(I0
I0
I1
I11
tp6
a(I0
I1
I1
I12
tp7
a(I0
I0
I0
I9
tp8
a(I0
I0
I1
I10
tp9
a(I0
I1
I1
I11
tp10
a(I0
I1
I2
I12
tp11
a(I0
I0
I0
I8
tp12
a(I0
I0
I1
I9
tp13
a(I0
I1
I1
I10
tp14
a(I0
I1
I2
I11
tp15
a(I0
I2
I2
I12
tp16
a(I0
I1
I3
I12
tp17
a(I0
I0
I2
I12
tp18
a(I0
I0
I0
I7
tp19
a(I0
I0
I1
I8
tp20
a(I0
I1
I1
I9
tp21
a(I0
I1
I2
I10
tp22
a(I0
I2
I2
I11
tp23
a(I0
I1
I3
I11
tp24
a(I0
I0
I2
I11
tp25
a(I1
I2
I2
I12
tp26
a(I0
I2
I3
I12
tp27
a(I0
I0
I0
I6
tp28
a(I0
I0
I1
I7
tp29
a(I0
I1
I1
I8
tp30
a(I0
I1
I2
I9
tp31
a(I0
I2
I2
I10
tp32
a(I0
I1
I3
I10
tp33
a(I0
I0
I2
I10
tp34
a(I1
I2
I2
I11
tp35
a(I0
I2
I3
I11
tp36
a(I1
I2
I3
I12
tp37
a(I0
I3
I3
I12
tp38
a(I0
I2
I4
I12
tp39
a(I0
I0
I0
I5
tp40
a(I0
I0
I1
I6
tp41
a(I0
I1
I1
I7
tp42
a(I0
I1
I2
I8
tp43
a(I0
I2
I2
I9
tp44
a(I0
I1
I3
I9
tp45
a(I0
I0
I2
I9
tp46
a(I1
I2
I2
I10
tp47
a(I0
I2
I3
I10
tp48
a(I1
I2
I3
I11
tp49
a(I0
I3
I3
I11
tp50
a(I0
I2
I4
I11
tp51
a(I1
I3
I3
I12
tp52
a(I1
I2
I4
I12
tp53
a(I0
I3
I4
I12
tp54
a(I0
I0
I0
I4
tp55
a(I0
I0
I1
I5
tp56
a(I0
I1
I1
I6
tp57
a(I0
I1
I2
I7
tp58
a(I0
I2
I2
I8
tp59
a(I0
I1
I3
I8
tp60
a(I0
I0
I2
I8
tp61
a(I1
I2
I2
I9
tp62
a(I0
I2
I3
I9
tp63
a(I1
I2
I3
I10
tp64
a(I0
I3
I3
I10
tp65
a(I0
I2
I4
I10
tp66
a(I1
I3
I3
I11
tp67
a(I1
I2
I4
I11
tp68
a(I0
I3
I4
I11
tp69
a(I2
I3
I3
I12
tp70
a(I1
I3
I4
I12
tp71
a(I0
I4
I4
I12
tp72
a(I0
I3
I5
I12
tp73
a(I0
I0
I0
I3
tp74
a(I0
I0
I1
I4
tp75
a(I0
I1
I1
I5
tp76
a(I0
I1
I2
I6
tp77
a(I0
I2
I2
I7
tp78
a(I0
I1
I3
I7
tp79
a(I0
I0
I2
I7
tp80
a(I1
I2
I2
I8
tp81
a(I0
I2
I3
I8
tp82
a(I1
I2
I3
I9
tp83
a(I0
I3
I3
I9
tp84
a(I0
I2
I4
I9
tp85
a(I1
I3
I3
I10
tp86
a(I1
I2
I4
I10
tp87
a(I0
I3
I4
I10
tp88
a(I2
I3
I3
I11
tp89
a(I1
I3
I4
I11
tp90
a(I0
I4
I4
I11
tp91
a(I0
I3
I5
I11
tp92
a(I2
I3
I4
I12
tp93
a(I1
I4
I4
I12
tp94
a(I1
I3
I5
I12
tp95
a(I0
I4
I5
I12
tp96
a(I0
I0
I0
I2
tp97
a(I0
I0
I1
I3
tp98
a(I0
I1
I1
I4
tp99
a(I0
I1
I2
I5
tp100
a(I0
I2
I2
I6
tp101
a(I0
I1
I3
I6
tp102
a(I0
I0
I2
I6
tp103
a(I1
I2
I2
I7
tp104
a(I0
I2
I3
I7
tp105
a(I1
I2
I3
I8
tp106
a(I0
I3
I3
I8
tp107
a(I0
I2
I4
I8
tp108
a(I1
I3
I3
I9
tp109
a(I1
I2
I4
I9
tp110
a(I0
I3
I4
I9
tp111
a(I2
I3
I3
I10
tp112
a(I1
I3
I4
I10
tp113
a(I0
I4
I4
I10
tp114
a(I0
I3
I5
I10
tp115
a(I2
I3
I4
I11
tp116
a(I1
I4
I4
I11
tp117
a(I1
I3
I5
I11
tp118
a(I0
I4
I5
I11
tp119
a(I2
I4
I4
I12
tp120
a(I2
I3
I5
I12
tp121
a(I1
I4
I5
I12
tp122
a(I0
I5
I5
I12
tp123
a(I0
I4
I6
I12
tp124
a(I0
I0
I0
I1
tp125
a(I0
I0
I1
I2
tp126
a(I0
I1
I1
I3
tp127
a(I0
I1
I2
I4
tp128
a(I0
I2
I2
I5
tp129
a(I0
I1
I3
I5
tp130
a(I0
I0
I2
I5
tp131
a(I1
I2
I2
I6
tp132
a(I0
I2
I3
I6
tp133
a(I1
I2
I3
I7
tp134
a(I0
I3
I3
I7
tp135
a(I0
I2
I4
I7
tp136
a(I1
I3
I3
I8
tp137
a(I1
I2
I4
I8
tp138
a(I0
I3
I4
I8
tp139
a(I2
I3
I3
I9
tp140
a(I1
I3
I4
I9
tp141
a(I0
I4
I4
I9
tp142
a(I0
I3
I5
I9
tp143
a(I2
I3
I4
I10
tp144
a(I1
I4
I4
I10
tp145
a(I1
I3
I5
I10
tp146
a(I0
I4
I5
I10
tp147
a(I2
I4
I4
I11
tp148
a(I2
I3
I5
I11
tp149
a(I1
I4
I5
I11
tp150
a(I0
I5
I5
I11
tp151
a(I0
I4
I6
I11
tp152
a(I3
I4
I4
I12
tp153
a(I2
I4
I5
I12
tp154
a(I1
I5
I5
I12
tp155
a(I1
I4
I6
I12
tp156
a(I0
I5
I6
I12
tp157
a(I0
I1
I1
I2
tp158
a(I0
I1
I2
I3
tp159
a(I0
I2
I2
I4
tp160
a(I0
I1
I3
I4
tp161
a(I0
I0
I2
I4
tp162
a(I1
I2
I2
I5
tp163
a(I0
I2
I3
I5
tp164
a(I1
I2
I3
I6
tp165
a(I0
I3
I3
I6
tp166
a(I0
I2
I4
I6
tp167
a(I1
I3
I3
I7
tp168
a(I1
I2
I4
I7
tp169
a(I0
I3
I4
I7
tp170
a(I2
I3
I3
I8
tp171
a(I1
I3
I4
I8
tp172
a(I0
I4
I4
I8
tp173
a(I0
I3
I5
I8
tp174
a(I2
I3
I4
I9
tp175
a(I1
I4
I4
I9
tp176
a(I1
I3
I5
I9
tp177
a(I0
I4
I5
I9
tp178
a(I2
I4
I4
I10
tp179
a(I2
I3
I5
I10
tp180
a(I1
I4
I5
I10
tp181
a(I0
I5
I5
I10
tp182
a(I0
I4
I6
I10
tp183
a(I3
I4
I4
I11
tp184
a(I2
I4
I5
I11
tp185
a(I1
I5
I5
I11
tp186
a(I1
I4
I6
I11
tp187
a(I0
I5
I6
I11
tp188
a(I3
I4
I5
I12
tp189
a(I2
I5
I5
I12
tp190
a(I2
I4
I6
I12
tp191
a(I1
I5
I6
I12
tp192
a(I0
I6
I6
I12
tp193
a(I0
I5
I7
I12
tp194
a(I0
I2
I2
I3
tp195
a(I0
I0
I2
I3
tp196
a(I1
I2
I2
I4
tp197
a(I0
I2
I3
I4
tp198
a(I1
I2
I3
I5
tp199
a(I0
I3
I3
I5
tp200
a(I0
I2
I4
I5
tp201
a(I1
I3
I3
I6
tp202
a(I1
I2
I4
I6
tp203
a(I0
I3
I4
I6
tp204
a(I2
I3
I3
I7
tp205
a(I1
I3
I4
I7
tp206
a(I0
I4
I4
I7
tp207
a(I0
I3
I5
I7
tp208
a(I2
I3
I4
I8
tp209
a(I1
I4
I4
I8
tp210
a(I1
I3
I5
I8
tp211
a(I0
I4
I5
I8
tp212
a(I2
I4
I4
I9
tp213
a(I2
I3
I5
I9
tp214
a(I1
I4
I5
I9
tp215
a(I0
I5
I5
I9
tp216
a(I0
I4
I6
I9
tp217
a(I3
I4
I4
I10
tp218
a(I2
I4
I5
I10
tp219
a(I1
I5
I5
I10
tp220
a(I1
I4
I6
I10
tp221
a(I0
I5
I6
I10
tp222
a(I3
I4
I5
I11
tp223
a(I2
I5
I5
I11
tp224
a(I2
I4
I6
I11
tp225
a(I1
I5
I6
I11
tp226
a(I0
I6
I6
I11
tp227
a(I0
I5
I7
I11
tp228
a(I3
I5
I5
I12
tp229
a(I3
I4
I6
I12
tp230
a(I2
I5
I6
I12
tp231
a(I1
I6
I6
I12
tp232
a(I1
I5
I7
I12
tp233
a(I0
I6
I7
I12
tp234
a(I1
I2
I2
I3
tp235
a(I1
I2
I3
I4
tp236
a(I0
I3
I3
I4
tp237
a(I1
I3
I3
I5
tp238
a(I1
I2
I4
I5
tp239
a(I0
I3
I4
I5
tp240
a(I2
I3
I3
I6
tp241
a(I1
I3
I4
I6
tp242
a(I0
I4
I4
I6
tp243
a(I0
I3
I5
I6
tp244
a(I2
I3
I4
I7
tp245
a(I1
I4
I4
I7
tp246
a(I1
I3
I5
I7
tp247
a(I0
I4
I5
I7
tp248
a(I2
I4
I4
I8
tp249
a(I2
I3
I5
I8
tp250
a(I1
I4
I5
I8
tp251
a(I0
I5
I5
I8
tp252
a(I0
I4
I6
I8
tp253
a(I3
I4
I4
I9
tp254
a(I2
I4
I5
I9
tp255
a(I1
I5
I5
I9
tp256
a(I1
I4
I6
I9
tp257
a(I0
I5
I6
I9
tp258
a(I3
I4
I5
I10
tp259
a(I2
I5
I5
I10
tp260
a(I2
I4
I6
I10
tp261
a(I1
I5
I6
I10
tp262
a(I0
I6
I6
I10
tp263
a(I0
I5
I7
I10
tp264
a(I3
I5
I5
I11
tp265
a(I3
I4
I6
I11
tp266
a(I2
I5
I6
I11
tp267
a(I1
I6
I6
I11
tp268
a(I1
I5
I7
I11
tp269
a(I0
I6
I7
I11
tp270
a(I4
I5
I5
I12
tp271
a(I3
I5
I6
I12
tp272
a(I2
I6
I6
I12
tp273
a(I2
I5
I7
I12
tp274
a(I1
I6
I7
I12
tp275
a(I0
I7
I7
I12
tp276
a(I0
I6
I8
I12
tp277
a(I1
I3
I3
I4
tp278
a(I2
I3
I3
I5
tp279
a(I1
I3
I4
I5
tp280
a(I0
I4
I4
I5
tp281
a(I2
I3
I4
I6
tp282
a(I1
I4
I4
I6
tp283
a(I1
I3
I5
I6
tp284
a(I0
I4
I5
I6
tp285
a(I2
I4
I4
I7
tp286
a(I2
I3
I5
I7
tp287
a(I1
I4
I5
I7
tp288
a(I0
I5
I5
I7
tp289
a(I0
I4
I6
I7
tp290
a(I3
I4
I4
I8
tp291
a(I2
I4
I5
I8
tp292
a(I1
I5
I5
I8
tp293
a(I1
I4
I6
I8
tp294
a(I0
I5
I6
I8
tp295
a(I3
I4
I5
I9
tp296
a(I2
I5
I5
I9
tp297
a(I2
I4
I6
I9
tp298
a(I1
I5
I6
I9
tp299
a(I0
I6
I6
I9
tp300
a(I0
I5
I7
I9
tp301
a(I3
I5
I5
I10
tp302
a(I3
I4
I6
I10
tp303
a(I2
I5
I6
I10
tp304
a(I1
I6
I6
I10
tp305
a(I1
I5
I7
I10
tp306
a(I0
I6
I7
I10
tp307
a(I4
I5
I5
I11
tp308
a(I3
I5
I6
I11
tp309
a(I2
I6
I6
I11
tp310
a(I2
I5
I7
I11
tp311
a(I1
I6
I7
I11
tp312
a(I0
I7
I7
I11
tp313
a(I0
I6
I8
I11
tp314
a(I4
I5
I6
I12
tp315
a(I3
I6
I6
I12
tp316
a(I3
I5
I7
I12
tp317
a(I2
I6
I7
I12
tp318
a(I1
I7
I7
I12
tp319
a(I1
I6
I8
I12
tp320
a(I0
I7
I8
I12
tp321
a(I2
I3
I3
I4
tp322
a(I2
I3
I4
I5
tp323
a(I1
I4
I4
I5
tp324
a(I2
I4
I4
I6
tp325
a(I2
I3
I5
I6
tp326
a(I1
I4
I5
I6
tp327
a(I0
I5
I5
I6
tp328
a(I3
I4
I4
I7
tp329
a(I2
I4
I5
I7
tp330
a(I1
I5
I5
I7
tp331
a(I1
I4
I6
I7
tp332
a(I0
I5
I6
I7
tp333
a(I3
I4
I5
I8
tp334
a(I2
I5
I5
I8
tp335
a(I2
I4
I6
I8
tp336
a(I1
I5
I6
I8
tp337
a(I0
I6
I6
I8
tp338
a(I0
I5
I7
I8
tp339
a(I3
I5
I5
I9
tp340
a(I3
I4
I6
I9
tp341
a(I2
I5
I6
I9
tp342
a(I1
I6
I6
I9
tp343
a(I1
I5
I7
I9
tp344
a(I0
I6
I7
I9
tp345
a(I4
I5
I5
I10
tp346
a(I3
I5
I6
I10
tp347
a(I2
I6
I6
I10
tp348
a(I2
I5
I7
I10
tp349
a(I1
I6
I7
I10
tp350
a(I0
I7
I7
I10
tp351
a(I0
I6
I8
I10
tp352
a(I4
I5
I6
I11
tp353
a(I3
I6
I6
I11
tp354
a(I3
I5
I7
I11
tp355
a(I2
I6
I7
I11
tp356
a(I1
I7
I7
I11
tp357
a(I1
I6
I8
I11
tp358
a(I0
I7
I8
I11
tp359
a(I4
I6
I6
I12
tp360
a(I4
I5
I7
I12
tp361
a(I3
I6
I7
I12
tp362
a(I2
I7
I7
I12
tp363
a(I2
I6
I8
I12
tp364
a(I1
I7
I8
I12
tp365
a(I0
I8
I8
I12
tp366
a(I0
I7
I9
I12
tp367
a(I2
I4
I4
I5
tp368
a(I3
I4
I4
I6
tp369
a(I2
I4
I5
I6
tp370
a(I1
I5
I5
I6
tp371
a(I3
I4
I5
I7
tp372
a(I2
I5
I5
I7
tp373
a(I2
I4
I6
I7
tp374
a(I1
I5
I6
I7
tp375
a(I0
I6
I6
I7
tp376
a(I3
I5
I5
I8
tp377
a(I3
I4
I6
I8
tp378
a(I2
I5
I6
I8
tp379
a(I1
I6
I6
I8
tp380
a(I1
I5
I7
I8
tp381
a(I0
I6
I7
I8
tp382
a(I4
I5
I5
I9
tp383
a(I3
I5
I6
I9
tp384
a(I2
I6
I6
I9
tp385
a(I2
I5
I7
I9
tp386
a(I1
I6
I7
I9
tp387
a(I0
I7
I7
I9
tp388
a(I0
I6
I8
I9
tp389
a(I4
I5
I6
I10
tp390
a(I3
I6
I6
I10
tp391
a(I3
I5
I7
I10
tp392
a(I2
I6
I7
I10
tp393
a(I1
I7
I7
I10
tp394
a(I1
I6
I8
I10
tp395
a(I0
I7
I8
I10
tp396
a(I4
I6
I6
I11
tp397
a(I4
I5
I7
I11
tp398
a(I3
I6
I7
I11
tp399
a(I2
I7
I7
I11
tp400
a(I2
I6
I8
I11
tp401
a(I1
I7
I8
I11
tp402
a(I0
I8
I8
I11
tp403
a(I0
I7
I9
I11
tp404
a(I5
I6
I6
I12
tp405
a(I4
I6
I7
I12
tp406
a(I3
I7
I7
I12
tp407
a(I3
I6
I8
I12
tp408
a(I2
I7
I8
I12
tp409
a(I1
I8
I8
I12
tp410
a(I1
I7
I9
I12
tp411
a(I0
I8
I9
I12
tp412
a(I3
I4
I4
I5
tp413
a(I3
I4
I5
I6
tp414
a(I2
I5
I5
I6
tp415
a(I3
I5
I5
I7
tp416
a(I3
I4
I6
I7
tp417
a(I2
I5
I6
I7
tp418
a(I1
I6
I6
I7
tp419
a(I4
I5
I5
I8
tp420
a(I3
I5
I6
I8
tp421
a(I2
I6
I6
I8
tp422
a(I2
I5
I7
I8
tp423
a(I1
I6
I7
I8
tp424
a(I0
I7
I7
I8
tp425
a(I4
I5
I6
I9
tp426
a(I3
I6
I6
I9
tp427
a(I3
I5
I7
I9
tp428
a(I2
I6
I7
I9
tp429
a(I1
I7
I7
I9
tp430
a(I1
I6
I8
I9
tp431
a(I0
I7
I8
I9
tp432
a(I4
I6
I6
I10
tp433
a(I4
I5
I7
I10
tp434
a(I3
I6
I7
I10
tp435
a(I2
I7
I7
I10
tp436
a(I2
I6
I8
I10
tp437
a(I1
I7
I8
I10
tp438
a(I0
I8
I8
I10
tp439
a(I0
I7
I9
I10
tp440
a(I5
I6
I6
I11
tp441
a(I4
I6
I7
I11
tp442
a(I3
I7
I7
I11
tp443
a(I3
I6
I8
I11
tp444
a(I2
I7
I8
I11
tp445
a(I1
I8
I8
I11
tp446
a(I1
I7
I9
I11
tp447
a(I0
I8
I9
I11
tp448
a(I5
I6
I7
I12
tp449
a(I4
I7
I7
I12
tp450
a(I4
I6
I8
I12
tp451
a(I3
I7
I8
I12
tp452
a(I2
I8
I8
I12
tp453
a(I2
I7
I9
I12
tp454
a(I1
I8
I9
I12
tp455
a(I0
I9
I9
I12
tp456
a(I0
I8
I10
I12
tp457
a(I3
I5
I5
I6
tp458
a(I4
I5
I5
I7
tp459
a(I3
I5
I6
I7
tp460
a(I2
I6
I6
I7
tp461
a(I4
I5
I6
I8
tp462
a(I3
I6
I6
I8
tp463
a(I3
I5
I7
I8
tp464
a(I2
I6
I7
I8
tp465
a(I1
I7
I7
I8
tp466
a(I4
I6
I6
I9
tp467
a(I4
I5
I7
I9
tp468
a(I3
I6
I7
I9
tp469
a(I2
I7
I7
I9
tp470
a(I2
I6
I8
I9
tp471
a(I1
I7
I8
I9
tp472
a(I0
I8
I8
I9
tp473
a(I5
I6
I6
I10
tp474
a(I4
I6
I7
I10
tp475
a(I3
I7
I7
I10
tp476
a(I3
I6
I8
I10
tp477
a(I2
I7
I8
I10
tp478
a(I1
I8
I8
I10
tp479
a(I1
I7
I9
I10
tp480
a(I0
I8
I9
I10
tp481
a(I5
I6
I7
I11
tp482
a(I4
I7
I7
I11
tp483
a(I4
I6
I8
I11
tp484
a(I3
I7
I8
I11
tp485
a(I2
I8
I8
I11
tp486
a(I2
I7
I9
I11
tp487
a(I1
I8
I9
I11
tp488
a(I0
I9
I9
I11
tp489
a(I0
I8
I10
I11
tp490
a(I5
I7
I7
I12
tp491
a(I5
I6
I8
I12
tp492
a(I4
I7
I8
I12
tp493
a(I3
I8
I8
I12
tp494
a(I3
I7
I9
I12
tp495
a(I2
I8
I9
I12
tp496
a(I1
I9
I9
I12
tp497
a(I1
I8
I10
I12
tp498
a(I0
I9
I10
I12
tp499
a(I4
I5
I5
I6
tp500
a(I4
I5
I6
I7
tp501
a(I3
I6
I6
I7
tp502
a(I4
I6
I6
I8
tp503
a(I4
I5
I7
I8
tp504
a(I3
I6
I7
I8
tp505
a(I2
I7
I7
I8
tp506
a(I5
I6
I6
I9
tp507
a(I4
I6
I7
I9
tp508
a(I3
I7
I7
I9
tp509
a(I3
I6
I8
I9
tp510
a(I2
I7
I8
I9
tp511
a(I1
I8
I8
I9
tp512
a(I5
I6
I7
I10
tp513
a(I4
I7
I7
I10
tp514
a(I4
I6
I8
I10
tp515
a(I3
I7
I8
I10
tp516
a(I2
I8
I8
I10
tp517
a(I2
I7
I9
I10
tp518
a(I1
I8
I9
I10
tp519
a(I0
I9
I9
I10
tp520
a(I5
I7
I7
I11
tp521
a(I5
I6
I8
I11
tp522
a(I4
I7
I8
I11
tp523
a(I3
I8
I8
I11
tp524
a(I3
I7
I9
I11
tp525
a(I2
I8
I9
I11
tp526
a(I1
I9
I9
I11
tp527
a(I1
I8
I10
I11
tp528
a(I0
I9
I10
I11
tp529
a(I6
I7
I7
I12
tp530
a(I5
I7
I8
I12
tp531
a(I4
I8
I8
I12
tp532
a(I4
I7
I9
I12
tp533
a(I3
I8
I9
I12
tp534
a(I2
I9
I9
I12
tp535
a(I2
I8
I10
I12
tp536
a(I1
I9
I10
I12
tp537
a(I0
I10
I10
I12
tp538
a(I0
I9
I11
I12
tp539
a(I4
I6
I6
I7
tp540
a(I5
I6
I6
I8
tp541
a(I4
I6
I7
I8
tp542
a(I3
I7
I7
I8
tp543
a(I5
I6
I7
I9
tp544
a(I4
I7
I7
I9
tp545
a(I4
I6
I8
I9
tp546
a(I3
I7
I8
I9
tp547
a(I2
I8
I8
I9
tp548
a(I5
I7
I7
I10
tp549
a(I5
I6
I8
I10
tp550
a(I4
I7
I8
I10
tp551
a(I3
I8
I8
I10
tp552
a(I3
I7
I9
I10
tp553
a(I2
I8
I9
I10
tp554
a(I1
I9
I9
I10
tp555
a(I6
I7
I7
I11
tp556
a(I5
I7
I8
I11
tp557
a(I4
I8
I8
I11
tp558
a(I4
I7
I9
I11
tp559
a(I3
I8
I9
I11
tp560
a(I2
I9
I9
I11
tp561
a(I2
I8
I10
I11
tp562
a(I1
I9
I10
I11
tp563
a(I0
I10
I10
I11
tp564
a(I6
I7
I8
I12
tp565
a(I5
I8
I8
I12
tp566
a(I5
I7
I9
I12
tp567
a(I4
I8
I9
I12
tp568
a(I3
I9
I9
I12
tp569
a(I3
I8
I10
I12
tp570
a(I2
I9
I10
I12
tp571
a(I1
I10
I10
I12
tp572
a(I1
I9
I11
I12
tp573
a(I0
I10
I11
I12
tp574
a(I5
I6
I6
I7
tp575
a(I5
I6
I7
I8
tp576
a(I4
I7
I7
I8
tp577
a(I5
I7
I7
I9
tp578
a(I5
I6
I8
I9
tp579
a(I4
I7
I8
I9
tp580
a(I3
I8
I8
I9
tp581
a(I6
I7
I7
I10
tp582
a(I5
I7
I8
I10
tp583
a(I4
I8
I8
I10
tp584
a(I4
I7
I9
I10
tp585
a(I3
I8
I9
I10
tp586
a(I2
I9
I9
I10
tp587
a(I6
I7
I8
I11
tp588
a(I5
I8
I8
I11
tp589
a(I5
I7
I9
I11
tp590
a(I4
I8
I9
I11
tp591
a(I3
I9
I9
I11
tp592
a(I3
I8
I10
I11
tp593
a(I2
I9
I10
I11
tp594
a(I1
I10
I10
I11
tp595
a(I0
I10
I12
I12
tp596
a(I6
I8
I8
I12
tp597
a(I6
I7
I9
I12
tp598
a(I5
I8
I9
I12
tp599
a(I4
I9
I9
I12
tp600
a(I4
I8
I10
I12
tp601
a(I3
I9
I10
I12
tp602
a(I2
I10
I10
I12
tp603
a(I2
I9
I11
I12
tp604
a(I1
I10
I11
I12
tp605
a(I0
I11
I11
I12
tp606
a(I5
I7
I7
I8
tp607
a(I6
I7
I7
I9
tp608
a(I5
I7
I8
I9
tp609
a(I4
I8
I8
I9
tp610
a(I6
I7
I8
I10
tp611
a(I5
I8
I8
I10
tp612
a(I5
I7
I9
I10
tp613
a(I4
I8
I9
I10
tp614
a(I3
I9
I9
I10
tp615
a(I6
I8
I8
I11
tp616
a(I6
I7
I9
I11
tp617
a(I5
I8
I9
I11
tp618
a(I4
I9
I9
I11
tp619
a(I4
I8
I10
I11
tp620
a(I3
I9
I10
I11
tp621
a(I2
I10
I10
I11
tp622
a(I1
I10
I12
I12
tp623
a(I0
I11
I12
I12
tp624
a(I7
I8
I8
I12
tp625
a(I6
I8
I9
I12
tp626
a(I5
I9
I9
I12
tp627
a(I5
I8
I10
I12
tp628
a(I4
I9
I10
I12
tp629
a(I3
I10
I10
I12
tp630
a(I3
I9
I11
I12
tp631
a(I2
I10
I11
I12
tp632
a(I1
I11
I11
I12
tp633
a(I6
I7
I7
I8
tp634
a(I6
I7
I8
I9
tp635
a(I5
I8
I8
I9
tp636
a(I6
I8
I8
I10
tp637
a(I6
I7
I9
I10
tp638
a(I5
I8
I9
I10
tp639
a(I4
I9
I9
I10
tp640
a(I7
I8
I8
I11
tp641
a(I6
I8
I9
I11
tp642
a(I5
I9
I9
I11
tp643
a(I5
I8
I10
I11
tp644
a(I4
I9
I10
I11
tp645
a(I3
I10
I10
I11
tp646
a(I2
I10
I12
I12
tp647
a(I1
I11
I12
I12
tp648
a(I0
I12
I12
I12
tp649
a(I7
I8
I9
I12
tp650
a(I6
I9
I9
I12
tp651
a(I6
I8
I10
I12
tp652
a(I5
I9
I10
I12
tp653
a(I4
I10
I10
I12
tp654
a(I4
I9
I11
I12
tp655
a(I3
I10
I11
I12
tp656
a(I2
I11
I11
I12
tp657
a(I6
I8
I8
I9
tp658
a(I7
I8
I8
I10
tp659
a(I6
I8
I9
I10
tp660
a(I5
I9
I9
I10
tp661
a(I7
I8
I9
I11
tp662
a(I6
I9
I9
I11
tp663
a(I6
I8
I10
I11
tp664
a(I5
I9
I10
I11
tp665
a(I4
I10
I10
I11
tp666
a(I3
I10
I12
I12
tp667
a(I2
I11
I12
I12
tp668
a(I1
I12
I12
I12
tp669
a(I7
I9
I9
I12
tp670
a(I7
I8
I10
I12
tp671
a(I6
I9
I10
I12
tp672
a(I5
I10
I10
I12
tp673
a(I5
I9
I11
I12
tp674
a(I4
I10
I11
I12
tp675
a(I3
I11
I11
I12
tp676
a(I7
I8
I8
I9
tp677
a(I7
I8
I9
I10
tp678
a(I6
I9
I9
I10
tp679
a(I7
I9
I9
I11
tp680
a(I7
I8
I10
I11
tp681
a(I6
I9
I10
I11
tp682
a(I5
I10
I10
I11
tp683
a(I4
I10
I12
I12
tp684
a(I3
I11
I12
I12
tp685
a(I2
I12
I12
I12
tp686
a(I8
I9
I9
I12
tp687
a(I7
I9
I10
I12
tp688
a(I6
I10
I10
I12
tp689
a(I6
I9
I11
I12
tp690
a(I5
I10
I11
I12
tp691
a(I4
I11
I11
I12
tp692
a(I7
I9
I9
I10
tp693
a(I8
I9
I9
I11
tp694
a(I7
I9
I10
I11
tp695
a(I6
I10
I10
I11
tp696
a(I5
I10
I12
I12
tp697
a(I4
I11
I12
I12
tp698
a(I3
I12
I12
I12
tp699
a(I8
I9
I10
I12
tp700
a(I7
I10
I10
I12
tp701
a(I7
I9
I11
I12
tp702
a(I6
I10
I11
I12
tp703
a(I5
I11
I11
I12
tp704
a(I8
I9
I9
I10
tp705
a(I8
I9
I10
I11
tp706
a(I7
I10
I10
I11
tp707
a(I6
I10
I12
I12
tp708
a(I5
I11
I12
I12
tp709
a(I4
I12
I12
I12
tp710
a(I8
I10
I10
I12
tp711
a(I8
I9
I11
I12
tp712
a(I7
I10
I11
I12
tp713
a(I6
I11
I11
I12
tp714
a(I8
I10
I10
I11
tp715
a(I7
I10
I12
I12
tp716
a(I6
I11
I12
I12
tp717
a(I5
I12
I12
I12
tp718
a(I9
I10
I10
I12
tp719
a(I8
I10
I11
I12
tp720
a(I7
I11
I11
I12
tp721
a(I9
I10
I10
I11
tp722
a(I8
I10
I12
I12
tp723
a(I7
I11
I12
I12
tp724
a(I6
I12
I12
I12
tp725
a(I9
I10
I11
I12
tp726
a(I8
I11
I11
I12
tp727
a(I9
I10
I12
I12
tp728
a(I8
I11
I12
I12
tp729
a(I7
I12
I12
I12
tp730
a(I9
I11
I11
I12
tp731
a(I9
I11
I12
I12
tp732
a(I8
I12
I12
I12
tp733
a(I10
I11
I11
I12
tp734
a(I10
I11
I12
I12
tp735
a(I9
I12
I12
I12
tp736
a(I10
I12
I12
I12
tp737
a(I11
I12
I12
I12
tp738
a.