(dp1
((I3
I20
tp2
(I2
I20
tp3
tp4
(lp5
S'stack'
p6
aS'loop'
p7
as((I0
I18
tp8
(I0
I19
tp9
tp10
(lp11
g7
ag6
as((I7
I10
tp12
(I6
I10
tp13
tp14
(lp15
g6
ag7
as((I3
I19
tp16
(I3
I20
tp17
tp18
(lp19
S'end'
p20
ag6
as((I0
I2
tp21
(I0
I3
tp22
tp23
(lp24
g7
ag6
as((I7
I18
tp25
(I7
I19
tp26
tp27
(lp28
g7
ag6
as((I5
I7
tp29
(I5
I8
tp30
tp31
(lp32
g7
ag6
as((I5
I6
tp33
(I5
I7
tp34
tp35
(lp36
g7
ag6
as((I4
I15
tp37
(I3
I15
tp38
tp39
(lp40
g6
ag7
as((I3
I14
tp41
(I3
I15
tp42
tp43
(lp44
g7
ag6
as((I9
I19
tp45
(I8
I19
tp46
tp47
(lp48
g6
ag7
as((I0
I0
tp49
(I13
I14
tp50
tp51
(lp52
g7
ag7
as((I3
I7
tp53
(I2
I7
tp54
tp55
(lp56
g6
ag7
as((I2
I16
tp57
(I1
I16
tp58
tp59
(lp60
g6
ag7
as((I1
I12
tp61
(I0
I12
tp62
tp63
(lp64
g6
ag20
as((I11
I12
tp65
(I11
I13
tp66
tp67
(lp68
g7
ag6
as((I8
I19
tp69
(I8
I20
tp70
tp71
(lp72
g20
ag6
as((I0
I5
tp73
(I0
I6
tp74
tp75
(lp76
g7
ag6
as(g49
(I7
I8
tp77
tp78
(lp79
g7
ag7
as((I1
I19
tp80
(I1
I20
tp81
tp82
(lp83
g20
ag6
as((I2
I12
tp84
(I1
I12
tp85
tp86
(lp87
g6
ag7
as((I10
I18
tp88
(I10
I19
tp89
tp90
(lp91
g7
ag6
as((I5
I13
tp92
(I5
I14
tp93
tp94
(lp95
g7
ag6
as((I10
I11
tp96
(I10
I12
tp97
tp98
(lp99
g7
ag6
as((I11
I15
tp100
(I11
I16
tp101
tp102
(lp103
g7
ag6
as((I7
I11
tp104
(I7
I12
tp105
tp106
(lp107
g7
ag6
as(g49
(I6
I7
tp108
tp109
(lp110
g7
ag7
as((I12
I16
tp111
(I12
I17
tp112
tp113
(lp114
g7
ag6
as((I5
I16
tp115
(I5
I17
tp116
tp117
(lp118
g7
ag6
as((I11
I20
tp119
(I10
I20
tp120
tp121
(lp122
g6
ag7
as((I6
I12
tp123
(I6
I13
tp124
tp125
(lp126
g7
ag6
as((I1
I16
tp127
(I0
I16
tp128
tp129
(lp130
g6
ag20
as((I8
I17
tp131
(I8
I18
tp132
tp133
(lp134
g7
ag6
as((I9
I11
tp135
(I9
I12
tp136
tp137
(lp138
g7
ag6
as((I2
I3
tp139
(I1
I3
tp140
tp141
(lp142
g6
ag7
as((I1
I10
tp143
(I1
I11
tp144
tp145
(lp146
g7
ag6
as((I14
I17
tp147
(I14
I18
tp148
tp149
(lp150
g7
ag6
as(g65
(I10
I12
tp151
tp152
(lp153
g6
ag7
as((I12
I14
tp154
(I12
I15
tp155
tp156
(lp157
g7
ag6
as((I5
I17
tp158
(I5
I18
tp159
tp160
(lp161
g7
ag6
as(g100
(I10
I15
tp162
tp163
(lp164
g6
ag7
as((I4
I17
tp165
(I3
I17
tp166
tp167
(lp168
g6
ag7
as((I0
I11
tp169
(I0
I12
tp170
tp171
(lp172
g7
ag6
as((I4
I18
tp173
(I4
I19
tp174
tp175
(lp176
g7
ag6
as((I5
I12
tp177
(I5
I13
tp178
tp179
(lp180
g7
ag6
as((I5
I11
tp181
(I4
I11
tp182
tp183
(lp184
g6
ag7
as(g25
(I6
I18
tp185
tp186
(lp187
g6
ag7
as((I1
I7
tp188
(I1
I8
tp189
tp190
(lp191
g7
ag6
as((I8
I10
tp192
(I7
I10
tp193
tp194
(lp195
g6
ag7
as(g12
(I7
I11
tp196
tp197
(lp198
g7
ag6
as((I6
I10
tp199
(I5
I10
tp200
tp201
(lp202
g6
ag7
as((I9
I12
tp203
(I9
I13
tp204
tp205
(lp206
g7
ag6
as((I6
I9
tp207
(I5
I9
tp208
tp209
(lp210
g6
ag7
as((I7
I15
tp211
(I6
I15
tp212
tp213
(lp214
g6
ag7
as((I2
I17
tp215
(I2
I18
tp216
tp217
(lp218
g7
ag6
as(g80
(I0
I19
tp219
tp220
(lp221
g6
ag20
as(g123
(I5
I12
tp222
tp223
(lp224
g6
ag7
as((I6
I20
tp225
(I5
I20
tp226
tp227
(lp228
g6
ag7
as((I0
I13
tp229
(I0
I14
tp230
tp231
(lp232
g7
ag6
as((I5
I10
tp233
(I5
I11
tp234
tp235
(lp236
g7
ag6
as(g49
(I16
I17
tp237
tp238
(lp239
g7
ag7
as((I7
I12
tp240
(I7
I13
tp241
tp242
(lp243
g7
ag6
as((I9
I15
tp244
(I9
I16
tp245
tp246
(lp247
g7
ag6
as((I4
I12
tp248
(I4
I13
tp249
tp250
(lp251
g7
ag6
as((I10
I19
tp252
(I10
I20
tp253
tp254
(lp255
g20
ag6
as((I1
I6
tp256
(I1
I7
tp257
tp258
(lp259
g7
ag6
as((I8
I12
tp260
(I8
I13
tp261
tp262
(lp263
g7
ag6
as((I5
I19
tp264
(I5
I20
tp265
tp266
(lp267
g20
ag6
as((I2
I7
tp268
(I2
I8
tp269
tp270
(lp271
g7
ag6
as((I0
I3
tp272
(I0
I4
tp273
tp274
(lp275
g7
ag6
as((I9
I13
tp276
(I9
I14
tp277
tp278
(lp279
g7
ag6
as((I3
I10
tp280
(I2
I10
tp281
tp282
(lp283
g6
ag7
as(g49
(I3
I4
tp284
tp285
(lp286
g7
ag7
as(g49
(I8
I9
tp287
tp288
(lp289
g7
ag7
as((I4
I14
tp290
(I4
I15
tp291
tp292
(lp293
g7
ag6
as(g127
(I1
I17
tp294
tp295
(lp296
g7
ag6
as((I3
I11
tp297
(I2
I11
tp298
tp299
(lp300
g6
ag7
as((I7
I14
tp301
(I6
I14
tp302
tp303
(lp304
g6
ag7
as((I3
I16
tp305
(I2
I16
tp306
tp307
(lp308
g6
ag7
as((I18
I20
tp309
(I17
I20
tp310
tp311
(lp312
g6
ag7
as((I2
I11
tp313
(I2
I12
tp314
tp315
(lp316
g7
ag6
as((I12
I15
tp317
(I11
I15
tp318
tp319
(lp320
g6
ag7
as((I10
I16
tp321
(I10
I17
tp322
tp323
(lp324
g7
ag6
as((I8
I18
tp325
(I7
I18
tp326
tp327
(lp328
g6
ag7
as((I8
I16
tp329
(I7
I16
tp330
tp331
(lp332
g6
ag7
as((I8
I11
tp333
(I8
I12
tp334
tp335
(lp336
g7
ag6
as((I1
I11
tp337
(I0
I11
tp338
tp339
(lp340
g6
ag20
as((I2
I18
tp341
(I2
I19
tp342
tp343
(lp344
g7
ag6
as((I16
I17
tp345
(I15
I17
tp346
tp347
(lp348
g6
ag7
as(g104
(I6
I11
tp349
tp350
(lp351
g6
ag7
as(g260
(I7
I12
tp352
tp353
(lp354
g6
ag7
as(g49
(I17
I18
tp355
tp356
(lp357
g7
ag7
as((I9
I17
tp358
(I8
I17
tp359
tp360
(lp361
g6
ag7
as(g29
(I4
I7
tp362
tp363
(lp364
g6
ag7
as((I16
I20
tp365
(I15
I20
tp366
tp367
(lp368
g6
ag7
as((I11
I19
tp369
(I10
I19
tp370
tp371
(lp372
g6
ag7
as((I9
I16
tp373
(I9
I17
tp374
tp375
(lp376
g7
ag6
as((I8
I13
tp377
(I7
I13
tp378
tp379
(lp380
g6
ag7
as(g240
(I6
I12
tp381
tp382
(lp383
g6
ag7
as((I13
I18
tp384
(I13
I19
tp385
tp386
(lp387
g7
ag6
as((I2
I10
tp388
(I1
I10
tp389
tp390
(lp391
g6
ag7
as(g96
(I9
I11
tp392
tp393
(lp394
g6
ag7
as(g290
(I3
I14
tp395
tp396
(lp397
g6
ag7
as((I2
I5
tp398
(I1
I5
tp399
tp400
(lp401
g6
ag7
as(g268
(I1
I7
tp402
tp403
(lp404
g6
ag7
as((I19
I20
tp405
(I18
I20
tp406
tp407
(lp408
g6
ag7
as((I6
I8
tp409
(I6
I9
tp410
tp411
(lp412
g7
ag6
as((I10
I14
tp413
(I9
I14
tp414
tp415
(lp416
g6
ag7
as(g45
(I9
I20
tp417
tp418
(lp419
g20
ag6
as(g215
(I1
I17
tp420
tp421
(lp422
g6
ag7
as(g321
(I9
I16
tp423
tp424
(lp425
g6
ag7
as(g301
(I7
I15
tp426
tp427
(lp428
g7
ag6
as((I2
I14
tp429
(I1
I14
tp430
tp431
(lp432
g6
ag7
as((I1
I15
tp433
(I0
I15
tp434
tp435
(lp436
g6
ag20
as((I3
I12
tp437
(I2
I12
tp438
tp439
(lp440
g6
ag7
as(g115
(I4
I16
tp441
tp442
(lp443
g6
ag7
as(g147
(I13
I17
tp444
tp445
(lp446
g6
ag7
as((I7
I8
tp447
(I7
I9
tp448
tp449
(lp450
g7
ag6
as((I15
I20
tp451
(I14
I20
tp452
tp453
(lp454
g6
ag7
as((I6
I17
tp455
(I6
I18
tp456
tp457
(lp458
g7
ag6
as((I12
I13
tp459
(I11
I13
tp460
tp461
(lp462
g6
ag7
as((I7
I16
tp463
(I6
I16
tp464
tp465
(lp466
g6
ag7
as(g49
(I15
I16
tp467
tp468
(lp469
g7
ag7
as(g256
(I0
I6
tp470
tp471
(lp472
g6
ag20
as(g248
(I3
I12
tp473
tp474
(lp475
g6
ag7
as((I3
I17
tp476
(I3
I18
tp477
tp478
(lp479
g7
ag6
as((I2
I13
tp480
(I1
I13
tp481
tp482
(lp483
g6
ag7
as((I5
I14
tp484
(I4
I14
tp485
tp486
(lp487
g6
ag7
as((I13
I16
tp488
(I13
I17
tp489
tp490
(lp491
g7
ag6
as(g333
(I7
I11
tp492
tp493
(lp494
g6
ag7
as(g16
(I2
I19
tp495
tp496
(lp497
g6
ag7
as((I1
I9
tp498
(I0
I9
tp499
tp500
(lp501
g6
ag20
as((I4
I6
tp502
(I3
I6
tp503
tp504
(lp505
g6
ag7
as((I4
I5
tp506
(I4
I6
tp507
tp508
(lp509
g7
ag6
as((I11
I13
tp510
(I10
I13
tp511
tp512
(lp513
g6
ag7
as((I6
I14
tp514
(I6
I15
tp515
tp516
(lp517
g7
ag6
as((I9
I18
tp518
(I9
I19
tp519
tp520
(lp521
g7
ag6
as((I14
I16
tp522
(I14
I17
tp523
tp524
(lp525
g7
ag6
as(g173
(I3
I18
tp526
tp527
(lp528
g6
ag7
as((I17
I19
tp529
(I16
I19
tp530
tp531
(lp532
g6
ag7
as((I1
I18
tp533
(I1
I19
tp534
tp535
(lp536
g7
ag6
as((I3
I15
tp537
(I2
I15
tp538
tp539
(lp540
g6
ag7
as(g49
(I0
I1
tp541
tp542
(lp543
g7
ag20
as((I6
I13
tp544
(I6
I14
tp545
tp546
(lp547
g7
ag6
as((I7
I19
tp548
(I6
I19
tp549
tp550
(lp551
g6
ag7
as((I8
I20
tp552
(I7
I20
tp553
tp554
(lp555
g6
ag7
as((I6
I15
tp556
(I5
I15
tp557
tp558
(lp559
g6
ag7
as(g409
(I5
I8
tp560
tp561
(lp562
g6
ag7
as(g192
(I8
I11
tp563
tp564
(lp565
g7
ag6
as(g369
(I11
I20
tp566
tp567
(lp568
g20
ag6
as(g455
(I5
I17
tp569
tp570
(lp571
g6
ag7
as((I4
I19
tp572
(I4
I20
tp573
tp574
(lp575
g20
ag6
as(g131
(I7
I17
tp576
tp577
(lp578
g6
ag7
as((I2
I4
tp579
(I2
I5
tp580
tp581
(lp582
g7
ag6
as((I15
I19
tp583
(I14
I19
tp584
tp585
(lp586
g6
ag7
as(g358
(I9
I18
tp587
tp588
(lp589
g7
ag6
as(g53
(I3
I8
tp590
tp591
(lp592
g7
ag6
as((I17
I20
tp593
(I16
I20
tp594
tp595
(lp596
g6
ag7
as((I0
I4
tp597
(I0
I5
tp598
tp599
(lp600
g7
ag6
as((I7
I9
tp601
(I6
I9
tp602
tp603
(lp604
g6
ag7
as(g384
(I12
I18
tp605
tp606
(lp607
g6
ag7
as((I8
I14
tp608
(I7
I14
tp609
tp610
(lp611
g6
ag7
as((I6
I11
tp612
(I6
I12
tp613
tp614
(lp615
g7
ag6
as((I5
I8
tp616
(I5
I9
tp617
tp618
(lp619
g7
ag6
as((I14
I18
tp620
(I14
I19
tp621
tp622
(lp623
g7
ag6
as((I14
I20
tp624
(I13
I20
tp625
tp626
(lp627
g6
ag7
as((I1
I17
tp628
(I1
I18
tp629
tp630
(lp631
g7
ag6
as(g488
(I12
I16
tp632
tp633
(lp634
g6
ag7
as((I15
I16
tp635
(I14
I16
tp636
tp637
(lp638
g6
ag7
as((I5
I15
tp639
(I5
I16
tp640
tp641
(lp642
g7
ag6
as((I10
I12
tp643
(I10
I13
tp644
tp645
(lp646
g7
ag6
as(g506
(I3
I5
tp647
tp648
(lp649
g6
ag7
as((I13
I14
tp650
(I13
I15
tp651
tp652
(lp653
g7
ag6
as((I10
I15
tp654
(I9
I15
tp655
tp656
(lp657
g6
ag7
as((I5
I18
tp658
(I5
I19
tp659
tp660
(lp661
g7
ag6
as(g88
(I9
I18
tp662
tp663
(lp664
g6
ag7
as((I4
I9
tp665
(I4
I10
tp666
tp667
(lp668
g7
ag6
as((I7
I13
tp669
(I7
I14
tp670
tp671
(lp672
g7
ag6
as((I12
I20
tp673
(I11
I20
tp674
tp675
(lp676
g6
ag7
as(g199
(I6
I11
tp677
tp678
(lp679
g7
ag6
as((I1
I20
tp680
(I0
I20
tp681
tp682
(lp683
g6
ag20
as(g476
(I2
I17
tp684
tp685
(lp686
g6
ag7
as((I11
I14
tp687
(I11
I15
tp688
tp689
(lp690
g7
ag6
as((I0
I6
tp691
(I0
I7
tp692
tp693
(lp694
g7
ag6
as((I4
I8
tp695
(I4
I9
tp696
tp697
(lp698
g7
ag6
as((I3
I5
tp699
(I3
I6
tp700
tp701
(lp702
g7
ag6
as(g181
(I5
I12
tp703
tp704
(lp705
g7
ag6
as((I1
I3
tp706
(I0
I3
tp707
tp708
(lp709
g6
ag20
as((I9
I14
tp710
(I8
I14
tp711
tp712
(lp713
g6
ag7
as((I3
I18
tp714
(I3
I19
tp715
tp716
(lp717
g7
ag6
as((I2
I6
tp718
(I1
I6
tp719
tp720
(lp721
g6
ag7
as((I5
I9
tp722
(I5
I10
tp723
tp724
(lp725
g7
ag6
as(g522
(I13
I16
tp726
tp727
(lp728
g6
ag7
as((I7
I17
tp729
(I7
I18
tp730
tp731
(lp732
g7
ag6
as(g111
(I11
I16
tp733
tp734
(lp735
g6
ag7
as((I0
I1
tp736
(I0
I2
tp737
tp738
(lp739
g7
ag6
as((I2
I19
tp740
(I1
I19
tp741
tp742
(lp743
g6
ag7
as((I6
I18
tp744
(I5
I18
tp745
tp746
(lp747
g6
ag7
as((I1
I13
tp748
(I0
I13
tp749
tp750
(lp751
g6
ag20
as(g537
(I3
I16
tp752
tp753
(lp754
g7
ag6
as(g665
(I3
I9
tp755
tp756
(lp757
g6
ag7
as((I0
I8
tp758
(I0
I9
tp759
tp760
(lp761
g7
ag6
as(g244
(I8
I15
tp762
tp763
(lp764
g6
ag7
as(g433
(I1
I16
tp765
tp766
(lp767
g7
ag6
as(g188
(I0
I7
tp768
tp769
(lp770
g6
ag20
as((I5
I20
tp771
(I4
I20
tp772
tp773
(lp774
g6
ag7
as(g608
(I8
I15
tp775
tp776
(lp777
g7
ag6
as((I4
I20
tp778
(I3
I20
tp779
tp780
(lp781
g6
ag7
as(g628
(I0
I17
tp782
tp783
(lp784
g6
ag20
as(g612
(I5
I11
tp785
tp786
(lp787
g6
ag7
as(g643
(I9
I12
tp788
tp789
(lp790
g6
ag7
as(g502
(I4
I7
tp791
tp792
(lp793
g7
ag6
as((I16
I19
tp794
(I15
I19
tp795
tp796
(lp797
g6
ag7
as((I3
I4
tp798
(I3
I5
tp799
tp800
(lp801
g7
ag6
as(g544
(I5
I13
tp802
tp803
(lp804
g6
ag7
as(g658
(I4
I18
tp805
tp806
(lp807
g6
ag7
as(g49
(I18
I19
tp808
tp809
(lp810
g7
ag7
as((I13
I15
tp811
(I13
I16
tp812
tp813
(lp814
g7
ag6
as(g484
(I5
I15
tp815
tp816
(lp817
g7
ag6
as(g33
(I4
I6
tp818
tp819
(lp820
g6
ag7
as((I0
I15
tp821
(I0
I16
tp822
tp823
(lp824
g7
ag6
as((I0
I19
tp825
(I0
I20
tp826
tp827
(lp828
g20
ag6
as(g49
(I12
I13
tp829
tp830
(lp831
g7
ag7
as(g49
(I11
I12
tp832
tp833
(lp834
g7
ag7
as((I2
I9
tp835
(I1
I9
tp836
tp837
(lp838
g6
ag7
as((I11
I17
tp839
(I10
I17
tp840
tp841
(lp842
g6
ag7
as(g579
(I1
I4
tp843
tp844
(lp845
g6
ag7
as(g583
(I15
I20
tp846
tp847
(lp848
g20
ag6
as((I9
I10
tp849
(I8
I10
tp850
tp851
(lp852
g6
ag7
as((I18
I19
tp853
(I17
I19
tp854
tp855
(lp856
g6
ag7
as(g811
(I12
I15
tp857
tp858
(lp859
g6
ag7
as((I1
I5
tp860
(I1
I6
tp861
tp862
(lp863
g7
ag6
as(g139
(I2
I4
tp864
tp865
(lp866
g7
ag6
as((I3
I13
tp867
(I3
I14
tp868
tp869
(lp870
g7
ag6
as((I11
I16
tp871
(I11
I17
tp872
tp873
(lp874
g7
ag6
as(g49
(I10
I11
tp875
tp876
(lp877
g7
ag7
as((I12
I19
tp878
(I11
I19
tp879
tp880
(lp881
g6
ag7
as((I1
I8
tp882
(I0
I8
tp883
tp884
(lp885
g6
ag20
as(g207
(I6
I10
tp886
tp887
(lp888
g7
ag6
as((I0
I9
tp889
(I0
I10
tp890
tp891
(lp892
g7
ag6
as(g706
(I1
I4
tp893
tp894
(lp895
g7
ag6
as(g744
(I6
I19
tp896
tp897
(lp898
g7
ag6
as((I0
I14
tp899
(I0
I15
tp900
tp901
(lp902
g7
ag6
as(g280
(I3
I11
tp903
tp904
(lp905
g7
ag6
as((I13
I20
tp906
(I12
I20
tp907
tp908
(lp909
g6
ag7
as(g867
(I2
I13
tp910
tp911
(lp912
g6
ag7
as((I16
I18
tp913
(I15
I18
tp914
tp915
(lp916
g6
ag7
as((I13
I19
tp917
(I12
I19
tp918
tp919
(lp920
g6
ag7
as(g345
(I16
I18
tp921
tp922
(lp923
g7
ag6
as((I15
I18
tp924
(I15
I19
tp925
tp926
(lp927
g7
ag6
as((I4
I16
tp928
(I3
I16
tp929
tp930
(lp931
g6
ag7
as((I2
I15
tp932
(I1
I15
tp933
tp934
(lp935
g6
ag7
as((I12
I18
tp936
(I11
I18
tp937
tp938
(lp939
g6
ag7
as((I6
I16
tp940
(I6
I17
tp941
tp942
(lp943
g7
ag6
as(g252
(I9
I19
tp944
tp945
(lp946
g6
ag7
as(g49
(I5
I6
tp947
tp948
(lp949
g7
ag7
as(g49
(I4
I5
tp950
tp951
(lp952
g7
ag7
as(g498
(I1
I10
tp953
tp954
(lp955
g7
ag6
as(g49
(I9
I10
tp956
tp957
(lp958
g7
ag7
as((I17
I18
tp959
(I17
I19
tp960
tp961
(lp962
g7
ag6
as(g798
(I2
I4
tp963
tp964
(lp965
g6
ag7
as((I11
I18
tp966
(I11
I19
tp967
tp968
(lp969
g7
ag6
as(g699
(I2
I5
tp970
tp971
(lp972
g6
ag7
as(g924
(I14
I18
tp973
tp974
(lp975
g6
ag7
as((I6
I7
tp976
(I5
I7
tp977
tp978
(lp979
g6
ag7
as(g41
(I2
I14
tp980
tp981
(lp982
g6
ag7
as(g794
(I16
I20
tp983
tp984
(lp985
g20
ag6
as(g650
(I12
I14
tp986
tp987
(lp988
g6
ag7
as(g718
(I2
I7
tp989
tp990
(lp991
g7
ag6
as(g917
(I13
I20
tp992
tp993
(lp994
g20
ag6
as((I2
I8
tp995
(I1
I8
tp996
tp997
(lp998
g6
ag7
as((I0
I10
tp999
(I0
I11
tp1000
tp1001
(lp1002
g7
ag6
as((I1
I14
tp1003
(I1
I15
tp1004
tp1005
(lp1006
g7
ag6
as((I6
I19
tp1007
(I5
I19
tp1008
tp1009
(lp1010
g6
ag7
as(g556
(I6
I16
tp1011
tp1012
(lp1013
g7
ag6
as(g740
(I2
I20
tp1014
tp1015
(lp1016
g20
ag6
as(g135
(I8
I11
tp1017
tp1018
(lp1019
g6
ag7
as((I3
I6
tp1020
(I2
I6
tp1021
tp1022
(lp1023
g6
ag7
as((I3
I9
tp1024
(I2
I9
tp1025
tp1026
(lp1027
g6
ag7
as(g835
(I2
I10
tp1028
tp1029
(lp1030
g7
ag6
as(g337
(I1
I12
tp1031
tp1032
(lp1033
g7
ag6
as(g37
(I4
I16
tp1034
tp1035
(lp1036
g7
ag6
as(g341
(I1
I18
tp1037
tp1038
(lp1039
g6
ag7
as((I1
I2
tp1040
(I0
I2
tp1041
tp1042
(lp1043
g6
ag20
as(g305
(I3
I17
tp1044
tp1045
(lp1046
g7
ag6
as(g388
(I2
I11
tp1047
tp1048
(lp1049
g7
ag6
as((I14
I15
tp1050
(I14
I16
tp1051
tp1052
(lp1053
g7
ag6
as(g932
(I2
I16
tp1054
tp1055
(lp1056
g7
ag6
as((I0
I17
tp1057
(I0
I18
tp1058
tp1059
(lp1060
g7
ag6
as(g616
(I4
I8
tp1061
tp1062
(lp1063
g6
ag7
as(g264
(I4
I19
tp1064
tp1065
(lp1066
g6
ag7
as((I0
I7
tp1067
(I0
I8
tp1068
tp1069
(lp1070
g7
ag6
as(g329
(I8
I17
tp1071
tp1072
(lp1073
g7
ag6
as((I4
I7
tp1074
(I3
I7
tp1075
tp1076
(lp1077
g6
ag7
as(g878
(I12
I20
tp1078
tp1079
(lp1080
g20
ag6
as((I4
I13
tp1081
(I3
I13
tp1082
tp1083
(lp1084
g6
ag7
as((I0
I12
tp1085
(I0
I13
tp1086
tp1087
(lp1088
g7
ag6
as(g514
(I5
I14
tp1089
tp1090
(lp1091
g6
ag7
as(g1020
(I3
I7
tp1092
tp1093
(lp1094
g7
ag6
as(g317
(I12
I16
tp1095
tp1096
(lp1097
g7
ag6
as((I2
I20
tp1098
(I1
I20
tp1099
tp1100
(lp1101
g6
ag7
as(g211
(I7
I16
tp1102
tp1103
(lp1104
g7
ag6
as(g669
(I6
I13
tp1105
tp1106
(lp1107
g6
ag7
as(g936
(I12
I19
tp1108
tp1109
(lp1110
g7
ag6
as(g158
(I4
I17
tp1111
tp1112
(lp1113
g6
ag7
as(g940
(I5
I16
tp1114
tp1115
(lp1116
g6
ag7
as((I1
I4
tp1117
(I1
I5
tp1118
tp1119
(lp1120
g7
ag6
as(g429
(I2
I15
tp1121
tp1122
(lp1123
g7
ag6
as(g233
(I4
I10
tp1124
tp1125
(lp1126
g6
ag7
as(g49
(I2
I3
tp1127
tp1128
(lp1129
g7
ag7
as((I13
I17
tp1130
(I13
I18
tp1131
tp1132
(lp1133
g7
ag6
as((I4
I11
tp1134
(I3
I11
tp1135
tp1136
(lp1137
g6
ag7
as(g1040
(I1
I3
tp1138
tp1139
(lp1140
g7
ag6
as(g959
(I16
I18
tp1141
tp1142
(lp1143
g6
ag7
as((I8
I15
tp1144
(I8
I16
tp1145
tp1146
(lp1147
g7
ag6
as(g463
(I7
I17
tp1148
tp1149
(lp1150
g7
ag6
as(g635
(I15
I17
tp1151
tp1152
(lp1153
g7
ag6
as(g92
(I4
I13
tp1154
tp1155
(lp1156
g6
ag7
as(g714
(I2
I18
tp1157
tp1158
(lp1159
g6
ag7
as((I4
I10
tp1160
(I3
I10
tp1161
tp1162
(lp1163
g6
ag7
as(g1074
(I4
I8
tp1164
tp1165
(lp1166
g7
ag6
as(g297
(I3
I12
tp1167
tp1168
(lp1169
g7
ag6
as(g398
(I2
I6
tp1170
tp1171
(lp1172
g7
ag6
as((I10
I17
tp1173
(I9
I17
tp1174
tp1175
(lp1176
g6
ag7
as(g1173
(I10
I18
tp1177
tp1178
(lp1179
g7
ag6
as(g1144
(I7
I15
tp1180
tp1181
(lp1182
g6
ag7
as(g849
(I9
I11
tp1183
tp1184
(lp1185
g7
ag6
as((I12
I17
tp1186
(I12
I18
tp1187
tp1188
(lp1189
g7
ag6
as(g49
(I19
I20
tp1190
tp1191
(lp1192
g20
ag7
as(g1130
(I12
I17
tp1193
tp1194
(lp1195
g6
ag7
as(g529
(I17
I20
tp1196
tp1197
(lp1198
g20
ag6
as(g61
(I1
I13
tp1199
tp1200
(lp1201
g7
ag6
as(g49
(I1
I2
tp1202
tp1203
(lp1204
g7
ag7
as(g143
(I0
I10
tp1205
tp1206
(lp1207
g6
ag20
as(g69
(I7
I19
tp1208
tp1209
(lp1210
g6
ag7
as(g620
(I13
I18
tp1211
tp1212
(lp1213
g6
ag7
as(g1003
(I0
I14
tp1214
tp1215
(lp1216
g6
ag20
as(g373
(I8
I16
tp1217
tp1218
(lp1219
g6
ag7
as(g437
(I3
I13
tp1220
tp1221
(lp1222
g7
ag6
as(g639
(I4
I15
tp1223
tp1224
(lp1225
g6
ag7
as(g1117
(I0
I4
tp1226
tp1227
(lp1228
g6
ag20
as((I3
I8
tp1229
(I3
I9
tp1230
tp1231
(lp1232
g7
ag6
as(g748
(I1
I14
tp1233
tp1234
(lp1235
g7
ag6
as(g966
(I10
I18
tp1236
tp1237
(lp1238
g6
ag7
as((I8
I9
tp1239
(I7
I9
tp1240
tp1241
(lp1242
g6
ag7
as(g1229
(I2
I8
tp1243
tp1244
(lp1245
g6
ag7
as(g459
(I12
I14
tp1246
tp1247
(lp1248
g7
ag6
as(g601
(I7
I10
tp1249
tp1250
(lp1251
g7
ag6
as(g882
(I1
I9
tp1252
tp1253
(lp1254
g7
ag6
as(g928
(I4
I17
tp1255
tp1256
(lp1257
g7
ag6
as(g57
(I2
I17
tp1258
tp1259
(lp1260
g7
ag6
as((I14
I19
tp1261
(I13
I19
tp1262
tp1263
(lp1264
g6
ag7
as(g480
(I2
I14
tp1265
tp1266
(lp1267
g7
ag6
as(g276
(I8
I13
tp1268
tp1269
(lp1270
g6
ag7
as(g871
(I10
I16
tp1271
tp1272
(lp1273
g6
ag7
as(g518
(I8
I18
tp1274
tp1275
(lp1276
g6
ag7
as(g165
(I4
I18
tp1277
tp1278
(lp1279
g7
ag6
as((I9
I20
tp1280
(I8
I20
tp1281
tp1282
(lp1283
g6
ag7
as(g548
(I7
I20
tp1284
tp1285
(lp1286
g20
ag6
as(g49
(I14
I15
tp1287
tp1288
(lp1289
g7
ag7
as(g853
(I18
I20
tp1290
tp1291
(lp1292
g20
ag6
as(g84
(I2
I13
tp1293
tp1294
(lp1295
g7
ag6
as((I15
I17
tp1296
(I14
I17
tp1297
tp1298
(lp1299
g6
ag7
as((I10
I20
tp1300
(I9
I20
tp1301
tp1302
(lp1303
g6
ag7
as(g203
(I8
I12
tp1304
tp1305
(lp1306
g6
ag7
as(g1261
(I14
I20
tp1307
tp1308
(lp1309
g20
ag6
as(g1186
(I11
I17
tp1310
tp1311
(lp1312
g6
ag7
as(g510
(I11
I14
tp1313
tp1314
(lp1315
g7
ag6
as(g839
(I11
I18
tp1316
tp1317
(lp1318
g7
ag6
as(g1239
(I8
I10
tp1319
tp1320
(lp1321
g7
ag6
as(g447
(I6
I8
tp1322
tp1323
(lp1324
g6
ag7
as(g325
(I8
I19
tp1325
tp1326
(lp1327
g7
ag6
as(g860
(I0
I5
tp1328
tp1329
(lp1330
g6
ag20
as(g687
(I10
I14
tp1331
tp1332
(lp1333
g6
ag7
as((I10
I13
tp1334
(I9
I13
tp1335
tp1336
(lp1337
g6
ag7
as(g1160
(I4
I11
tp1338
tp1339
(lp1340
g7
ag6
as((I0
I16
tp1341
(I0
I17
tp1342
tp1343
(lp1344
g7
ag6
as(g1334
(I10
I14
tp1345
tp1346
(lp1347
g7
ag6
as(g1050
(I13
I15
tp1348
tp1349
(lp1350
g6
ag7
as(g1024
(I3
I10
tp1351
tp1352
(lp1353
g7
ag6
as(g913
(I16
I19
tp1354
tp1355
(lp1356
g7
ag6
as(g654
(I10
I16
tp1357
tp1358
(lp1359
g7
ag6
as(g533
(I0
I18
tp1360
tp1361
(lp1362
g6
ag20
as(g377
(I8
I14
tp1363
tp1364
(lp1365
g7
ag6
as(g722
(I4
I9
tp1366
tp1367
(lp1368
g6
ag7
as((I7
I20
tp1369
(I6
I20
tp1370
tp1371
(lp1372
g6
ag7
as(g976
(I6
I8
tp1373
tp1374
(lp1375
g7
ag6
as(g695
(I3
I8
tp1376
tp1377
(lp1378
g6
ag7
as(g995
(I2
I9
tp1379
tp1380
(lp1381
g7
ag6
as(g413
(I10
I15
tp1382
tp1383
(lp1384
g7
ag6
as(g710
(I9
I15
tp1385
tp1386
(lp1387
g7
ag6
as(g154
(I11
I14
tp1388
tp1389
(lp1390
g6
ag7
as(g1296
(I15
I18
tp1391
tp1392
(lp1393
g7
ag6
as(g1081
(I4
I14
tp1394
tp1395
(lp1396
g7
ag6
as(g572
(I3
I19
tp1397
tp1398
(lp1399
g6
ag7
as(g313
(I1
I11
tp1400
tp1401
(lp1402
g6
ag7
as(g177
(I4
I12
tp1403
tp1404
(lp1405
g6
ag7
as(g1007
(I6
I20
tp1406
tp1407
(lp1408
g20
ag6
as(g729
(I6
I17
tp1409
tp1410
(lp1411
g6
ag7
as(g1134
(I4
I12
tp1412
tp1413
(lp1414
g7
ag6
as.