(lp1
(I0
I0
tp2
a(I0
I1
tp3
a(I1
I2
tp4
a(I2
I3
tp5
a(I3
I4
tp6
a(I4
I5
tp7
a(I5
I6
tp8
a(I6
I7
tp9
a(I7
I8
tp10
a(I8
I9
tp11
a(I9
I10
tp12
a(I10
I11
tp13
a(I11
I12
tp14
a(I12
I13
tp15
a(I13
I14
tp16
a(I14
I15
tp17
a(I15
I16
tp18
a(I16
I17
tp19
a(I17
I18
tp20
a(I18
I19
tp21
a(I19
I20
tp22
a(I0
I2
tp23
a(I1
I3
tp24
a(I2
I4
tp25
a(I3
I5
tp26
a(I4
I6
tp27
a(I5
I7
tp28
a(I6
I8
tp29
a(I7
I9
tp30
a(I8
I10
tp31
a(I9
I11
tp32
a(I10
I12
tp33
a(I11
I13
tp34
a(I12
I14
tp35
a(I13
I15
tp36
a(I14
I16
tp37
a(I15
I17
tp38
a(I16
I18
tp39
a(I17
I19
tp40
a(I18
I20
tp41
a(I0
I3
tp42
a(I1
I4
tp43
a(I2
I5
tp44
a(I3
I6
tp45
a(I4
I7
tp46
a(I5
I8
tp47
a(I6
I9
tp48
a(I7
I10
tp49
a(I8
I11
tp50
a(I9
I12
tp51
a(I10
I13
tp52
a(I11
I14
tp53
a(I12
I15
tp54
a(I13
I16
tp55
a(I14
I17
tp56
a(I15
I18
tp57
a(I16
I19
tp58
a(I17
I20
tp59
a(I0
I4
tp60
a(I1
I5
tp61
a(I2
I6
tp62
a(I3
I7
tp63
a(I4
I8
tp64
a(I5
I9
tp65
a(I6
I10
tp66
a(I7
I11
tp67
a(I8
I12
tp68
a(I9
I13
tp69
a(I10
I14
tp70
a(I11
I15
tp71
a(I12
I16
tp72
a(I13
I17
tp73
a(I14
I18
tp74
a(I15
I19
tp75
a(I16
I20
tp76
a(I0
I5
tp77
a(I1
I6
tp78
a(I2
I7
tp79
a(I3
I8
tp80
a(I4
I9
tp81
a(I5
I10
tp82
a(I6
I11
tp83
a(I7
I12
tp84
a(I8
I13
tp85
a(I9
I14
tp86
a(I10
I15
tp87
a(I11
I16
tp88
a(I12
I17
tp89
a(I13
I18
tp90
a(I14
I19
tp91
a(I15
I20
tp92
a(I0
I6
tp93
a(I1
I7
tp94
a(I2
I8
tp95
a(I3
I9
tp96
a(I4
I10
tp97
a(I5
I11
tp98
a(I6
I12
tp99
a(I7
I13
tp100
a(I8
I14
tp101
a(I9
I15
tp102
a(I10
I16
tp103
a(I11
I17
tp104
a(I12
I18
tp105
a(I13
I19
tp106
a(I14
I20
tp107
a(I0
I7
tp108
a(I1
I8
tp109
a(I2
I9
tp110
a(I3
I10
tp111
a(I4
I11
tp112
a(I5
I12
tp113
a(I6
I13
tp114
a(I7
I14
tp115
a(I8
I15
tp116
a(I9
I16
tp117
a(I10
I17
tp118
a(I11
I18
tp119
a(I12
I19
tp120
a(I13
I20
tp121
a(I0
I8
tp122
a(I1
I9
tp123
a(I2
I10
tp124
a(I3
I11
tp125
a(I4
I12
tp126
a(I5
I13
tp127
a(I6
I14
tp128
a(I7
I15
tp129
a(I8
I16
tp130
a(I9
I17
tp131
a(I10
I18
tp132
a(I11
I19
tp133
a(I12
I20
tp134
a(I0
I9
tp135
a(I1
I10
tp136
a(I2
I11
tp137
a(I3
I12
tp138
a(I4
I13
tp139
a(I5
I14
tp140
a(I6
I15
tp141
a(I7
I16
tp142
a(I8
I17
tp143
a(I9
I18
tp144
a(I10
I19
tp145
a(I11
I20
tp146
a(I0
I10
tp147
a(I1
I11
tp148
a(I2
I12
tp149
a(I3
I13
tp150
a(I4
I14
tp151
a(I5
I15
tp152
a(I6
I16
tp153
a(I7
I17
tp154
a(I8
I18
tp155
a(I9
I19
tp156
a(I10
I20
tp157
a(I0
I11
tp158
a(I1
I12
tp159
a(I2
I13
tp160
a(I3
I14
tp161
a(I4
I15
tp162
a(I5
I16
tp163
a(I6
I17
tp164
a(I7
I18
tp165
a(I8
I19
tp166
a(I9
I20
tp167
a(I0
I12
tp168
a(I1
I13
tp169
a(I2
I14
tp170
a(I3
I15
tp171
a(I4
I16
tp172
a(I5
I17
tp173
a(I6
I18
tp174
a(I7
I19
tp175
a(I8
I20
tp176
a(I0
I13
tp177
a(I1
I14
tp178
a(I2
I15
tp179
a(I3
I16
tp180
a(I4
I17
tp181
a(I5
I18
tp182
a(I6
I19
tp183
a(I7
I20
tp184
a(I0
I14
tp185
a(I1
I15
tp186
a(I2
I16
tp187
a(I3
I17
tp188
a(I4
I18
tp189
a(I5
I19
tp190
a(I6
I20
tp191
a(I0
I15
tp192
a(I1
I16
tp193
a(I2
I17
tp194
a(I3
I18
tp195
a(I4
I19
tp196
a(I5
I20
tp197
a(I0
I16
tp198
a(I1
I17
tp199
a(I2
I18
tp200
a(I3
I19
tp201
a(I4
I20
tp202
a(I0
I17
tp203
a(I1
I18
tp204
a(I2
I19
tp205
a(I3
I20
tp206
a(I0
I18
tp207
a(I1
I19
tp208
a(I2
I20
tp209
a(I0
I19
tp210
a(I1
I20
tp211
a(I0
I20
tp212
a.