(lp1
(I0
I0
tp2
a(I0
I1
tp3
a(I1
I2
tp4
a(I2
I3
tp5
a(I3
I4
tp6
a(I4
I5
tp7
a(I5
I6
tp8
a(I6
I7
tp9
a(I7
I8
tp10
a(I8
I9
tp11
a(I9
I10
tp12
a(I0
I2
tp13
a(I1
I3
tp14
a(I2
I4
tp15
a(I3
I5
tp16
a(I4
I6
tp17
a(I5
I7
tp18
a(I6
I8
tp19
a(I7
I9
tp20
a(I8
I10
tp21
a(I0
I3
tp22
a(I1
I4
tp23
a(I2
I5
tp24
a(I3
I6
tp25
a(I4
I7
tp26
a(I5
I8
tp27
a(I6
I9
tp28
a(I7
I10
tp29
a(I0
I4
tp30
a(I1
I5
tp31
a(I2
I6
tp32
a(I3
I7
tp33
a(I4
I8
tp34
a(I5
I9
tp35
a(I6
I10
tp36
a(I0
I5
tp37
a(I1
I6
tp38
a(I2
I7
tp39
a(I3
I8
tp40
a(I4
I9
tp41
a(I5
I10
tp42
a(I0
I6
tp43
a(I1
I7
tp44
a(I2
I8
tp45
a(I3
I9
tp46
a(I4
I10
tp47
a(I0
I7
tp48
a(I1
I8
tp49
a(I2
I9
tp50
a(I3
I10
tp51
a(I0
I8
tp52
a(I1
I9
tp53
a(I2
I10
tp54
a(I0
I9
tp55
a(I1
I10
tp56
a(I0
I10
tp57
a.