(dp1
(I0
I2
I2
I14
tp2
I60
s(I0
I2
I2
I4
tp3
I225
s(I0
I5
I5
I20
tp4
I54
s(I0
I5
I6
I21
tp5
I53
s(I0
I2
I2
I16
tp6
I39
s(I0
I9
I9
I14
tp7
I291
s(I0
I4
I5
I21
tp8
I34
s(I0
I15
I15
I18
tp9
I387
s(I0
I4
I5
I19
tp10
I55
s(I0
I12
I12
I20
tp11
I285
s(I0
I9
I9
I16
tp12
I254
s(I0
I14
I15
I17
tp13
I388
s(I0
I9
I10
I19
tp14
I210
s(I0
I0
I1
I2
tp15
I248
s(I0
I9
I10
I13
tp16
I323
s(I0
I7
I7
I11
tp17
I277
s(I0
I16
I16
I19
tp18
I394
s(I0
I4
I4
I13
tp19
I126
s(I0
I1
I1
I9
tp20
I101
s(I0
I1
I1
I15
tp21
I32
s(I0
I8
I9
I21
tp22
I134
s(I0
I1
I1
I5
tp23
I167
s(I0
I7
I7
I19
tp24
I120
s(I0
I6
I7
I12
tp25
I238
s(I0
I11
I11
I13
tp26
I362
s(I0
I0
I1
I4
tp27
I207
s(I0
I6
I7
I10
tp28
I278
s(I0
I4
I4
I21
tp29
I26
s(I0
I1
I1
I17
tp30
I17
s(I0
I8
I8
I15
tp31
I235
s(I0
I6
I7
I16
tp32
I156
s(I0
I0
I1
I15
tp33
I42
s(I0
I1
I2
I18
tp34
I16
s(I0
I14
I14
I19
tp35
I356
s(I0
I11
I12
I17
tp36
I319
s(I0
I1
I2
I12
tp37
I73
s(I0
I11
I11
I21
tp38
I229
s(I0
I7
I8
I15
tp39
I214
s(I0
I10
I11
I14
tp40
I336
s(I0
I8
I8
I17
tp41
I192
s(I0
I10
I11
I20
tp42
I230
s(I0
I4
I5
I17
tp43
I80
s(I0
I4
I5
I15
tp44
I109
s(I0
I10
I11
I18
tp45
I270
s(I0
I5
I6
I20
tp46
I65
s(I0
I6
I6
I12
tp47
I217
s(I0
I5
I6
I19
tp48
I78
s(I0
I3
I3
I14
tp49
I83
s(I0
I5
I6
I17
tp50
I107
s(I0
I4
I5
I10
tp51
I199
s(I0
I2
I3
I5
tp52
I224
s(I0
I6
I6
I20
tp53
I77
s(I0
I3
I4
I16
tp54
I69
s(I0
I5
I6
I15
tp55
I140
s(I0
I10
I10
I14
tp56
I322
s(I0
I4
I5
I20
tp57
I44
s(I0
I2
I3
I9
tp58
I146
s(I0
I3
I4
I6
tp59
I244
s(I0
I13
I13
I20
tp60
I316
s(I0
I13
I14
I21
tp61
I315
s(I0
I10
I10
I16
tp62
I289
s(I0
I3
I4
I8
tp63
I201
s(I0
I12
I13
I21
tp64
I284
s(I0
I5
I6
I10
tp65
I240
s(I0
I5
I6
I9
tp66
I261
s(I0
I17
I17
I19
tp67
I407
s(I0
I4
I5
I18
tp68
I67
s(I0
I5
I5
I13
tp69
I159
s(I0
I2
I2
I9
tp70
I130
s(I0
I12
I12
I16
tp71
I347
s(I0
I2
I2
I15
tp72
I49
s(I0
I15
I16
I21
tp73
I365
s(I0
I2
I2
I5
tp74
I204
s(I0
I12
I12
I13
tp75
I383
s(I0
I5
I5
I21
tp76
I43
s(I0
I4
I5
I14
tp77
I125
s(I0
I2
I2
I17
tp78
I30
s(I0
I9
I9
I15
tp79
I273
s(I0
I5
I6
I14
tp80
I158
s(I0
I15
I15
I19
tp81
I377
s(I0
I5
I6
I8
tp82
I280
s(I0
I12
I12
I21
tp83
I267
s(I0
I9
I9
I17
tp84
I233
s(I0
I14
I15
I16
tp85
I397
s(I0
I9
I10
I18
tp86
I232
s(I0
I9
I10
I12
tp87
I338
s(I0
I7
I7
I12
tp88
I258
s(I0
I4
I4
I8
tp89
I221
s(I0
I16
I16
I20
tp90
I385
s(I0
I4
I4
I14
tp91
I110
s(I0
I9
I10
I21
tp92
I169
s(I0
I1
I1
I10
tp93
I87
s(I0
I8
I9
I14
tp94
I274
s(I0
I1
I1
I6
tp95
I149
s(I0
I7
I7
I20
tp96
I104
s(I0
I6
I7
I15
tp97
I175
s(I0
I4
I4
I16
tp98
I81
s(I0
I11
I11
I14
tp99
I349
s(I0
I8
I8
I10
tp100
I326
s(I0
I6
I7
I21
tp101
I76
s(I0
I8
I9
I11
tp102
I325
s(I0
I1
I1
I18
tp103
I11
s(I0
I0
I1
I13
tp104
I63
s(I0
I6
I7
I19
tp105
I105
s(I0
I8
I9
I10
tp106
I340
s(I0
I0
I1
I11
tp107
I88
s(I0
I14
I14
I20
tp108
I343
s(I0
I11
I12
I16
tp109
I334
s(I0
I11
I11
I16
tp110
I320
s(I0
I0
I1
I17
tp111
I25
s(I0
I9
I10
I14
tp112
I307
s(I0
I7
I8
I14
tp113
I236
s(I0
I8
I8
I18
tp114
I172
s(I0
I18
I18
I19
tp115
I416
s(I0
I9
I10
I11
tp116
I352
s(I0
I6
I6
I13
tp117
I196
s(I0
I3
I3
I9
tp118
I163
s(I0
I3
I3
I15
tp119
I70
s(I0
I0
I1
I14
tp120
I52
s(I0
I3
I3
I5
tp121
I245
s(I0
I2
I3
I4
tp122
I246
s(I0
I6
I6
I21
tp123
I64
s(I0
I3
I3
I17
tp124
I47
s(I0
I10
I10
I15
tp125
I306
s(I0
I2
I3
I8
tp126
I164
s(I0
I3
I4
I5
tp127
I265
s(I0
I13
I13
I21
tp128
I300
s(I0
I13
I14
I20
tp129
I330
s(I0
I10
I10
I17
tp130
I271
s(I0
I3
I4
I15
tp131
I82
s(I0
I12
I13
I20
tp132
I301
s(I0
I12
I13
I18
tp133
I332
s(I0
I5
I5
I8
tp134
I262
s(I0
I17
I17
I20
tp135
I400
s(I0
I17
I18
I21
tp136
I399
s(I0
I5
I5
I14
tp137
I141
s(I0
I2
I2
I10
tp138
I114
s(I0
I15
I16
I18
tp139
I395
s(I0
I16
I17
I21
tp140
I384
s(I0
I15
I16
I20
tp141
I376
s(I0
I16
I17
I19
tp142
I401
s(I0
I2
I2
I6
tp143
I184
s(I0
I5
I5
I16
tp144
I108
s(I0
I12
I12
I14
tp145
I372
s(I0
I9
I9
I10
tp146
I353
s(I0
I4
I5
I9
tp147
I220
s(I0
I2
I2
I18
tp148
I22
s(I0
I5
I6
I13
tp149
I177
s(I0
I15
I15
I20
tp150
I366
s(I0
I5
I6
I7
tp151
I298
s(I0
I14
I15
I21
tp152
I342
s(I0
I9
I9
I18
tp153
I211
s(I0
I8
I9
I13
tp154
I292
s(I0
I14
I15
I19
tp155
I367
s(I0
I9
I10
I17
tp156
I253
s(I0
I19
I20
I21
tp157
I417
s(I0
I8
I9
I17
tp158
I212
s(I0
I7
I7
I13
tp159
I237
s(I0
I4
I4
I9
tp160
I200
s(I0
I16
I16
I21
tp161
I375
s(I0
I4
I4
I15
tp162
I95
s(I0
I1
I1
I11
tp163
I74
s(I0
I4
I4
I5
tp164
I283
s(I0
I1
I1
I7
tp165
I132
s(I0
I7
I7
I21
tp166
I89
s(I0
I6
I7
I14
tp167
I195
s(I0
I4
I4
I17
tp168
I68
s(I0
I11
I11
I15
tp169
I335
s(I0
I0
I1
I6
tp170
I168
s(I0
I6
I7
I20
tp171
I90
s(I0
I1
I1
I19
tp172
I6
s(I0
I0
I1
I12
tp173
I75
s(I0
I6
I7
I18
tp174
I121
s(I0
I1
I2
I16
tp175
I31
s(I0
I14
I14
I21
tp176
I329
s(I0
I11
I11
I17
tp177
I304
s(I0
I7
I8
I11
tp178
I294
s(I0
I1
I2
I10
tp179
I100
s(I0
I7
I8
I13
tp180
I257
s(I0
I1
I2
I4
tp181
I205
s(I0
I8
I8
I9
tp182
I341
s(I0
I0
I1
I7
tp183
I150
s(I0
I6
I6
I8
tp184
I297
s(I0
I11
I12
I15
tp185
I348
s(I0
I8
I8
I11
tp186
I310
s(I0
I7
I8
I19
tp187
I136
s(I0
I6
I6
I14
tp188
I176
s(I0
I3
I3
I10
tp189
I145
s(I0
I7
I8
I21
tp190
I103
s(I0
I3
I3
I6
tp191
I223
s(I0
I0
I1
I3
tp192
I228
s(I0
I6
I6
I16
tp193
I139
s(I0
I13
I13
I14
tp194
I391
s(I0
I2
I3
I7
tp195
I183
s(I0
I3
I3
I18
tp196
I37
s(I0
I2
I3
I13
tp197
I84
s(I0
I2
I3
I11
tp198
I113
s(I0
I13
I13
I16
tp199
I370
s(I0
I2
I3
I17
tp200
I38
s(I0
I13
I14
I19
tp201
I344
s(I0
I10
I10
I18
tp202
I252
s(I0
I3
I4
I14
tp203
I96
s(I0
I0
I1
I9
tp204
I117
s(I0
I0
I1
I8
tp205
I133
s(I0
I1
I2
I17
tp206
I23
s(I0
I5
I5
I9
tp207
I241
s(I0
I17
I17
I21
tp208
I392
s(I0
I17
I18
I20
tp209
I406
s(I0
I0
I1
I10
tp210
I102
s(I0
I5
I5
I15
tp211
I124
s(I0
I2
I2
I11
tp212
I99
s(I0
I15
I16
I17
tp213
I403
s(I0
I16
I17
I20
tp214
I393
s(I0
I0
I1
I21
tp215
I0
s(I0
I16
I17
I18
tp216
I408
s(I0
I1
I2
I14
tp217
I50
s(I0
I2
I2
I7
tp218
I165
s(I0
I5
I5
I17
tp219
I93
s(I0
I12
I12
I15
tp220
I360
s(I0
I9
I9
I11
tp221
I339
s(I0
I5
I6
I18
tp222
I92
s(I0
I2
I2
I19
tp223
I15
s(I0
I1
I2
I11
tp224
I86
s(I0
I5
I6
I12
tp225
I197
s(I0
I0
I1
I16
tp226
I33
s(I0
I15
I15
I21
tp227
I354
s(I0
I12
I12
I17
tp228
I333
s(I0
I0
I1
I19
tp229
I12
s(I0
I14
I15
I20
tp230
I355
s(I0
I9
I9
I19
tp231
I190
s(I0
I1
I2
I8
tp232
I131
s(I0
I8
I9
I12
tp233
I309
s(I0
I14
I15
I18
tp234
I378
s(I0
I1
I2
I7
tp235
I148
s(I0
I9
I10
I16
tp236
I272
s(I0
I7
I7
I8
tp237
I328
s(I0
I1
I2
I6
tp238
I166
s(I0
I8
I9
I16
tp239
I234
s(I0
I19
I19
I20
tp240
I418
s(I0
I7
I7
I14
tp241
I215
s(I0
I1
I2
I5
tp242
I185
s(I0
I4
I4
I10
tp243
I180
s(I0
I18
I19
I21
tp244
I410
s(I0
I8
I8
I19
tp245
I153
s(I0
I1
I1
I12
tp246
I62
s(I0
I8
I8
I20
tp247
I135
s(I0
I4
I4
I6
tp248
I264
s(I0
I1
I1
I2
tp249
I227
s(I0
I7
I7
I16
tp250
I174
s(I0
I6
I7
I9
tp251
I296
s(I0
I4
I4
I18
tp252
I56
s(I0
I8
I8
I12
tp253
I293
s(I0
I1
I1
I20
tp254
I3
s(I0
I1
I2
I21
tp255
I2
s(I0
I14
I14
I16
tp256
I389
s(I0
I1
I2
I15
tp257
I40
s(I0
I11
I11
I18
tp258
I287
s(I0
I7
I8
I10
tp259
I311
s(I0
I10
I11
I13
tp260
I350
s(I0
I1
I2
I9
tp261
I115
s(I0
I7
I8
I12
tp262
I276
s(I0
I1
I2
I3
tp263
I226
s(I0
I10
I11
I17
tp264
I288
s(I0
I6
I6
I9
tp265
I279
s(I0
I11
I12
I14
tp266
I361
s(I0
I7
I8
I18
tp267
I154
s(I0
I6
I6
I15
tp268
I157
s(I0
I3
I3
I11
tp269
I128
s(I0
I7
I8
I20
tp270
I119
s(I0
I3
I3
I7
tp271
I202
s(I0
I6
I6
I17
tp272
I122
s(I0
I3
I4
I19
tp273
I36
s(I0
I13
I13
I15
tp274
I381
s(I0
I2
I3
I6
tp275
I203
s(I0
I18
I18
I20
tp276
I411
s(I0
I3
I4
I21
tp277
I19
s(I0
I3
I3
I19
tp278
I28
s(I0
I2
I3
I12
tp279
I98
s(I0
I2
I3
I10
tp280
I129
s(I0
I13
I13
I17
tp281
I358
s(I0
I2
I3
I16
tp282
I48
s(I0
I3
I3
I8
tp283
I182
s(I0
I13
I14
I18
tp284
I357
s(I0
I10
I10
I19
tp285
I231
s(I0
I3
I4
I13
tp286
I111
s(I0
I5
I5
I10
tp287
I219
s(I0
I17
I18
I19
tp288
I412
s(I0
I2
I2
I12
tp289
I85
s(I0
I4
I5
I8
tp290
I242
s(I0
I5
I5
I6
tp291
I299
s(I0
I4
I5
I7
tp292
I263
s(I0
I5
I5
I18
tp293
I79
s(I0
I4
I5
I13
tp294
I142
s(I0
I9
I9
I12
tp295
I324
s(I0
I4
I5
I11
tp296
I179
s(I0
I2
I2
I20
tp297
I9
s(I0
I18
I18
I21
tp298
I405
s(I0
I15
I15
I16
tp299
I404
s(I0
I12
I13
I19
tp300
I317
s(I0
I5
I6
I11
tp301
I218
s(I0
I12
I12
I18
tp302
I318
s(I0
I3
I3
I4
tp303
I266
s(I0
I9
I9
I20
tp304
I170
s(I0
I8
I9
I15
tp305
I255
s(I0
I9
I10
I15
tp306
I290
s(I0
I7
I7
I9
tp307
I312
s(I0
I8
I9
I19
tp308
I171
s(I0
I19
I19
I21
tp309
I414
s(I0
I16
I16
I17
tp310
I409
s(I0
I7
I7
I15
tp311
I194
s(I0
I4
I4
I11
tp312
I161
s(I0
I18
I19
I20
tp313
I415
s(I0
I1
I1
I13
tp314
I51
s(I0
I4
I4
I7
tp315
I243
s(I0
I1
I1
I3
tp316
I206
s(I0
I7
I7
I17
tp317
I155
s(I0
I14
I14
I15
tp318
I398
s(I0
I6
I7
I8
tp319
I313
s(I0
I4
I4
I19
tp320
I45
s(I0
I8
I8
I13
tp321
I275
s(I0
I1
I1
I21
tp322
I1
s(I0
I1
I2
I20
tp323
I5
s(I0
I14
I14
I17
tp324
I379
s(I0
I11
I12
I19
tp325
I286
s(I0
I10
I10
I11
tp326
I364
s(I0
I0
I1
I20
tp327
I7
s(I0
I11
I12
I21
tp328
I249
s(I0
I11
I11
I19
tp329
I269
s(I0
I7
I8
I9
tp330
I327
s(I0
I10
I11
I12
tp331
I363
s(I0
I0
I1
I18
tp332
I18
s(I0
I3
I3
I16
tp333
I58
s(I0
I8
I8
I21
tp334
I118
s(I0
I10
I11
I16
tp335
I305
s(I0
I6
I6
I10
tp336
I260
s(I0
I20
I21
I21
tp337
I420
s(I0
I11
I12
I13
tp338
I373
s(I0
I7
I8
I17
tp339
I173
s(I0
I3
I3
I12
tp340
I112
s(I0
I6
I6
I18
tp341
I106
s(I0
I3
I4
I18
tp342
I46
s(I0
I10
I10
I12
tp343
I351
s(I0
I3
I4
I20
tp344
I27
s(I0
I3
I3
I20
tp345
I20
s(I0
I2
I3
I15
tp346
I59
s(I0
I2
I3
I21
tp347
I8
s(I0
I13
I13
I18
tp348
I345
s(I0
I2
I3
I19
tp349
I21
s(I0
I3
I4
I10
tp350
I162
s(I0
I13
I14
I17
tp351
I369
s(I0
I10
I10
I20
tp352
I209
s(I0
I3
I4
I12
tp353
I127
s(I0
I12
I13
I17
tp354
I346
s(I0
I20
I20
I21
tp355
I419
s(I0
I5
I5
I11
tp356
I198
s(I0
I2
I2
I13
tp357
I72
s(I0
I5
I5
I7
tp358
I281
s(I0
I2
I2
I3
tp359
I247
s(I0
I4
I5
I6
tp360
I282
s(I0
I12
I13
I15
tp361
I371
s(I0
I5
I5
I19
tp362
I66
s(I0
I4
I5
I12
tp363
I160
s(I0
I9
I9
I13
tp364
I308
s(I0
I12
I13
I14
tp365
I382
s(I0
I3
I4
I11
tp366
I144
s(I0
I5
I6
I16
tp367
I123
s(I0
I2
I2
I21
tp368
I4
s(I0
I15
I15
I17
tp369
I396
s(I0
I4
I5
I16
tp370
I94
s(I0
I12
I12
I19
tp371
I302
s(I0
I9
I9
I21
tp372
I151
s(I0
I9
I10
I20
tp373
I189
s(I0
I8
I9
I20
tp374
I152
s(I0
I13
I14
I15
tp375
I390
s(I0
I7
I7
I10
tp376
I295
s(I0
I8
I9
I18
tp377
I191
s(I0
I16
I16
I18
tp378
I402
s(I0
I4
I4
I12
tp379
I143
s(I0
I1
I1
I8
tp380
I116
s(I0
I1
I1
I14
tp381
I41
s(I0
I1
I1
I4
tp382
I186
s(I0
I7
I7
I18
tp383
I137
s(I0
I6
I7
I13
tp384
I216
s(I0
I11
I11
I12
tp385
I374
s(I0
I0
I1
I5
tp386
I187
s(I0
I6
I7
I11
tp387
I259
s(I0
I4
I4
I20
tp388
I35
s(I0
I1
I1
I16
tp389
I24
s(I0
I8
I8
I14
tp390
I256
s(I0
I6
I7
I17
tp391
I138
s(I0
I1
I2
I19
tp392
I10
s(I0
I14
I14
I18
tp393
I368
s(I0
I11
I12
I18
tp394
I303
s(I0
I1
I2
I13
tp395
I61
s(I0
I11
I12
I20
tp396
I268
s(I0
I11
I11
I20
tp397
I250
s(I0
I10
I11
I15
tp398
I321
s(I0
I8
I8
I16
tp399
I213
s(I0
I10
I11
I21
tp400
I208
s(I0
I10
I11
I19
tp401
I251
s(I0
I21
I21
I21
tp402
I421
s(I0
I6
I6
I11
tp403
I239
s(I0
I7
I8
I16
tp404
I193
s(I0
I3
I3
I13
tp405
I97
s(I0
I6
I6
I7
tp406
I314
s(I0
I6
I6
I19
tp407
I91
s(I0
I3
I4
I17
tp408
I57
s(I0
I10
I10
I13
tp409
I337
s(I0
I3
I3
I21
tp410
I13
s(I0
I2
I3
I14
tp411
I71
s(I0
I2
I3
I20
tp412
I14
s(I0
I3
I4
I7
tp413
I222
s(I0
I13
I13
I19
tp414
I331
s(I0
I2
I3
I18
tp415
I29
s(I0
I3
I4
I9
tp416
I181
s(I0
I13
I14
I16
tp417
I380
s(I0
I10
I10
I21
tp418
I188
s(I0
I12
I13
I16
tp419
I359
s(I0
I17
I17
I18
tp420
I413
s(I0
I15
I16
I19
tp421
I386
s(I0
I5
I5
I12
tp422
I178
s(I0
I2
I2
I8
tp423
I147
s.