(dp1
(I0
I8
I9
I10
tp2
I665
s(I2
I4
I6
I22
tp3
I88
s(I1
I2
I6
I21
tp4
I85
s(I0
I15
I16
I22
tp5
I688
s(I2
I4
I6
I12
tp6
I363
s(I0
I24
I24
I25
tp7
I818
s(I0
I0
I6
I19
tp8
I152
s(I3
I4
I6
I11
tp9
I367
s(I2
I4
I6
I10
tp10
I430
s(I0
I24
I24
I26
tp11
I814
s(I3
I4
I6
I21
tp12
I92
s(I0
I5
I6
I21
tp13
I173
s(I0
I0
I6
I7
tp14
I529
s(I1
I2
I6
I11
tp15
I360
s(I0
I9
I9
I14
tp16
I601
s(I0
I12
I13
I14
tp17
I727
s(I0
I5
I6
I15
tp18
I350
s(I3
I4
I6
I25
tp19
I14
s(I0
I15
I15
I18
tp20
I737
s(I0
I5
I6
I9
tp21
I557
s(I0
I0
I6
I11
tp22
I388
s(I2
I6
I6
I18
tp23
I239
s(I0
I9
I9
I26
tp24
I221
s(I0
I20
I21
I23
tp25
I795
s(I1
I5
I6
I8
tp26
I561
s(I3
I4
I6
I14
tp27
I274
s(I0
I12
I12
I20
tp28
I595
s(I0
I22
I22
I25
tp29
I800
s(I0
I9
I9
I16
tp30
I550
s(I0
I9
I10
I25
tp31
I279
s(I1
I2
I6
I25
tp32
I10
s(I2
I3
I6
I22
tp33
I67
s(I0
I9
I9
I22
tp34
I343
s(I0
I9
I10
I19
tp35
I480
s(I1
I2
I6
I24
tp36
I24
s(I2
I3
I6
I16
tp37
I214
s(I0
I19
I20
I23
tp38
I778
s(I0
I8
I9
I23
tp39
I281
s(I2
I3
I6
I10
tp40
I397
s(I2
I6
I6
I10
tp41
I499
s(I0
I7
I7
I11
tp42
I581
s(I0
I3
I6
I19
tp43
I175
s(I1
I5
I6
I16
tp44
I294
s(I0
I19
I19
I23
tp45
I768
s(I0
I19
I20
I25
tp46
I755
s(I0
I9
I10
I15
tp47
I600
s(I0
I3
I6
I9
tp48
I490
s(I1
I5
I6
I22
tp49
I129
s(I0
I18
I19
I22
tp50
I769
s(I5
I6
I6
I26
tp51
I6
s(I0
I3
I6
I15
tp52
I289
s(I2
I5
I6
I26
tp53
I25
s(I4
I6
I6
I14
tp54
I305
s(I0
I18
I19
I26
tp55
I715
s(I0
I14
I14
I16
tp56
I739
s(I5
I6
I6
I22
tp57
I73
s(I0
I7
I7
I19
tp58
I315
s(I2
I5
I6
I16
tp59
I269
s(I4
I6
I6
I20
tp60
I140
s(I0
I11
I11
I13
tp61
I697
s(I5
I6
I6
I8
tp62
I472
s(I0
I8
I8
I9
tp63
I666
s(I2
I5
I6
I22
tp64
I110
s(I4
I6
I6
I18
tp65
I191
s(I0
I1
I6
I23
tp66
I37
s(I0
I8
I8
I15
tp67
I520
s(I0
I6
I7
I16
tp68
I381
s(I4
I6
I6
I24
tp69
I50
s(I0
I1
I6
I25
tp70
I8
s(I0
I11
I11
I25
tp71
I372
s(I0
I14
I14
I19
tp72
I691
s(I0
I11
I12
I17
tp73
I639
s(I1
I2
I6
I7
tp74
I498
s(I0
I11
I11
I21
tp75
I514
s(I0
I7
I8
I15
tp76
I484
s(I0
I10
I11
I14
tp77
I661
s(I0
I21
I21
I26
tp78
I775
s(I0
I8
I8
I17
tp79
I447
s(I0
I1
I6
I15
tp80
I232
s(I0
I10
I11
I20
tp81
I515
s(I0
I8
I8
I23
tp82
I252
s(I0
I21
I22
I25
tp83
I793
s(I1
I3
I6
I20
tp84
I131
s(I0
I10
I11
I18
tp85
I574
s(I0
I21
I21
I22
tp86
I809
s(I0
I10
I11
I24
tp87
I373
s(I0
I6
I6
I12
tp88
I487
s(I1
I4
I6
I14
tp89
I326
s(I0
I6
I7
I8
tp90
I628
s(I1
I6
I6
I24
tp91
I104
s(I1
I3
I6
I24
tp92
I41
s(I0
I7
I8
I23
tp93
I224
s(I1
I4
I6
I20
tp94
I155
s(I1
I6
I6
I18
tp95
I263
s(I0
I6
I6
I24
tp96
I121
s(I1
I4
I6
I18
tp97
I208
s(I1
I6
I6
I12
tp98
I458
s(I3
I5
I6
I16
tp99
I244
s(I1
I4
I6
I24
tp100
I61
s(I0
I6
I6
I20
tp101
I227
s(I0
I14
I14
I17
tp102
I724
s(I0
I12
I12
I24
tp103
I475
s(I1
I2
I6
I14
tp104
I267
s(I0
I13
I13
I24
tp105
I542
s(I0
I12
I12
I25
tp106
I439
s(I1
I2
I6
I13
tp107
I297
s(I3
I6
I6
I12
tp108
I398
s(I0
I5
I6
I13
tp109
I417
s(I4
I5
I6
I16
tp110
I219
s(I0
I10
I10
I26
tp111
I278
s(I3
I6
I6
I10
tp112
I467
s(I0
I13
I13
I20
tp113
I636
s(I0
I4
I6
I8
tp114
I558
s(I4
I5
I6
I10
tp115
I402
s(I0
I10
I10
I16
tp116
I599
s(I0
I2
I6
I26
tp117
I7
s(I0
I4
I6
I18
tp118
I229
s(I4
I5
I6
I12
tp119
I337
s(I0
I10
I10
I22
tp120
I408
s(I0
I2
I6
I16
tp121
I231
s(I0
I4
I6
I20
tp122
I174
s(I0
I2
I6
I14
tp123
I290
s(I3
I6
I6
I20
tp124
I162
s(I0
I12
I13
I25
tp125
I474
s(I3
I6
I6
I18
tp126
I215
s(I0
I17
I17
I19
tp127
I772
s(I0
I15
I16
I25
tp128
I631
s(I3
I4
I6
I24
tp129
I30
s(I2
I4
I6
I25
tp130
I26
s(I1
I2
I6
I18
tp131
I157
s(I0
I12
I12
I16
tp132
I677
s(I0
I22
I23
I24
tp133
I812
s(I2
I4
I6
I23
tp134
I66
s(I0
I0
I6
I22
tp135
I80
s(I1
I2
I6
I20
tp136
I108
s(I0
I15
I16
I21
tp137
I705
s(I2
I4
I6
I13
tp138
I331
s(I0
I0
I6
I16
tp139
I233
s(I3
I4
I6
I10
tp140
I400
s(I2
I4
I6
I11
tp141
I396
s(I0
I5
I6
I26
tp142
I53
s(I0
I0
I6
I26
tp143
I0
s(I3
I4
I6
I20
tp144
I115
s(I0
I5
I6
I20
tp145
I200
s(I0
I23
I24
I25
tp146
I815
s(I1
I2
I6
I10
tp147
I393
s(I0
I9
I9
I15
tp148
I577
s(I0
I5
I6
I14
tp149
I383
s(I0
I0
I6
I14
tp150
I292
s(I1
I2
I6
I12
tp151
I328
s(I0
I15
I15
I19
tp152
I722
s(I0
I5
I6
I8
tp153
I584
s(I0
I0
I6
I8
tp154
I493
s(I2
I6
I6
I19
tp155
I211
s(I1
I5
I6
I9
tp156
I531
s(I1
I5
I6
I13
tp157
I390
s(I0
I12
I12
I21
tp158
I571
s(I0
I22
I22
I26
tp159
I792
s(I0
I9
I9
I17
tp160
I518
s(I1
I5
I6
I15
tp161
I325
s(I0
I14
I15
I16
tp162
I752
s(I1
I5
I6
I14
tp163
I357
s(I2
I3
I6
I21
tp164
I89
s(I2
I6
I6
I7
tp165
I588
s(I0
I9
I9
I23
tp166
I311
s(I0
I9
I10
I18
tp167
I517
s(I0
I9
I10
I24
tp168
I310
s(I2
I3
I6
I15
tp169
I242
s(I0
I19
I20
I22
tp170
I788
s(I2
I6
I6
I24
tp171
I86
s(I0
I8
I9
I22
tp172
I312
s(I0
I8
I9
I13
tp173
I602
s(I2
I3
I6
I9
tp174
I431
s(I2
I6
I6
I11
tp175
I463
s(I0
I7
I7
I12
tp176
I554
s(I0
I3
I6
I18
tp177
I202
s(I1
I5
I6
I17
tp178
I264
s(I0
I8
I9
I12
tp179
I624
s(I0
I16
I16
I20
tp180
I735
s(I0
I3
I6
I8
tp181
I527
s(I1
I5
I6
I23
tp182
I105
s(I0
I8
I9
I15
tp183
I551
s(I5
I6
I6
I25
tp184
I17
s(I0
I7
I7
I24
tp185
I170
s(I0
I3
I6
I14
tp186
I320
s(I0
I8
I9
I14
tp187
I578
s(I5
I6
I6
I19
tp188
I142
s(I0
I19
I19
I26
tp189
I729
s(I4
I6
I6
I15
tp190
I275
s(I5
I6
I6
I21
tp191
I95
s(I0
I7
I7
I20
tp192
I284
s(I2
I5
I6
I19
tp193
I185
s(I4
I6
I6
I21
tp194
I116
s(I0
I11
I11
I14
tp195
I679
s(I5
I6
I6
I15
tp196
I248
s(I0
I8
I8
I10
tp197
I646
s(I0
I6
I7
I21
tp198
I226
s(I4
I6
I6
I19
tp199
I165
s(I0
I1
I6
I22
tp200
I57
s(I0
I8
I9
I11
tp201
I645
s(I2
I5
I6
I15
tp202
I299
s(I4
I6
I6
I25
tp203
I31
s(I0
I1
I6
I24
tp204
I20
s(I0
I11
I11
I26
tp205
I339
s(I0
I6
I7
I25
tp206
I120
s(I0
I11
I12
I16
tp207
I659
s(I0
I8
I9
I21
tp208
I344
s(I0
I11
I12
I26
tp209
I371
s(I0
I8
I9
I20
tp210
I377
s(I0
I7
I8
I14
tp211
I521
s(I0
I8
I8
I18
tp212
I412
s(I0
I1
I6
I14
tp213
I261
s(I1
I5
I6
I26
tp214
I39
s(I0
I10
I11
I23
tp215
I407
s(I0
I21
I22
I24
tp216
I801
s(I0
I16
I16
I24
tp217
I669
s(I1
I3
I6
I21
tp218
I107
s(I0
I9
I10
I12
tp219
I663
s(I0
I7
I8
I26
tp220
I143
s(I0
I21
I21
I23
tp221
I802
s(I2
I6
I6
I12
tp222
I428
s(I0
I18
I18
I19
tp223
I791
s(I0
I9
I10
I11
tp224
I682
s(I0
I6
I6
I13
tp225
I451
s(I1
I4
I6
I9
tp226
I496
s(I0
I20
I21
I22
tp227
I803
s(I1
I6
I6
I23
tp228
I128
s(I1
I3
I6
I25
tp229
I23
s(I0
I12
I12
I13
tp230
I728
s(I0
I7
I8
I22
tp231
I253
s(I1
I4
I6
I23
tp232
I83
s(I1
I6
I6
I17
tp233
I293
s(I0
I6
I7
I9
tp234
I606
s(I0
I6
I6
I25
tp235
I97
s(I0
I20
I21
I26
tp236
I765
s(I1
I6
I6
I11
tp237
I494
s(I3
I5
I6
I17
tp238
I216
s(I0
I19
I19
I22
tp239
I779
s(I0
I19
I20
I24
tp240
I767
s(I0
I6
I6
I21
tp241
I199
s(I0
I10
I10
I15
tp242
I621
s(I0
I13
I13
I25
tp243
I510
s(I3
I6
I6
I15
tp244
I302
s(I0
I13
I14
I26
tp245
I509
s(I4
I5
I6
I23
tp246
I51
s(I0
I16
I16
I19
tp247
I749
s(I0
I13
I13
I21
tp248
I615
s(I0
I4
I6
I9
tp249
I526
s(I4
I5
I6
I9
tp250
I436
s(I0
I10
I10
I17
tp251
I575
s(I1
I5
I6
I20
tp252
I180
s(I0
I4
I6
I19
tp253
I201
s(I0
I10
I10
I23
tp254
I374
s(I1
I5
I6
I21
tp255
I154
s(I0
I2
I6
I17
tp256
I203
s(I3
I6
I6
I25
tp257
I47
s(I0
I17
I17
I24
tp258
I702
s(I0
I4
I6
I21
tp259
I148
s(I0
I20
I20
I21
tp260
I804
s(I0
I2
I6
I15
tp261
I260
s(I3
I6
I6
I23
tp262
I90
s(I0
I12
I13
I24
tp263
I511
s(I0
I26
I26
I26
tp264
I821
s(I0
I8
I9
I26
tp265
I194
s(I0
I16
I16
I25
tp266
I650
s(I0
I17
I17
I20
tp267
I760
s(I0
I15
I16
I24
tp268
I651
s(I0
I17
I18
I21
tp269
I759
s(I2
I4
I6
I26
tp270
I11
s(I1
I2
I6
I17
tp271
I183
s(I0
I15
I16
I18
tp272
I750
s(I0
I16
I17
I21
tp273
I734
s(I2
I4
I6
I16
tp274
I241
s(I0
I0
I6
I23
tp275
I58
s(I3
I4
I6
I15
tp276
I245
s(I0
I15
I16
I20
tp277
I721
s(I0
I16
I17
I19
tp278
I761
s(I2
I4
I6
I14
tp279
I300
s(I0
I0
I6
I17
tp280
I205
s(I3
I4
I6
I9
tp281
I434
s(I0
I16
I17
I25
tp282
I668
s(I0
I5
I6
I25
tp283
I75
s(I3
I4
I6
I19
tp284
I139
s(I0
I9
I9
I10
tp285
I683
s(I0
I15
I15
I24
tp286
I632
s(I0
I5
I6
I19
tp287
I228
s(I1
I2
I6
I9
tp288
I427
s(I0
I12
I12
I26
tp289
I404
s(I0
I0
I6
I15
tp290
I262
s(I2
I6
I6
I22
tp291
I133
s(I0
I15
I15
I20
tp292
I706
s(I0
I5
I6
I7
tp293
I608
s(I0
I0
I6
I9
tp294
I457
s(I2
I6
I6
I16
tp295
I298
s(I1
I5
I6
I10
tp296
I495
s(I0
I14
I15
I21
tp297
I672
s(I0
I12
I12
I22
tp298
I544
s(I2
I3
I6
I26
tp299
I3
s(I2
I6
I6
I26
tp300
I43
s(I0
I9
I9
I18
tp301
I481
s(I0
I9
I10
I23
tp302
I342
s(I0
I14
I15
I19
tp303
I707
s(I2
I3
I6
I20
tp304
I112
s(I0
I3
I6
I25
tp305
I35
s(I0
I9
I10
I17
tp306
I549
s(I0
I14
I15
I25
tp307
I590
s(I2
I3
I6
I14
tp308
I271
s(I2
I6
I6
I14
tp309
I361
s(I0
I22
I22
I23
tp310
I813
s(I0
I19
I20
I21
tp311
I797
s(I0
I8
I9
I17
tp312
I482
s(I0
I20
I20
I22
tp313
I796
s(I2
I3
I6
I8
tp314
I466
s(I2
I6
I6
I8
tp315
I563
s(I0
I7
I7
I13
tp316
I522
s(I0
I3
I6
I21
tp317
I124
s(I1
I5
I6
I18
tp318
I235
s(I0
I16
I16
I26
tp319
I630
s(I0
I3
I6
I11
tp320
I419
s(I0
I14
I14
I24
tp321
I591
s(I5
I6
I6
I24
tp322
I33
s(I0
I7
I7
I25
tp323
I144
s(I0
I16
I16
I21
tp324
I720
s(I5
I6
I6
I18
tp325
I167
s(I0
I3
I6
I7
tp326
I559
s(I0
I12
I12
I15
tp327
I695
s(I4
I6
I6
I8
tp328
I506
s(I0
I6
I7
I13
tp329
I486
s(I5
I6
I6
I20
tp330
I118
s(I0
I7
I7
I21
tp331
I254
s(I0
I12
I12
I14
tp332
I712
s(I2
I5
I6
I18
tp333
I212
s(I4
I6
I6
I22
tp334
I93
s(I0
I1
I6
I19
tp335
I126
s(I0
I11
I11
I15
tp336
I660
s(I0
I6
I7
I12
tp337
I523
s(I5
I6
I6
I14
tp338
I277
s(I0
I8
I8
I11
tp339
I625
s(I0
I6
I7
I20
tp340
I255
s(I0
I1
I6
I21
tp341
I79
s(I0
I6
I7
I15
tp342
I415
s(I2
I5
I6
I14
tp343
I330
s(I4
I6
I6
I26
tp344
I15
s(I0
I6
I7
I14
tp345
I450
s(I0
I6
I7
I24
tp346
I145
s(I0
I11
I12
I23
tp347
I476
s(I0
I11
I11
I17
tp348
I619
s(I0
I7
I8
I11
tp349
I604
s(I0
I11
I12
I25
tp350
I405
s(I0
I6
I7
I10
tp351
I582
s(I0
I1
I6
I11
tp352
I354
s(I0
I11
I11
I23
tp353
I441
s(I0
I7
I8
I13
tp354
I553
s(I0
I8
I8
I19
tp355
I378
s(I0
I18
I18
I24
tp356
I731
s(I0
I1
I6
I13
tp357
I291
s(I0
I6
I7
I11
tp358
I555
s(I0
I10
I11
I22
tp359
I442
s(I0
I14
I14
I22
tp360
I634
s(I0
I21
I22
I23
tp361
I808
s(I3
I5
I6
I14
tp362
I303
s(I0
I7
I8
I25
tp363
I169
s(I0
I6
I6
I8
tp364
I607
s(I0
I11
I12
I15
tp365
I678
s(I0
I7
I8
I19
tp366
I346
s(I0
I10
I11
I26
tp367
I308
s(I0
I6
I6
I14
tp368
I416
s(I1
I4
I6
I8
tp369
I532
s(I0
I20
I20
I23
tp370
I787
s(I1
I6
I6
I22
tp371
I153
s(I3
I5
I6
I26
tp372
I13
s(I0
I7
I8
I21
tp373
I283
s(I1
I4
I6
I22
tp374
I106
s(I1
I6
I6
I16
tp375
I324
s(I2
I5
I6
I11
tp376
I429
s(I0
I6
I6
I26
tp377
I74
s(I1
I6
I6
I10
tp378
I530
s(I3
I5
I6
I22
tp379
I91
s(I2
I5
I6
I10
tp380
I464
s(I0
I6
I6
I16
tp381
I349
s(I1
I4
I6
I26
tp382
I22
s(I0
I13
I13
I14
tp383
I741
s(I2
I5
I6
I13
tp384
I362
s(I0
I6
I6
I22
tp385
I172
s(I4
I5
I6
I26
tp386
I5
s(I2
I5
I6
I12
tp387
I395
s(I0
I13
I13
I26
tp388
I473
s(I0
I6
I7
I19
tp389
I285
s(I3
I6
I6
I14
tp390
I333
s(I0
I13
I13
I16
tp391
I710
s(I0
I13
I14
I25
tp392
I541
s(I4
I5
I6
I22
tp393
I72
s(I0
I6
I7
I18
tp394
I316
s(I0
I13
I13
I22
tp395
I593
s(I0
I4
I6
I14
tp396
I351
s(I4
I5
I6
I8
tp397
I471
s(I0
I10
I10
I18
tp398
I548
s(I0
I2
I6
I20
tp399
I125
s(I0
I4
I6
I16
tp400
I288
s(I0
I2
I6
I18
tp401
I176
s(I3
I6
I6
I24
tp402
I68
s(I0
I17
I17
I25
tp403
I685
s(I0
I4
I6
I26
tp404
I34
s(I0
I2
I6
I8
tp405
I491
s(I3
I6
I6
I22
tp406
I113
s(I0
I17
I18
I26
tp407
I684
s(I0
I17
I17
I21
tp408
I747
s(I0
I17
I18
I20
tp409
I771
s(I0
I14
I14
I20
tp410
I673
s(I1
I2
I6
I16
tp411
I210
s(I0
I15
I16
I17
tp412
I763
s(I0
I16
I17
I20
tp413
I748
s(I0
I22
I23
I26
tp414
I799
s(I0
I14
I14
I21
tp415
I654
s(I2
I4
I6
I17
tp416
I213
s(I0
I0
I6
I20
tp417
I127
s(I1
I2
I6
I26
tp418
I2
s(I0
I16
I17
I18
tp419
I773
s(I2
I5
I6
I7
tp420
I564
s(I2
I4
I6
I15
tp421
I270
s(I0
I11
I11
I16
tp422
I640
s(I3
I4
I6
I8
tp423
I469
s(I0
I16
I17
I24
tp424
I686
s(I0
I14
I14
I23
tp425
I613
s(I0
I5
I6
I24
tp426
I98
s(I0
I0
I6
I24
tp427
I38
s(I3
I4
I6
I18
tp428
I164
s(I0
I9
I9
I11
tp429
I664
s(I0
I15
I15
I25
tp430
I611
s(I0
I5
I6
I18
tp431
I257
s(I1
I2
I6
I8
tp432
I462
s(I0
I5
I6
I12
tp433
I452
s(I0
I0
I6
I12
tp434
I355
s(I2
I6
I6
I23
tp435
I109
s(I0
I15
I15
I21
tp436
I689
s(I0
I12
I12
I17
tp437
I658
s(I2
I6
I6
I17
tp438
I268
s(I1
I5
I6
I11
tp439
I459
s(I0
I14
I15
I20
tp440
I690
s(I0
I12
I12
I23
tp441
I512
s(I2
I3
I6
I25
tp442
I12
s(I0
I9
I9
I19
tp443
I445
s(I0
I9
I10
I22
tp444
I375
s(I0
I19
I19
I24
tp445
I756
s(I0
I14
I15
I18
tp446
I723
s(I0
I21
I21
I25
tp447
I785
s(I2
I3
I6
I19
tp448
I136
s(I0
I3
I6
I24
tp449
I55
s(I0
I9
I10
I16
tp450
I576
s(I0
I14
I15
I24
tp451
I612
s(I2
I3
I6
I13
tp452
I301
s(I2
I6
I6
I15
tp453
I329
s(I0
I7
I7
I8
tp454
I648
s(I0
I8
I9
I16
tp455
I519
s(I0
I19
I19
I20
tp456
I798
s(I2
I3
I6
I7
tp457
I502
s(I2
I6
I6
I9
tp458
I534
s(I0
I7
I7
I14
tp459
I485
s(I0
I3
I6
I20
tp460
I149
s(I1
I5
I6
I19
tp461
I207
s(I0
I18
I19
I21
tp462
I780
s(I0
I16
I16
I22
tp463
I704
s(I0
I3
I6
I10
tp464
I454
s(I0
I7
I7
I26
tp465
I119
s(I2
I5
I6
I25
tp466
I44
s(I0
I4
I6
I7
tp467
I585
s(I0
I18
I19
I25
tp468
I730
s(I5
I6
I6
I17
tp469
I193
s(I0
I7
I7
I16
tp470
I414
s(I4
I6
I6
I9
tp471
I470
s(I5
I6
I6
I11
tp472
I370
s(I0
I7
I7
I22
tp473
I225
s(I2
I5
I6
I21
tp474
I134
s(I4
I6
I6
I23
tp475
I71
s(I0
I1
I6
I18
tp476
I151
s(I5
I6
I6
I13
tp477
I307
s(I0
I8
I8
I12
tp478
I603
s(I0
I6
I7
I23
tp479
I171
s(I0
I1
I6
I20
tp480
I102
s(I5
I6
I6
I7
tp481
I508
s(I3
I5
I6
I10
tp482
I433
s(I0
I8
I8
I24
tp483
I223
s(I3
I5
I6
I11
tp484
I399
s(I0
I11
I12
I22
tp485
I513
s(I0
I11
I11
I18
tp486
I597
s(I0
I7
I8
I10
tp487
I626
s(I0
I10
I11
I13
tp488
I680
s(I3
I5
I6
I8
tp489
I504
s(I0
I11
I12
I24
tp490
I440
s(I0
I1
I6
I10
tp491
I387
s(I0
I7
I8
I12
tp492
I580
s(I0
I8
I8
I20
tp493
I345
s(I3
I5
I6
I9
tp494
I468
s(I0
I18
I18
I25
tp495
I716
s(I0
I1
I6
I12
tp496
I322
s(I2
I5
I6
I8
tp497
I535
s(I1
I4
I6
I7
tp498
I562
s(I1
I3
I6
I18
tp499
I182
s(I1
I3
I6
I19
tp500
I156
s(I0
I7
I8
I24
tp501
I196
s(I0
I6
I6
I9
tp502
I583
s(I1
I4
I6
I13
tp503
I358
s(I3
I5
I6
I15
tp504
I273
s(I0
I11
I12
I14
tp505
I696
s(I0
I7
I8
I18
tp506
I379
s(I0
I6
I6
I15
tp507
I382
s(I1
I4
I6
I11
tp508
I425
s(I3
I5
I6
I12
tp509
I366
s(I1
I6
I6
I21
tp510
I179
s(I1
I3
I6
I7
tp511
I533
s(I0
I7
I8
I20
tp512
I314
s(I1
I4
I6
I17
tp513
I236
s(I1
I3
I6
I17
tp514
I209
s(I1
I6
I6
I15
tp515
I356
s(I0
I25
I26
I26
tp516
I820
s(I1
I6
I6
I9
tp517
I560
s(I3
I5
I6
I23
tp518
I69
s(I0
I6
I6
I17
tp519
I317
s(I0
I18
I18
I20
tp520
I781
s(I0
I13
I13
I15
tp521
I726
s(I0
I10
I10
I11
tp522
I699
s(I0
I6
I6
I23
tp523
I146
s(I0
I18
I18
I21
tp524
I770
s(I4
I5
I6
I25
tp525
I16
s(I0
I14
I15
I17
tp526
I738
s(I0
I18
I18
I22
tp527
I758
s(I4
I5
I6
I19
tp528
I141
s(I3
I6
I6
I9
tp529
I503
s(I0
I13
I13
I17
tp530
I693
s(I0
I14
I14
I25
tp531
I567
s(I4
I5
I6
I21
tp532
I94
s(I3
I6
I6
I7
tp533
I565
s(I0
I13
I13
I23
tp534
I569
s(I0
I4
I6
I15
tp535
I319
s(I4
I5
I6
I15
tp536
I247
s(I0
I10
I10
I19
tp537
I516
s(I0
I2
I6
I21
tp538
I101
s(I0
I20
I20
I24
tp539
I777
s(I0
I4
I6
I17
tp540
I258
s(I0
I2
I6
I19
tp541
I150
s(I0
I17
I17
I26
tp542
I667
s(I0
I2
I6
I9
tp543
I455
s(I3
I6
I6
I17
tp544
I243
s(I0
I23
I24
I26
tp545
I810
s(I0
I12
I13
I26
tp546
I438
s(I0
I17
I18
I25
tp547
I701
s(I0
I2
I6
I7
tp548
I528
s(I0
I17
I17
I22
tp549
I733
s(I0
I17
I18
I19
tp550
I782
s(I2
I4
I6
I20
tp551
I135
s(I1
I2
I6
I23
tp552
I42
s(I0
I16
I17
I23
tp553
I703
s(I2
I4
I6
I18
tp554
I186
s(I0
I0
I6
I21
tp555
I103
s(I3
I4
I6
I13
tp556
I304
s(I0
I25
I25
I26
tp557
I819
s(I2
I4
I6
I8
tp558
I501
s(I3
I4
I6
I23
tp559
I49
s(I0
I5
I6
I23
tp560
I122
s(I0
I0
I6
I25
tp561
I21
s(I3
I4
I6
I17
tp562
I190
s(I0
I9
I9
I12
tp563
I644
s(I0
I15
I15
I26
tp564
I589
s(I0
I5
I6
I17
tp565
I287
s(I1
I2
I6
I15
tp566
I238
s(I0
I15
I15
I16
tp567
I764
s(I0
I5
I6
I11
tp568
I488
s(I0
I0
I6
I13
tp569
I323
s(I2
I6
I6
I20
tp570
I184
s(I0
I15
I16
I19
tp571
I736
s(I0
I9
I9
I24
tp572
I280
s(I0
I15
I15
I22
tp573
I671
s(I0
I12
I12
I18
tp574
I638
s(I1
I3
I6
I14
tp575
I296
s(I2
I5
I6
I9
tp576
I500
s(I1
I5
I6
I12
tp577
I424
s(I0
I14
I14
I26
tp578
I540
s(I0
I14
I15
I23
tp579
I633
s(I2
I3
I6
I24
tp580
I27
s(I3
I5
I6
I19
tp581
I163
s(I0
I9
I9
I20
tp582
I410
s(I0
I9
I10
I21
tp583
I409
s(I0
I19
I19
I25
tp584
I743
s(I2
I3
I6
I18
tp585
I161
s(I1
I3
I6
I12
tp586
I359
s(I1
I5
I6
I24
tp587
I82
s(I2
I3
I6
I12
tp588
I332
s(I1
I3
I6
I13
tp589
I327
s(I0
I7
I7
I9
tp590
I627
s(I0
I3
I6
I17
tp591
I230
s(I0
I8
I9
I19
tp592
I411
s(I0
I19
I19
I21
tp593
I789
s(I0
I16
I16
I17
tp594
I774
s(I1
I3
I6
I10
tp595
I426
s(I0
I7
I7
I15
tp596
I449
s(I0
I3
I6
I23
tp597
I77
s(I0
I8
I9
I25
tp598
I222
s(I3
I4
I6
I7
tp599
I505
s(I0
I18
I19
I20
tp600
I790
s(I0
I16
I16
I23
tp601
I687
s(I1
I3
I6
I11
tp602
I392
s(I0
I3
I6
I13
tp603
I352
s(I1
I3
I6
I8
tp604
I497
s(I2
I5
I6
I24
tp605
I65
s(I4
I6
I6
I12
tp606
I368
s(I0
I18
I19
I24
tp607
I744
s(I5
I6
I6
I16
tp608
I220
s(I1
I3
I6
I9
tp609
I461
s(I0
I7
I7
I17
tp610
I380
s(I0
I14
I14
I15
tp611
I753
s(I4
I6
I6
I10
tp612
I435
s(I5
I6
I6
I10
tp613
I403
s(I0
I7
I7
I23
tp614
I197
s(I2
I5
I6
I20
tp615
I159
s(I4
I6
I6
I16
tp616
I246
s(I0
I1
I6
I17
tp617
I177
s(I5
I6
I6
I12
tp618
I338
s(I0
I8
I8
I13
tp619
I579
s(I0
I6
I7
I22
tp620
I198
s(I0
I9
I10
I14
tp621
I622
s(I0
I11
I12
I19
tp622
I596
s(I0
I8
I8
I25
tp623
I195
s(I0
I6
I7
I26
tp624
I96
s(I0
I11
I12
I21
tp625
I545
s(I0
I1
I6
I7
tp626
I492
s(I0
I11
I11
I19
tp627
I573
s(I0
I7
I8
I9
tp628
I647
s(I0
I10
I11
I12
tp629
I698
s(I0
I21
I21
I24
tp630
I794
s(I0
I1
I6
I9
tp631
I421
s(I0
I8
I8
I21
tp632
I313
s(I0
I18
I18
I26
tp633
I700
s(I1
I3
I6
I22
tp634
I84
s(I0
I10
I11
I16
tp635
I620
s(I0
I10
I10
I14
tp636
I642
s(I1
I3
I6
I16
tp637
I237
s(I0
I6
I6
I10
tp638
I556
s(I1
I4
I6
I12
tp639
I391
s(I0
I11
I12
I13
tp640
I713
s(I1
I6
I6
I26
tp641
I59
s(I1
I3
I6
I26
tp642
I9
s(I0
I7
I8
I17
tp643
I413
s(I1
I4
I6
I10
tp644
I460
s(I1
I6
I6
I20
tp645
I206
s(I3
I5
I6
I24
tp646
I48
s(I1
I4
I6
I16
tp647
I265
s(I0
I20
I21
I25
tp648
I776
s(I1
I5
I6
I7
tp649
I587
s(I1
I6
I6
I14
tp650
I389
s(I3
I5
I6
I18
tp651
I189
s(I1
I6
I6
I8
tp652
I586
s(I3
I5
I6
I20
tp653
I138
s(I0
I6
I6
I18
tp654
I286
s(I0
I10
I10
I12
tp655
I681
s(I4
I5
I6
I24
tp656
I32
s(I4
I5
I6
I18
tp657
I166
s(I0
I10
I10
I24
tp658
I341
s(I3
I6
I6
I8
tp659
I537
s(I0
I13
I13
I18
tp660
I675
s(I0
I4
I6
I10
tp661
I489
s(I4
I5
I6
I20
tp662
I117
s(I0
I9
I10
I13
tp663
I643
s(I0
I2
I6
I24
tp664
I36
s(I0
I4
I6
I12
tp665
I418
s(I4
I5
I6
I14
tp666
I276
s(I0
I10
I10
I20
tp667
I479
s(I0
I2
I6
I22
tp668
I78
s(I0
I20
I20
I25
tp669
I766
s(I0
I4
I6
I22
tp670
I123
s(I0
I2
I6
I12
tp671
I353
s(I3
I6
I6
I26
tp672
I28
s(I0
I4
I6
I24
tp673
I76
s(I0
I2
I6
I10
tp674
I420
s(I3
I6
I6
I16
tp675
I272
s(I0
I17
I18
I24
tp676
I717
s(I0
I17
I17
I23
tp677
I718
s(I0
I13
I14
I24
tp678
I568
s(I2
I4
I6
I21
tp679
I111
s(I1
I2
I6
I22
tp680
I63
s(I0
I15
I16
I23
tp681
I670
s(I0
I16
I17
I22
tp682
I719
s(I0
I13
I14
I23
tp683
I592
s(I2
I4
I6
I19
tp684
I160
s(I0
I0
I6
I18
tp685
I178
s(I3
I4
I6
I12
tp686
I335
s(I0
I13
I14
I22
tp687
I614
s(I2
I4
I6
I9
tp688
I465
s(I3
I4
I6
I22
tp689
I70
s(I0
I23
I23
I24
tp690
I816
s(I0
I16
I17
I26
tp691
I649
s(I0
I13
I14
I21
tp692
I635
s(I2
I4
I6
I7
tp693
I536
s(I0
I5
I6
I22
tp694
I147
s(I3
I4
I6
I16
tp695
I217
s(I0
I23
I23
I25
tp696
I811
s(I0
I9
I9
I13
tp697
I623
s(I0
I13
I14
I20
tp698
I655
s(I0
I5
I6
I16
tp699
I318
s(I3
I4
I6
I26
tp700
I4
s(I0
I23
I23
I26
tp701
I805
s(I0
I15
I15
I17
tp702
I751
s(I0
I13
I14
I19
tp703
I674
s(I0
I5
I6
I10
tp704
I525
s(I0
I0
I6
I10
tp705
I422
s(I2
I6
I6
I21
tp706
I158
s(I0
I9
I9
I25
tp707
I250
s(I0
I15
I15
I23
tp708
I652
s(I0
I13
I14
I18
tp709
I692
s(I0
I12
I12
I19
tp710
I617
s(I0
I22
I22
I24
tp711
I807
s(I0
I9
I10
I26
tp712
I249
s(I0
I13
I14
I17
tp713
I709
s(I0
I14
I15
I22
tp714
I653
s(I2
I3
I6
I23
tp715
I46
s(I2
I6
I6
I25
tp716
I64
s(I0
I9
I9
I21
tp717
I376
s(I0
I9
I10
I20
tp718
I444
s(I0
I13
I14
I16
tp719
I725
s(I2
I3
I6
I17
tp720
I187
s(I0
I3
I6
I26
tp721
I18
s(I1
I5
I6
I25
tp722
I60
s(I0
I12
I13
I21
tp723
I594
s(I0
I14
I15
I26
tp724
I566
s(I2
I3
I6
I11
tp725
I364
s(I2
I6
I6
I13
tp726
I394
s(I0
I7
I7
I10
tp727
I605
s(I0
I3
I6
I16
tp728
I259
s(I0
I8
I9
I18
tp729
I446
s(I0
I12
I13
I20
tp730
I616
s(I0
I16
I16
I18
tp731
I762
s(I0
I3
I6
I22
tp732
I100
s(I0
I8
I9
I24
tp733
I251
s(I0
I12
I13
I23
tp734
I543
s(I0
I18
I19
I23
tp735
I757
s(I0
I3
I6
I12
tp736
I385
s(I4
I6
I6
I7
tp737
I539
s(I0
I12
I13
I22
tp738
I570
s(I4
I6
I6
I13
tp739
I336
s(I0
I12
I13
I17
tp740
I676
s(I5
I6
I6
I23
tp741
I52
s(I0
I7
I7
I18
tp742
I347
s(I2
I5
I6
I17
tp743
I240
s(I4
I6
I6
I11
tp744
I401
s(I0
I12
I13
I16
tp745
I694
s(I0
I11
I11
I12
tp746
I714
s(I5
I6
I6
I9
tp747
I437
s(I2
I5
I6
I23
tp748
I87
s(I4
I6
I6
I17
tp749
I218
s(I0
I12
I13
I19
tp750
I637
s(I0
I1
I6
I16
tp751
I204
s(I0
I8
I8
I14
tp752
I552
s(I0
I6
I7
I17
tp753
I348
s(I0
I12
I13
I18
tp754
I657
s(I0
I1
I6
I26
tp755
I1
s(I0
I11
I11
I24
tp756
I406
s(I0
I14
I14
I18
tp757
I708
s(I0
I11
I12
I18
tp758
I618
s(I0
I8
I8
I26
tp759
I168
s(I0
I11
I12
I20
tp760
I572
s(I0
I11
I11
I20
tp761
I546
s(I0
I10
I11
I15
tp762
I641
s(I0
I13
I14
I15
tp763
I740
s(I0
I8
I8
I16
tp764
I483
s(I0
I1
I6
I8
tp765
I456
s(I0
I10
I11
I21
tp766
I478
s(I0
I8
I8
I22
tp767
I282
s(I0
I21
I22
I26
tp768
I784
s(I1
I3
I6
I23
tp769
I62
s(I0
I10
I11
I19
tp770
I547
s(I3
I5
I6
I13
tp771
I334
s(I0
I10
I11
I17
tp772
I598
s(I0
I10
I11
I25
tp773
I340
s(I0
I6
I6
I11
tp774
I524
s(I1
I4
I6
I15
tp775
I295
s(I0
I18
I18
I23
tp776
I745
s(I1
I6
I6
I25
tp777
I81
s(I3
I5
I6
I7
tp778
I538
s(I0
I7
I8
I16
tp779
I448
s(I1
I4
I6
I21
tp780
I130
s(I1
I6
I6
I19
tp781
I234
s(I3
I5
I6
I25
tp782
I29
s(I0
I6
I6
I7
tp783
I629
s(I1
I4
I6
I19
tp784
I181
s(I0
I20
I21
I24
tp785
I786
s(I1
I6
I6
I13
tp786
I423
s(I1
I3
I6
I15
tp787
I266
s(I1
I4
I6
I25
tp788
I40
s(I1
I6
I6
I7
tp789
I609
s(I3
I5
I6
I21
tp790
I114
s(I0
I6
I6
I19
tp791
I256
s(I0
I12
I13
I15
tp792
I711
s(I0
I10
I10
I13
tp793
I662
s(I3
I6
I6
I13
tp794
I365
s(I0
I17
I18
I22
tp795
I746
s(I4
I5
I6
I17
tp796
I192
s(I0
I10
I10
I25
tp797
I309
s(I0
I24
I25
I26
tp798
I817
s(I3
I6
I6
I11
tp799
I432
s(I0
I13
I13
I19
tp800
I656
s(I0
I4
I6
I11
tp801
I453
s(I4
I5
I6
I11
tp802
I369
s(I0
I2
I6
I25
tp803
I19
s(I0
I4
I6
I13
tp804
I384
s(I4
I5
I6
I13
tp805
I306
s(I0
I10
I10
I21
tp806
I443
s(I0
I2
I6
I23
tp807
I56
s(I0
I20
I20
I26
tp808
I754
s(I0
I11
I11
I22
tp809
I477
s(I0
I4
I6
I23
tp810
I99
s(I4
I5
I6
I7
tp811
I507
s(I0
I2
I6
I13
tp812
I321
s(I3
I6
I6
I21
tp813
I137
s(I0
I4
I6
I25
tp814
I54
s(I0
I19
I20
I26
tp815
I742
s(I0
I2
I6
I11
tp816
I386
s(I3
I6
I6
I19
tp817
I188
s(I0
I17
I17
I18
tp818
I783
s(I0
I15
I16
I26
tp819
I610
s(I0
I17
I18
I23
tp820
I732
s(I2
I4
I6
I24
tp821
I45
s(I1
I2
I6
I19
tp822
I132
s(I0
I22
I23
I25
tp823
I806
s.