(dp1
(I0
I15
I16
I22
tp2
I430
s(I0
I5
I5
I20
tp3
I82
s(I0
I5
I6
I21
tp4
I81
s(I0
I9
I9
I14
tp5
I358
s(I0
I4
I5
I21
tp6
I56
s(I0
I15
I15
I18
tp7
I470
s(I0
I4
I5
I19
tp8
I83
s(I0
I12
I12
I20
tp9
I352
s(I0
I9
I9
I16
tp10
I317
s(I0
I14
I15
I17
tp11
I471
s(I0
I9
I9
I22
tp12
I179
s(I0
I9
I10
I19
tp13
I268
s(I0
I19
I20
I23
tp14
I499
s(I0
I8
I9
I23
tp15
I141
s(I0
I7
I7
I11
tp16
I342
s(I0
I19
I19
I23
tp17
I492
s(I0
I16
I16
I19
tp18
I479
s(I0
I4
I4
I13
tp19
I169
s(I0
I18
I19
I22
tp20
I493
s(I1
I3
I3
I21
tp21
I21
s(I0
I7
I7
I19
tp22
I163
s(I0
I6
I7
I12
tp23
I299
s(I1
I3
I3
I15
tp24
I90
s(I0
I11
I11
I13
tp25
I439
s(I2
I3
I3
I23
tp26
I3
s(I1
I2
I3
I10
tp27
I157
s(I0
I6
I7
I10
tp28
I343
s(I1
I3
I3
I9
tp29
I195
s(I0
I4
I4
I21
tp30
I45
s(I2
I3
I3
I17
tp31
I53
s(I1
I2
I3
I12
tp32
I122
s(I0
I6
I7
I16
tp33
I205
s(I1
I2
I3
I22
tp34
I7
s(I0
I14
I14
I19
tp35
I433
s(I0
I11
I12
I17
tp36
I390
s(I2
I3
I3
I5
tp37
I263
s(I0
I5
I6
I23
tp38
I54
s(I0
I11
I11
I21
tp39
I290
s(I0
I7
I8
I15
tp40
I272
s(I0
I10
I11
I14
tp41
I409
s(I0
I8
I8
I17
tp42
I247
s(I0
I5
I6
I22
tp43
I67
s(I0
I10
I11
I20
tp44
I291
s(I2
I3
I3
I9
tp45
I177
s(I0
I4
I5
I15
tp46
I149
s(I0
I10
I11
I18
tp47
I335
s(I0
I21
I21
I22
tp48
I518
s(I0
I5
I6
I20
tp49
I96
s(I0
I6
I6
I12
tp50
I275
s(I0
I20
I21
I23
tp51
I510
s(I0
I5
I6
I19
tp52
I112
s(I0
I7
I8
I23
tp53
I108
s(I0
I3
I3
I14
tp54
I117
s(I0
I5
I6
I17
tp55
I147
s(I0
I4
I5
I10
tp56
I254
s(I0
I2
I3
I5
tp57
I282
s(I0
I6
I6
I20
tp58
I111
s(I0
I3
I4
I16
tp59
I100
s(I0
I14
I14
I17
tp60
I460
s(I0
I3
I3
I16
tp61
I86
s(I0
I10
I10
I14
tp62
I393
s(I0
I3
I3
I22
tp63
I17
s(I0
I2
I3
I9
tp64
I192
s(I0
I8
I8
I15
tp65
I296
s(I0
I0
I3
I23
tp66
I0
s(I0
I4
I5
I23
tp67
I33
s(I0
I2
I3
I23
tp68
I4
s(I0
I0
I3
I17
tp69
I62
s(I0
I3
I4
I6
tp70
I305
s(I0
I13
I13
I20
tp71
I387
s(I0
I5
I6
I12
tp72
I252
s(I0
I10
I10
I16
tp73
I356
s(I0
I1
I3
I4
tp74
I283
s(I0
I0
I3
I11
tp75
I155
s(I0
I3
I4
I8
tp76
I256
s(I0
I4
I5
I17
tp77
I114
s(I0
I10
I10
I22
tp78
I220
s(I0
I1
I3
I14
tp79
I88
s(I0
I0
I3
I5
tp80
I284
s(I0
I5
I6
I10
tp81
I301
s(I0
I1
I3
I16
tp82
I61
s(I0
I5
I6
I9
tp83
I324
s(I0
I20
I20
I23
tp84
I505
s(I0
I17
I17
I19
tp85
I496
s(I0
I5
I6
I8
tp86
I345
s(I0
I17
I18
I22
tp87
I476
s(I0
I5
I5
I13
tp88
I208
s(I0
I12
I12
I16
tp89
I422
s(I0
I15
I16
I21
tp90
I444
s(I0
I12
I12
I13
tp91
I464
s(I0
I5
I5
I21
tp92
I68
s(I0
I4
I5
I14
tp93
I168
s(I0
I9
I9
I15
tp94
I338
s(I0
I5
I6
I14
tp95
I207
s(I0
I15
I15
I19
tp96
I458
s(I0
I4
I5
I18
tp97
I98
s(I0
I12
I12
I21
tp98
I332
s(I0
I9
I9
I17
tp99
I294
s(I0
I14
I15
I16
tp100
I482
s(I0
I9
I9
I23
tp101
I159
s(I0
I9
I10
I18
tp102
I293
s(I0
I19
I20
I22
tp103
I506
s(I0
I8
I9
I22
tp104
I160
s(I0
I8
I9
I13
tp105
I359
s(I0
I7
I7
I12
tp106
I321
s(I0
I4
I4
I8
tp107
I279
s(I0
I8
I9
I12
tp108
I378
s(I0
I16
I16
I20
tp109
I468
s(I0
I4
I4
I14
tp110
I150
s(I0
I9
I10
I21
tp111
I221
s(I0
I8
I9
I14
tp112
I339
s(I1
I3
I3
I20
tp113
I30
s(I0
I7
I7
I20
tp114
I144
s(I0
I6
I7
I15
tp115
I227
s(I1
I3
I3
I14
tp116
I105
s(I0
I4
I4
I16
tp117
I115
s(I0
I11
I11
I14
tp118
I424
s(I2
I3
I3
I20
tp119
I23
s(I1
I2
I3
I11
tp120
I139
s(I0
I6
I7
I21
tp121
I110
s(I1
I3
I3
I8
tp122
I216
s(I0
I4
I4
I22
tp123
I34
s(I0
I8
I9
I11
tp124
I396
s(I1
I2
I3
I13
tp125
I106
s(I0
I6
I7
I19
tp126
I145
s(I0
I8
I9
I10
tp127
I413
s(I1
I2
I3
I23
tp128
I2
s(I0
I14
I14
I20
tp129
I418
s(I0
I11
I12
I16
tp130
I407
s(I0
I9
I10
I15
tp131
I357
s(I0
I11
I11
I22
tp132
I265
s(I0
I7
I8
I14
tp133
I297
s(I2
I3
I3
I12
tp134
I123
s(I0
I9
I10
I13
tp135
I394
s(I0
I10
I11
I23
tp136
I219
s(I0
I9
I10
I12
tp137
I411
s(I0
I21
I21
I23
tp138
I514
s(I0
I18
I18
I19
tp139
I509
s(I0
I9
I10
I11
tp140
I427
s(I0
I6
I6
I13
tp141
I251
s(I0
I20
I21
I22
tp142
I515
s(I0
I3
I3
I9
tp143
I212
s(I0
I7
I8
I22
tp144
I125
s(I0
I3
I3
I15
tp145
I101
s(I0
I6
I7
I9
tp146
I363
s(I0
I3
I3
I5
tp147
I306
s(I0
I2
I3
I4
tp148
I307
s(I0
I6
I6
I21
tp149
I95
s(I0
I3
I4
I23
tp150
I16
s(I0
I3
I3
I17
tp151
I72
s(I0
I10
I10
I15
tp152
I375
s(I0
I3
I3
I23
tp153
I9
s(I0
I2
I3
I8
tp154
I213
s(I0
I0
I3
I22
tp155
I12
s(I0
I2
I3
I22
tp156
I10
s(I0
I0
I3
I16
tp157
I75
s(I0
I3
I4
I5
tp158
I328
s(I0
I13
I13
I21
tp159
I369
s(I0
I13
I14
I20
tp160
I403
s(I0
I10
I10
I17
tp161
I336
s(I0
I1
I3
I5
tp162
I259
s(I0
I0
I3
I10
tp163
I174
s(I0
I3
I4
I15
tp164
I116
s(I0
I12
I13
I20
tp165
I370
s(I0
I10
I10
I23
tp166
I198
s(I0
I1
I3
I15
tp167
I74
s(I0
I0
I3
I4
tp168
I308
s(I0
I12
I13
I18
tp169
I405
s(I0
I1
I3
I17
tp170
I49
s(I0
I22
I23
I23
tp171
I520
s(I0
I5
I5
I8
tp172
I325
s(I0
I17
I17
I20
tp173
I487
s(I0
I17
I18
I21
tp174
I486
s(I0
I5
I5
I14
tp175
I187
s(I0
I15
I16
I18
tp176
I480
s(I0
I16
I17
I21
tp177
I467
s(I0
I15
I16
I20
tp178
I457
s(I0
I16
I17
I19
tp179
I488
s(I0
I5
I5
I16
tp180
I148
s(I0
I12
I12
I14
tp181
I451
s(I0
I9
I9
I10
tp182
I428
s(I0
I5
I5
I22
tp183
I55
s(I0
I4
I5
I9
tp184
I278
s(I0
I5
I6
I13
tp185
I229
s(I0
I15
I15
I20
tp186
I445
s(I0
I5
I6
I7
tp187
I365
s(I0
I14
I15
I21
tp188
I417
s(I0
I12
I12
I22
tp189
I311
s(I0
I9
I9
I18
tp190
I269
s(I0
I9
I10
I23
tp191
I178
s(I0
I14
I15
I19
tp192
I446
s(I0
I9
I10
I17
tp193
I316
s(I0
I22
I22
I23
tp194
I519
s(I0
I19
I20
I21
tp195
I512
s(I0
I8
I9
I17
tp196
I270
s(I0
I7
I7
I13
tp197
I298
s(I0
I4
I4
I9
tp198
I255
s(I0
I16
I16
I21
tp199
I456
s(I0
I4
I4
I15
tp200
I132
s(I0
I4
I4
I5
tp201
I348
s(I1
I3
I3
I19
tp202
I40
s(I0
I7
I7
I21
tp203
I126
s(I1
I2
I3
I6
tp204
I239
s(I0
I6
I7
I14
tp205
I250
s(I1
I3
I3
I13
tp206
I121
s(I0
I4
I4
I17
tp207
I99
s(I0
I11
I11
I15
tp208
I408
s(I2
I3
I3
I21
tp209
I15
s(I1
I2
I3
I8
tp210
I196
s(I0
I6
I7
I20
tp211
I127
s(I1
I3
I3
I7
tp212
I238
s(I0
I4
I4
I23
tp213
I24
s(I1
I2
I3
I18
tp214
I41
s(I0
I6
I7
I18
tp215
I164
s(I1
I2
I3
I20
tp216
I22
s(I0
I14
I14
I21
tp217
I402
s(I0
I11
I12
I23
tp218
I264
s(I0
I11
I11
I17
tp219
I373
s(I0
I7
I8
I11
tp220
I361
s(I0
I11
I11
I23
tp221
I241
s(I0
I7
I8
I13
tp222
I320
s(I0
I8
I8
I19
tp223
I202
s(I0
I8
I8
I9
tp224
I414
s(I0
I10
I11
I22
tp225
I242
s(I0
I21
I22
I23
tp226
I517
s(I0
I8
I8
I10
tp227
I397
s(I0
I6
I6
I8
tp228
I364
s(I0
I11
I12
I15
tp229
I423
s(I0
I8
I8
I11
tp230
I379
s(I0
I7
I8
I19
tp231
I182
s(I0
I6
I6
I14
tp232
I228
s(I0
I3
I3
I10
tp233
I191
s(I0
I8
I8
I12
tp234
I360
s(I0
I7
I8
I21
tp235
I143
s(I2
I3
I3
I19
tp236
I32
s(I0
I3
I3
I6
tp237
I281
s(I2
I3
I3
I16
tp238
I65
s(I0
I6
I6
I16
tp239
I185
s(I0
I13
I13
I14
tp240
I474
s(I0
I2
I3
I7
tp241
I235
s(I0
I6
I6
I22
tp242
I80
s(I0
I3
I4
I22
tp243
I25
s(I0
I3
I3
I18
tp244
I59
s(I0
I2
I3
I13
tp245
I118
s(I0
I2
I3
I11
tp246
I153
s(I0
I0
I3
I21
tp247
I20
s(I0
I13
I13
I16
tp248
I449
s(I0
I2
I3
I17
tp249
I60
s(I0
I0
I3
I15
tp250
I89
s(I0
I13
I13
I22
tp251
I350
s(I0
I13
I14
I19
tp252
I419
s(I0
I10
I10
I18
tp253
I315
s(I0
I1
I3
I10
tp254
I154
s(I0
I0
I3
I9
tp255
I194
s(I0
I3
I4
I14
tp256
I133
s(I0
I12
I13
I23
tp257
I310
s(I0
I1
I3
I12
tp258
I119
s(I0
I23
I23
I23
tp259
I521
s(I0
I1
I3
I22
tp260
I5
s(I0
I5
I5
I9
tp261
I302
s(I0
I17
I17
I21
tp262
I477
s(I0
I17
I18
I20
tp263
I495
s(I0
I5
I5
I15
tp264
I167
s(I0
I15
I16
I17
tp265
I490
s(I0
I16
I17
I20
tp266
I478
s(I0
I16
I17
I18
tp267
I497
s(I0
I11
I11
I16
tp268
I391
s(I0
I5
I5
I17
tp269
I130
s(I0
I12
I12
I15
tp270
I437
s(I0
I9
I9
I11
tp271
I412
s(I0
I5
I5
I23
tp272
I43
s(I0
I5
I6
I18
tp273
I129
s(I0
I4
I5
I22
tp274
I44
s(I0
I15
I15
I21
tp275
I431
s(I0
I12
I12
I17
tp276
I406
s(I0
I14
I15
I20
tp277
I432
s(I0
I12
I12
I23
tp278
I288
s(I0
I9
I9
I19
tp279
I245
s(I0
I9
I10
I22
tp280
I199
s(I0
I14
I15
I18
tp281
I459
s(I2
I3
I3
I14
tp282
I92
s(I0
I9
I10
I16
tp283
I337
s(I0
I7
I7
I8
tp284
I399
s(I2
I3
I3
I15
tp285
I78
s(I0
I8
I9
I16
tp286
I295
s(I0
I19
I19
I20
tp287
I513
s(I0
I7
I7
I14
tp288
I273
s(I0
I8
I8
I18
tp289
I224
s(I0
I4
I4
I10
tp290
I232
s(I0
I18
I19
I21
tp291
I501
s(I0
I16
I16
I22
tp292
I443
s(I2
I3
I3
I13
tp293
I107
s(I2
I3
I3
I10
tp294
I158
s(I0
I4
I4
I6
tp295
I327
s(I0
I7
I7
I16
tp296
I226
s(I0
I8
I8
I21
tp297
I161
s(I1
I3
I3
I18
tp298
I51
s(I0
I7
I7
I22
tp299
I109
s(I1
I2
I3
I7
tp300
I217
s(I0
I8
I8
I22
tp301
I142
s(I1
I3
I3
I12
tp302
I138
s(I0
I4
I4
I18
tp303
I84
s(I2
I3
I3
I18
tp304
I42
s(I1
I2
I3
I9
tp305
I176
s(I0
I6
I7
I23
tp306
I79
s(I1
I3
I3
I6
tp307
I261
s(I1
I2
I3
I19
tp308
I31
s(I0
I14
I14
I16
tp309
I472
s(I2
I3
I3
I6
tp310
I240
s(I1
I2
I3
I21
tp311
I14
s(I0
I14
I14
I22
tp312
I385
s(I0
I11
I12
I22
tp313
I289
s(I0
I11
I11
I18
tp314
I354
s(I0
I7
I8
I10
tp315
I380
s(I0
I10
I11
I13
tp316
I425
s(I0
I7
I8
I12
tp317
I341
s(I0
I8
I8
I20
tp318
I181
s(I0
I8
I8
I23
tp319
I124
s(I0
I10
I11
I17
tp320
I355
s(I0
I6
I6
I9
tp321
I344
s(I0
I11
I12
I14
tp322
I438
s(I0
I7
I8
I18
tp323
I203
s(I0
I6
I6
I15
tp324
I206
s(I0
I3
I3
I11
tp325
I171
s(I0
I7
I8
I20
tp326
I162
s(I0
I3
I3
I7
tp327
I257
s(I0
I6
I6
I17
tp328
I165
s(I0
I3
I4
I19
tp329
I58
s(I0
I13
I13
I15
tp330
I462
s(I0
I2
I3
I6
tp331
I258
s(I0
I18
I18
I20
tp332
I502
s(I0
I6
I6
I23
tp333
I66
s(I0
I3
I4
I21
tp334
I35
s(I0
I3
I3
I19
tp335
I47
s(I0
I2
I3
I12
tp336
I135
s(I0
I18
I18
I22
tp337
I485
s(I0
I2
I3
I10
tp338
I172
s(I0
I0
I3
I20
tp339
I29
s(I0
I13
I13
I17
tp340
I435
s(I0
I2
I3
I16
tp341
I73
s(I0
I0
I3
I14
tp342
I104
s(I0
I3
I3
I8
tp343
I234
s(I0
I13
I13
I23
tp344
I330
s(I0
I13
I14
I18
tp345
I434
s(I0
I10
I10
I19
tp346
I292
s(I0
I1
I3
I11
tp347
I136
s(I0
I0
I3
I8
tp348
I215
s(I0
I3
I4
I13
tp349
I151
s(I0
I12
I13
I22
tp350
I331
s(I0
I1
I3
I13
tp351
I103
s(I0
I1
I3
I23
tp352
I1
s(I0
I5
I5
I10
tp353
I277
s(I0
I17
I17
I22
tp354
I466
s(I0
I17
I18
I19
tp355
I503
s(I0
I16
I17
I23
tp356
I442
s(I0
I4
I5
I8
tp357
I303
s(I0
I5
I5
I6
tp358
I366
s(I0
I4
I5
I7
tp359
I326
s(I0
I5
I5
I18
tp360
I113
s(I0
I4
I5
I13
tp361
I188
s(I0
I9
I9
I12
tp362
I395
s(I0
I4
I5
I11
tp363
I231
s(I0
I18
I18
I21
tp364
I494
s(I0
I15
I15
I16
tp365
I491
s(I0
I12
I13
I19
tp366
I388
s(I0
I5
I6
I11
tp367
I276
s(I0
I15
I16
I19
tp368
I469
s(I0
I5
I6
I15
tp369
I186
s(I0
I15
I15
I22
tp370
I416
s(I0
I12
I12
I18
tp371
I389
s(I0
I14
I15
I23
tp372
I384
s(I0
I3
I3
I4
tp373
I329
s(I0
I9
I9
I20
tp374
I222
s(I0
I8
I9
I15
tp375
I318
s(I0
I8
I9
I21
tp376
I180
s(I0
I7
I7
I9
tp377
I381
s(I0
I8
I9
I19
tp378
I223
s(I0
I19
I19
I21
tp379
I507
s(I0
I16
I16
I17
tp380
I498
s(I0
I7
I7
I15
tp381
I249
s(I0
I4
I4
I11
tp382
I210
s(I0
I18
I19
I20
tp383
I508
s(I0
I16
I16
I23
tp384
I429
s(I1
I3
I3
I23
tp385
I6
s(I0
I4
I4
I7
tp386
I304
s(I0
I7
I7
I17
tp387
I204
s(I0
I14
I14
I15
tp388
I483
s(I1
I3
I3
I17
tp389
I63
s(I0
I7
I7
I23
tp390
I93
s(I1
I2
I3
I4
tp391
I286
s(I0
I6
I7
I8
tp392
I382
s(I1
I3
I3
I11
tp393
I156
s(I0
I4
I4
I19
tp394
I70
s(I0
I8
I8
I13
tp395
I340
s(I1
I2
I3
I14
tp396
I91
s(I0
I6
I7
I22
tp397
I94
s(I1
I3
I3
I5
tp398
I285
s(I1
I2
I3
I16
tp399
I64
s(I0
I9
I10
I14
tp400
I376
s(I0
I11
I12
I19
tp401
I353
s(I0
I10
I10
I11
tp402
I441
s(I2
I3
I3
I7
tp403
I218
s(I0
I14
I14
I23
tp404
I367
s(I0
I11
I12
I21
tp405
I312
s(I0
I11
I11
I19
tp406
I334
s(I0
I7
I8
I9
tp407
I398
s(I0
I10
I11
I12
tp408
I440
s(I2
I3
I3
I11
tp409
I140
s(I0
I10
I11
I16
tp410
I374
s(I0
I6
I6
I10
tp411
I323
s(I0
I11
I12
I13
tp412
I452
s(I0
I7
I8
I17
tp413
I225
s(I0
I3
I3
I12
tp414
I152
s(I0
I6
I6
I18
tp415
I146
s(I0
I3
I4
I18
tp416
I71
s(I0
I10
I10
I12
tp417
I426
s(I0
I3
I4
I20
tp418
I46
s(I0
I3
I3
I20
tp419
I36
s(I0
I2
I3
I15
tp420
I87
s(I0
I2
I3
I21
tp421
I18
s(I0
I0
I3
I19
tp422
I39
s(I0
I13
I13
I18
tp423
I420
s(I0
I13
I14
I23
tp424
I349
s(I0
I2
I3
I19
tp425
I37
s(I0
I1
I3
I6
tp426
I236
s(I0
I0
I3
I13
tp427
I120
s(I0
I3
I4
I10
tp428
I211
s(I0
I13
I14
I17
tp429
I448
s(I0
I10
I10
I20
tp430
I267
s(I0
I1
I3
I8
tp431
I193
s(I0
I0
I3
I7
tp432
I237
s(I0
I3
I4
I12
tp433
I170
s(I0
I12
I13
I17
tp434
I421
s(I0
I1
I3
I18
tp435
I38
s(I0
I1
I3
I20
tp436
I19
s(I0
I20
I20
I21
tp437
I516
s(I0
I5
I5
I11
tp438
I253
s(I0
I17
I17
I23
tp439
I454
s(I0
I15
I16
I23
tp440
I415
s(I0
I16
I17
I22
tp441
I455
s(I0
I5
I5
I7
tp442
I346
s(I0
I4
I5
I6
tp443
I347
s(I0
I13
I14
I21
tp444
I386
s(I0
I5
I5
I19
tp445
I97
s(I0
I4
I5
I12
tp446
I209
s(I0
I9
I9
I13
tp447
I377
s(I0
I12
I13
I14
tp448
I463
s(I0
I3
I4
I11
tp449
I190
s(I0
I5
I6
I16
tp450
I166
s(I0
I15
I15
I17
tp451
I481
s(I0
I4
I5
I16
tp452
I131
s(I0
I15
I15
I23
tp453
I400
s(I0
I12
I12
I19
tp454
I371
s(I0
I14
I15
I22
tp455
I401
s(I0
I9
I9
I21
tp456
I200
s(I0
I9
I10
I20
tp457
I244
s(I0
I8
I9
I20
tp458
I201
s(I0
I12
I13
I21
tp459
I351
s(I0
I7
I7
I10
tp460
I362
s(I0
I8
I9
I18
tp461
I246
s(I0
I19
I19
I22
tp462
I500
s(I0
I16
I16
I18
tp463
I489
s(I0
I4
I4
I12
tp464
I189
s(I0
I18
I19
I23
tp465
I484
s(I1
I3
I3
I22
tp466
I13
s(I0
I7
I7
I18
tp467
I183
s(I0
I6
I7
I13
tp468
I274
s(I1
I3
I3
I16
tp469
I76
s(I0
I11
I11
I12
tp470
I453
s(I2
I3
I3
I22
tp471
I8
s(I1
I2
I3
I5
tp472
I262
s(I0
I6
I7
I11
tp473
I322
s(I1
I3
I3
I10
tp474
I175
s(I0
I4
I4
I20
tp475
I57
s(I0
I8
I8
I14
tp476
I319
s(I1
I2
I3
I15
tp477
I77
s(I0
I6
I7
I17
tp478
I184
s(I1
I3
I3
I4
tp479
I309
s(I0
I4
I5
I20
tp480
I69
s(I1
I2
I3
I17
tp481
I52
s(I0
I14
I14
I18
tp482
I447
s(I0
I11
I12
I18
tp483
I372
s(I2
I3
I3
I4
tp484
I287
s(I0
I11
I12
I20
tp485
I333
s(I0
I11
I11
I20
tp486
I313
s(I0
I10
I11
I15
tp487
I392
s(I0
I8
I8
I16
tp488
I271
s(I0
I10
I11
I21
tp489
I266
s(I2
I3
I3
I8
tp490
I197
s(I0
I10
I11
I19
tp491
I314
s(I0
I6
I6
I11
tp492
I300
s(I0
I18
I18
I23
tp493
I475
s(I0
I7
I8
I16
tp494
I248
s(I0
I3
I3
I13
tp495
I134
s(I0
I6
I6
I7
tp496
I383
s(I0
I13
I14
I15
tp497
I473
s(I0
I6
I6
I19
tp498
I128
s(I0
I3
I4
I17
tp499
I85
s(I0
I12
I13
I15
tp500
I450
s(I0
I10
I10
I13
tp501
I410
s(I0
I3
I3
I21
tp502
I26
s(I0
I2
I3
I14
tp503
I102
s(I0
I2
I3
I20
tp504
I27
s(I0
I0
I3
I18
tp505
I50
s(I0
I3
I4
I7
tp506
I280
s(I0
I13
I13
I19
tp507
I404
s(I0
I13
I14
I22
tp508
I368
s(I0
I2
I3
I18
tp509
I48
s(I0
I1
I3
I7
tp510
I214
s(I0
I0
I3
I12
tp511
I137
s(I0
I3
I4
I9
tp512
I233
s(I0
I13
I14
I16
tp513
I461
s(I0
I10
I10
I21
tp514
I243
s(I0
I1
I3
I9
tp515
I173
s(I0
I0
I3
I6
tp516
I260
s(I0
I12
I13
I16
tp517
I436
s(I0
I1
I3
I19
tp518
I28
s(I0
I1
I3
I21
tp519
I11
s(I0
I20
I20
I22
tp520
I511
s(I0
I17
I17
I18
tp521
I504
s(I0
I17
I18
I23
tp522
I465
s(I0
I5
I5
I12
tp523
I230
s.