(dp1
(I0
I8
I9
I10
tp2
I367
s(I0
I2
I2
I14
tp3
I70
s(I0
I15
I16
I22
tp4
I382
s(I1
I2
I2
I22
tp5
I2
s(I0
I2
I2
I4
tp6
I245
s(I1
I2
I2
I16
tp7
I40
s(I1
I2
I2
I10
tp8
I115
s(I0
I5
I5
I20
tp9
I64
s(I0
I5
I6
I21
tp10
I63
s(I0
I2
I2
I16
tp11
I47
s(I0
I9
I9
I14
tp12
I315
s(I1
I2
I2
I4
tp13
I226
s(I0
I12
I13
I14
tp14
I413
s(I0
I4
I5
I21
tp15
I42
s(I0
I2
I2
I22
tp16
I3
s(I0
I15
I15
I18
tp17
I419
s(I0
I4
I5
I19
tp18
I65
s(I0
I0
I2
I19
tp19
I22
s(I0
I12
I12
I20
tp20
I309
s(I0
I9
I9
I16
tp21
I276
s(I0
I0
I2
I4
tp22
I247
s(I0
I14
I15
I17
tp23
I420
s(I0
I9
I9
I22
tp24
I149
s(I0
I0
I2
I14
tp25
I72
s(I0
I0
I2
I16
tp26
I49
s(I0
I7
I7
I11
tp27
I300
s(I0
I16
I16
I19
tp28
I427
s(I0
I4
I4
I13
tp29
I141
s(I0
I18
I19
I22
tp30
I439
s(I0
I7
I7
I19
tp31
I135
s(I0
I6
I7
I12
tp32
I259
s(I0
I11
I11
I13
tp33
I391
s(I0
I8
I8
I9
tp34
I368
s(I0
I6
I7
I10
tp35
I301
s(I0
I4
I4
I21
tp36
I33
s(I0
I8
I8
I15
tp37
I256
s(I0
I6
I7
I16
tp38
I173
s(I0
I1
I2
I18
tp39
I21
s(I0
I14
I14
I19
tp40
I385
s(I0
I11
I12
I17
tp41
I345
s(I0
I1
I2
I12
tp42
I84
s(I0
I11
I11
I21
tp43
I250
s(I0
I7
I8
I15
tp44
I234
s(I0
I10
I11
I14
tp45
I363
s(I0
I8
I8
I17
tp46
I211
s(I0
I5
I6
I22
tp47
I51
s(I0
I10
I11
I20
tp48
I251
s(I0
I4
I5
I17
tp49
I92
s(I0
I4
I5
I15
tp50
I123
s(I0
I10
I11
I18
tp51
I293
s(I0
I21
I21
I22
tp52
I459
s(I0
I5
I6
I20
tp53
I76
s(I0
I6
I6
I12
tp54
I237
s(I0
I5
I6
I19
tp55
I90
s(I0
I3
I3
I14
tp56
I95
s(I0
I5
I6
I17
tp57
I121
s(I0
I4
I5
I10
tp58
I218
s(I0
I2
I3
I5
tp59
I244
s(I0
I6
I6
I20
tp60
I89
s(I0
I3
I4
I16
tp61
I80
s(I0
I3
I3
I16
tp62
I68
s(I0
I10
I10
I14
tp63
I348
s(I0
I3
I3
I22
tp64
I11
s(I0
I2
I3
I9
tp65
I162
s(I0
I3
I4
I6
tp66
I265
s(I0
I13
I13
I20
tp67
I342
s(I0
I5
I6
I12
tp68
I216
s(I0
I10
I10
I16
tp69
I313
s(I0
I3
I4
I8
tp70
I220
s(I0
I12
I13
I21
tp71
I308
s(I0
I10
I10
I22
tp72
I186
s(I0
I5
I6
I10
tp73
I261
s(I0
I5
I6
I9
tp74
I283
s(I0
I17
I17
I19
tp75
I442
s(I0
I4
I5
I18
tp76
I78
s(I0
I17
I18
I22
tp77
I424
s(I0
I5
I5
I13
tp78
I176
s(I0
I2
I2
I9
tp79
I145
s(I0
I12
I12
I16
tp80
I375
s(I0
I2
I2
I15
tp81
I58
s(I0
I15
I16
I21
tp82
I395
s(I1
I2
I2
I21
tp83
I5
s(I0
I2
I2
I5
tp84
I223
s(I1
I2
I2
I15
tp85
I50
s(I0
I12
I12
I13
tp86
I414
s(I1
I2
I2
I9
tp87
I131
s(I0
I5
I5
I21
tp88
I52
s(I0
I4
I5
I14
tp89
I140
s(I0
I2
I2
I17
tp90
I37
s(I0
I9
I9
I15
tp91
I296
s(I1
I2
I2
I3
tp92
I248
s(I0
I5
I6
I14
tp93
I175
s(I0
I15
I15
I19
tp94
I408
s(I0
I5
I6
I8
tp95
I303
s(I0
I0
I2
I3
tp96
I269
s(I0
I12
I12
I21
tp97
I290
s(I0
I9
I9
I17
tp98
I254
s(I0
I0
I2
I5
tp99
I225
s(I0
I14
I15
I16
tp100
I430
s(I0
I9
I10
I18
tp101
I253
s(I0
I22
I22
I22
tp102
I461
s(I0
I19
I20
I22
tp103
I450
s(I0
I0
I2
I17
tp104
I39
s(I0
I0
I2
I10
tp105
I130
s(I0
I7
I7
I12
tp106
I280
s(I0
I4
I4
I8
tp107
I241
s(I0
I9
I10
I22
tp108
I167
s(I0
I16
I16
I20
tp109
I417
s(I0
I4
I4
I14
tp110
I124
s(I0
I0
I2
I8
tp111
I165
s(I0
I9
I10
I20
tp112
I208
s(I0
I9
I10
I19
tp113
I230
s(I0
I7
I7
I20
tp114
I118
s(I0
I6
I7
I15
tp115
I193
s(I0
I4
I4
I16
tp116
I93
s(I0
I0
I2
I15
tp117
I60
s(I0
I8
I8
I10
tp118
I352
s(I0
I6
I7
I21
tp119
I88
s(I0
I4
I4
I22
tp120
I24
s(I0
I9
I10
I17
tp121
I275
s(I0
I6
I7
I19
tp122
I119
s(I0
I9
I10
I16
tp123
I295
s(I0
I1
I2
I17
tp124
I29
s(I0
I14
I14
I20
tp125
I371
s(I0
I11
I12
I16
tp126
I361
s(I0
I9
I10
I15
tp127
I314
s(I0
I1
I2
I11
tp128
I98
s(I0
I9
I10
I14
tp129
I332
s(I0
I7
I8
I14
tp130
I257
s(I0
I8
I8
I18
tp131
I190
s(I0
I9
I10
I13
tp132
I349
s(I0
I8
I9
I22
tp133
I132
s(I0
I18
I18
I19
tp134
I453
s(I0
I0
I2
I22
tp135
I0
s(I0
I6
I6
I13
tp136
I215
s(I0
I20
I21
I22
tp137
I457
s(I0
I3
I3
I9
tp138
I180
s(I0
I7
I8
I22
tp139
I101
s(I0
I3
I3
I15
tp140
I81
s(I0
I0
I2
I20
tp141
I15
s(I0
I3
I3
I5
tp142
I266
s(I0
I0
I2
I21
tp143
I9
s(I0
I2
I3
I4
tp144
I267
s(I0
I6
I6
I21
tp145
I75
s(I0
I3
I3
I17
tp146
I56
s(I0
I10
I10
I15
tp147
I331
s(I0
I2
I3
I8
tp148
I181
s(I0
I2
I3
I22
tp149
I6
s(I0
I3
I4
I5
tp150
I287
s(I0
I13
I13
I21
tp151
I325
s(I0
I13
I14
I20
tp152
I357
s(I0
I10
I10
I17
tp153
I294
s(I0
I3
I4
I15
tp154
I94
s(I0
I12
I13
I20
tp155
I326
s(I0
I12
I13
I18
tp156
I359
s(I0
I9
I10
I21
tp157
I187
s(I0
I5
I5
I8
tp158
I284
s(I0
I17
I17
I20
tp159
I434
s(I0
I17
I18
I21
tp160
I433
s(I0
I5
I5
I14
tp161
I157
s(I0
I2
I2
I10
tp162
I128
s(I0
I15
I16
I18
tp163
I428
s(I0
I16
I17
I21
tp164
I416
s(I0
I15
I16
I20
tp165
I407
s(I0
I16
I17
I19
tp166
I435
s(I1
I2
I2
I20
tp167
I10
s(I0
I2
I2
I6
tp168
I202
s(I1
I2
I2
I14
tp169
I61
s(I0
I5
I5
I16
tp170
I122
s(I0
I12
I12
I14
tp171
I402
s(I0
I9
I9
I10
tp172
I381
s(I1
I2
I2
I8
tp173
I148
s(I0
I5
I5
I22
tp174
I41
s(I0
I4
I5
I9
tp175
I240
s(I0
I2
I2
I18
tp176
I28
s(I0
I5
I6
I13
tp177
I195
s(I0
I15
I15
I20
tp178
I396
s(I0
I5
I6
I7
tp179
I322
s(I0
I14
I15
I21
tp180
I370
s(I0
I12
I12
I22
tp181
I270
s(I0
I9
I9
I18
tp182
I231
s(I0
I8
I9
I13
tp183
I316
s(I0
I14
I15
I19
tp184
I397
s(I0
I0
I2
I12
tp185
I99
s(I0
I19
I20
I21
tp186
I455
s(I0
I8
I9
I17
tp187
I232
s(I0
I7
I7
I13
tp188
I258
s(I0
I4
I4
I9
tp189
I219
s(I0
I16
I16
I21
tp190
I406
s(I0
I4
I4
I15
tp191
I108
s(I0
I4
I4
I5
tp192
I306
s(I0
I7
I7
I21
tp193
I102
s(I0
I6
I7
I14
tp194
I214
s(I0
I4
I4
I17
tp195
I79
s(I0
I11
I11
I15
tp196
I362
s(I0
I8
I8
I11
tp197
I335
s(I0
I6
I7
I20
tp198
I103
s(I0
I8
I9
I12
tp199
I334
s(I0
I1
I2
I22
tp200
I1
s(I0
I6
I7
I18
tp201
I136
s(I0
I1
I2
I16
tp202
I38
s(I0
I14
I14
I21
tp203
I356
s(I0
I11
I11
I17
tp204
I329
s(I0
I7
I8
I11
tp205
I318
s(I0
I1
I2
I10
tp206
I113
s(I0
I11
I11
I14
tp207
I377
s(I0
I7
I8
I13
tp208
I279
s(I0
I1
I2
I4
tp209
I224
s(I0
I10
I11
I22
tp210
I206
s(I0
I6
I6
I8
tp211
I321
s(I0
I11
I12
I15
tp212
I376
s(I0
I7
I8
I19
tp213
I152
s(I0
I6
I6
I14
tp214
I194
s(I0
I3
I3
I10
tp215
I161
s(I0
I7
I8
I21
tp216
I117
s(I0
I3
I3
I6
tp217
I243
s(I0
I6
I6
I16
tp218
I155
s(I0
I13
I13
I14
tp219
I423
s(I0
I2
I3
I7
tp220
I201
s(I0
I6
I6
I22
tp221
I62
s(I0
I3
I4
I22
tp222
I17
s(I0
I3
I3
I18
tp223
I45
s(I0
I2
I3
I13
tp224
I96
s(I0
I2
I3
I11
tp225
I127
s(I0
I13
I13
I16
tp226
I400
s(I0
I2
I3
I17
tp227
I46
s(I0
I13
I13
I22
tp228
I307
s(I0
I13
I14
I19
tp229
I372
s(I0
I10
I10
I18
tp230
I274
s(I0
I3
I4
I14
tp231
I109
s(I0
I5
I5
I9
tp232
I262
s(I0
I17
I17
I21
tp233
I425
s(I0
I17
I18
I20
tp234
I441
s(I0
I5
I5
I15
tp235
I139
s(I0
I2
I2
I11
tp236
I112
s(I0
I15
I16
I17
tp237
I437
s(I0
I16
I17
I20
tp238
I426
s(I0
I16
I17
I18
tp239
I443
s(I1
I2
I2
I19
tp240
I16
s(I0
I11
I11
I16
tp241
I346
s(I0
I2
I2
I7
tp242
I182
s(I1
I2
I2
I13
tp243
I73
s(I0
I5
I5
I17
tp244
I106
s(I0
I12
I12
I15
tp245
I389
s(I0
I9
I9
I11
tp246
I366
s(I1
I2
I2
I7
tp247
I166
s(I0
I5
I6
I18
tp248
I105
s(I0
I2
I2
I19
tp249
I20
s(I0
I4
I5
I22
tp250
I32
s(I0
I15
I15
I21
tp251
I383
s(I0
I13
I14
I21
tp252
I341
s(I0
I12
I12
I17
tp253
I360
s(I0
I14
I15
I20
tp254
I384
s(I0
I9
I9
I19
tp255
I209
s(I0
I0
I2
I11
tp256
I114
s(I0
I14
I15
I18
tp257
I409
s(I0
I11
I11
I22
tp258
I227
s(I0
I1
I2
I7
tp259
I164
s(I0
I0
I2
I13
tp260
I85
s(I0
I7
I7
I8
tp261
I354
s(I0
I1
I2
I6
tp262
I183
s(I0
I8
I9
I16
tp263
I255
s(I0
I19
I19
I20
tp264
I456
s(I0
I7
I7
I14
tp265
I235
s(I0
I1
I2
I5
tp266
I203
s(I0
I4
I4
I10
tp267
I198
s(I0
I18
I19
I21
tp268
I446
s(I0
I16
I16
I22
tp269
I394
s(I0
I8
I8
I19
tp270
I170
s(I0
I8
I8
I20
tp271
I151
s(I0
I4
I4
I6
tp272
I286
s(I0
I7
I7
I16
tp273
I192
s(I0
I7
I7
I22
tp274
I87
s(I0
I6
I7
I9
tp275
I320
s(I0
I4
I4
I18
tp276
I66
s(I0
I8
I8
I12
tp277
I317
s(I0
I1
I2
I21
tp278
I4
s(I0
I14
I14
I16
tp279
I421
s(I0
I1
I2
I15
tp280
I48
s(I0
I14
I14
I22
tp281
I340
s(I0
I11
I12
I22
tp282
I249
s(I0
I11
I11
I18
tp283
I311
s(I0
I7
I8
I10
tp284
I336
s(I0
I10
I11
I13
tp285
I378
s(I0
I1
I2
I9
tp286
I129
s(I0
I7
I8
I12
tp287
I299
s(I0
I1
I2
I3
tp288
I246
s(I0
I10
I11
I17
tp289
I312
s(I0
I21
I22
I22
tp290
I460
s(I0
I6
I6
I9
tp291
I302
s(I0
I11
I12
I14
tp292
I390
s(I0
I7
I8
I18
tp293
I171
s(I0
I6
I6
I15
tp294
I174
s(I0
I3
I3
I11
tp295
I143
s(I0
I7
I8
I20
tp296
I134
s(I0
I3
I3
I7
tp297
I221
s(I0
I6
I6
I17
tp298
I137
s(I0
I3
I4
I19
tp299
I44
s(I0
I13
I13
I15
tp300
I412
s(I0
I2
I3
I6
tp301
I222
s(I0
I18
I18
I20
tp302
I447
s(I0
I3
I4
I21
tp303
I25
s(I0
I3
I3
I19
tp304
I35
s(I0
I2
I3
I12
tp305
I111
s(I0
I18
I18
I22
tp306
I432
s(I0
I2
I3
I10
tp307
I144
s(I0
I13
I13
I17
tp308
I387
s(I0
I2
I3
I16
tp309
I57
s(I0
I3
I3
I8
tp310
I200
s(I0
I13
I14
I18
tp311
I386
s(I0
I10
I10
I19
tp312
I252
s(I0
I3
I4
I13
tp313
I125
s(I0
I12
I13
I22
tp314
I289
s(I0
I5
I5
I10
tp315
I239
s(I0
I17
I17
I22
tp316
I415
s(I0
I17
I18
I19
tp317
I448
s(I0
I2
I2
I12
tp318
I97
s(I0
I4
I5
I8
tp319
I263
s(I0
I5
I5
I6
tp320
I323
s(I1
I2
I2
I18
tp321
I23
s(I0
I4
I5
I7
tp322
I285
s(I1
I2
I2
I12
tp323
I86
s(I0
I5
I5
I18
tp324
I91
s(I0
I4
I5
I13
tp325
I158
s(I0
I9
I9
I12
tp326
I350
s(I1
I2
I2
I6
tp327
I185
s(I0
I4
I5
I11
tp328
I197
s(I0
I2
I2
I20
tp329
I13
s(I0
I18
I18
I21
tp330
I440
s(I0
I15
I15
I16
tp331
I438
s(I0
I12
I13
I19
tp332
I343
s(I0
I5
I6
I11
tp333
I238
s(I0
I5
I6
I15
tp334
I156
s(I0
I15
I15
I22
tp335
I369
s(I0
I12
I12
I18
tp336
I344
s(I0
I0
I2
I6
tp337
I204
s(I0
I3
I3
I4
tp338
I288
s(I0
I9
I9
I20
tp339
I188
s(I0
I8
I9
I15
tp340
I277
s(I0
I8
I9
I21
tp341
I150
s(I0
I7
I7
I9
tp342
I337
s(I0
I8
I9
I19
tp343
I189
s(I0
I19
I19
I21
tp344
I451
s(I0
I16
I16
I17
tp345
I444
s(I0
I7
I7
I15
tp346
I213
s(I0
I4
I4
I11
tp347
I178
s(I0
I18
I19
I20
tp348
I452
s(I0
I4
I4
I7
tp349
I264
s(I0
I7
I7
I17
tp350
I172
s(I0
I14
I14
I15
tp351
I431
s(I0
I6
I7
I8
tp352
I338
s(I0
I4
I4
I19
tp353
I54
s(I0
I8
I8
I13
tp354
I298
s(I0
I6
I7
I22
tp355
I74
s(I0
I1
I2
I20
tp356
I8
s(I0
I14
I14
I17
tp357
I410
s(I0
I11
I12
I19
tp358
I310
s(I0
I10
I10
I11
tp359
I393
s(I0
I1
I2
I14
tp360
I59
s(I0
I11
I12
I21
tp361
I271
s(I0
I11
I11
I19
tp362
I292
s(I0
I7
I8
I9
tp363
I353
s(I0
I10
I11
I12
tp364
I392
s(I0
I1
I2
I8
tp365
I146
s(I0
I8
I9
I14
tp366
I297
s(I0
I8
I8
I21
tp367
I133
s(I0
I10
I11
I16
tp368
I330
s(I0
I6
I6
I10
tp369
I282
s(I0
I11
I12
I13
tp370
I403
s(I0
I7
I8
I17
tp371
I191
s(I0
I3
I3
I12
tp372
I126
s(I0
I6
I6
I18
tp373
I120
s(I0
I3
I4
I18
tp374
I55
s(I0
I10
I10
I12
tp375
I379
s(I0
I3
I4
I20
tp376
I34
s(I0
I3
I3
I20
tp377
I26
s(I0
I2
I3
I15
tp378
I69
s(I0
I2
I3
I21
tp379
I12
s(I0
I13
I13
I18
tp380
I373
s(I0
I2
I3
I19
tp381
I27
s(I0
I3
I4
I10
tp382
I179
s(I0
I13
I14
I17
tp383
I399
s(I0
I10
I10
I20
tp384
I229
s(I0
I3
I4
I12
tp385
I142
s(I0
I12
I13
I17
tp386
I374
s(I0
I20
I20
I21
tp387
I458
s(I0
I5
I5
I11
tp388
I217
s(I0
I2
I2
I13
tp389
I83
s(I0
I16
I17
I22
tp390
I405
s(I0
I5
I5
I7
tp391
I304
s(I0
I2
I2
I3
tp392
I268
s(I1
I2
I2
I17
tp393
I31
s(I0
I4
I5
I6
tp394
I305
s(I1
I2
I2
I11
tp395
I100
s(I0
I5
I5
I19
tp396
I77
s(I0
I4
I5
I12
tp397
I177
s(I0
I9
I9
I13
tp398
I333
s(I1
I2
I2
I5
tp399
I205
s(I0
I3
I4
I11
tp400
I160
s(I0
I5
I6
I16
tp401
I138
s(I0
I2
I2
I21
tp402
I7
s(I0
I15
I15
I17
tp403
I429
s(I0
I4
I5
I16
tp404
I107
s(I0
I12
I12
I19
tp405
I327
s(I0
I0
I2
I7
tp406
I184
s(I0
I14
I15
I22
tp407
I355
s(I0
I9
I10
I12
tp408
I365
s(I0
I9
I9
I21
tp409
I168
s(I0
I0
I2
I9
tp410
I147
s(I0
I8
I9
I20
tp411
I169
s(I0
I13
I14
I15
tp412
I422
s(I0
I7
I7
I10
tp413
I319
s(I0
I8
I9
I18
tp414
I210
s(I0
I19
I19
I22
tp415
I445
s(I0
I16
I16
I18
tp416
I436
s(I0
I4
I4
I12
tp417
I159
s(I0
I7
I7
I18
tp418
I153
s(I0
I6
I7
I13
tp419
I236
s(I0
I11
I11
I12
tp420
I404
s(I0
I6
I7
I11
tp421
I281
s(I0
I4
I4
I20
tp422
I43
s(I0
I8
I8
I14
tp423
I278
s(I0
I6
I7
I17
tp424
I154
s(I0
I4
I5
I20
tp425
I53
s(I0
I1
I2
I19
tp426
I14
s(I0
I14
I14
I18
tp427
I398
s(I0
I11
I12
I18
tp428
I328
s(I0
I1
I2
I13
tp429
I71
s(I0
I11
I12
I20
tp430
I291
s(I0
I11
I11
I20
tp431
I272
s(I0
I10
I11
I15
tp432
I347
s(I0
I8
I8
I16
tp433
I233
s(I0
I10
I11
I21
tp434
I228
s(I0
I8
I8
I22
tp435
I116
s(I0
I9
I10
I11
tp436
I380
s(I0
I10
I11
I19
tp437
I273
s(I0
I6
I6
I11
tp438
I260
s(I0
I8
I9
I11
tp439
I351
s(I0
I7
I8
I16
tp440
I212
s(I0
I3
I3
I13
tp441
I110
s(I0
I6
I6
I7
tp442
I339
s(I0
I6
I6
I19
tp443
I104
s(I0
I3
I4
I17
tp444
I67
s(I0
I12
I13
I15
tp445
I401
s(I0
I10
I10
I13
tp446
I364
s(I0
I3
I3
I21
tp447
I18
s(I0
I2
I3
I14
tp448
I82
s(I0
I0
I2
I18
tp449
I30
s(I0
I2
I3
I20
tp450
I19
s(I0
I3
I4
I7
tp451
I242
s(I0
I13
I13
I19
tp452
I358
s(I0
I13
I14
I22
tp453
I324
s(I0
I2
I3
I18
tp454
I36
s(I0
I3
I4
I9
tp455
I199
s(I0
I13
I14
I16
tp456
I411
s(I0
I10
I10
I21
tp457
I207
s(I0
I12
I13
I16
tp458
I388
s(I0
I20
I20
I22
tp459
I454
s(I0
I17
I17
I18
tp460
I449
s(I0
I15
I16
I19
tp461
I418
s(I0
I5
I5
I12
tp462
I196
s(I0
I2
I2
I8
tp463
I163
s.