(dp1
((I3
I6
I9
I11
tp2
(I3
I7
I9
I11
tp3
tp4
(lp5
S'loop'
p6
aS'stack'
p7
as((I1
I9
I9
I29
tp8
(I1
I9
I9
I28
tp9
tp10
(lp11
g7
aS'loop+end'
p12
as((I3
I8
I9
I23
tp13
(I2
I8
I9
I23
tp14
tp15
(lp16
g7
ag6
as((I1
I7
I9
I26
tp17
(I1
I7
I9
I25
tp18
tp19
(lp20
g7
ag6
as((I8
I9
I9
I24
tp21
(I0
I0
I9
I24
tp22
tp23
(lp24
S'stack+loop'
p25
ag6
as((I0
I18
I18
I23
tp26
(I0
I18
I18
I22
tp27
tp28
(lp29
g7
ag6
as((I1
I3
I9
I25
tp30
(I0
I3
I9
I25
tp31
tp32
(lp33
g7
aS'end'
p34
as((I0
I7
I9
I29
tp35
(I0
I7
I9
I28
tp36
tp37
(lp38
g7
ag12
as((I5
I9
I9
I29
tp39
(I5
I9
I9
I28
tp40
tp41
(lp42
g7
ag12
as((I7
I8
I9
I16
tp43
(I7
I8
I9
I15
tp44
tp45
(lp46
g7
ag6
as((I4
I7
I9
I18
tp47
(I3
I7
I9
I18
tp48
tp49
(lp50
g7
ag6
as((I1
I8
I9
I21
tp51
(I1
I8
I9
I20
tp52
tp53
(lp54
g7
ag6
as((I4
I9
I9
I26
tp55
(I3
I9
I9
I26
tp56
tp57
(lp58
g7
ag6
as((I1
I6
I9
I10
tp59
(I0
I6
I9
I10
tp60
tp61
(lp62
g7
ag34
as((I4
I6
I9
I19
tp63
(I4
I7
I9
I19
tp64
tp65
(lp66
g6
ag7
as((I1
I2
I9
I25
tp67
(I0
I0
I9
I25
tp68
tp69
(lp70
g6
ag6
as((I6
I7
I9
I15
tp71
(I6
I8
I9
I15
tp72
tp73
(lp74
g6
ag7
as((I4
I9
I9
I24
tp75
(I4
I9
I9
I23
tp76
tp77
(lp78
g7
ag6
as((I0
I9
I9
I11
tp79
(I0
I9
I10
I11
tp80
tp81
(lp82
S'stack+end'
p83
ag7
as((I3
I7
I9
I19
tp84
(I3
I8
I9
I19
tp85
tp86
(lp87
g6
ag7
as((I4
I8
I9
I18
tp88
(I4
I9
I9
I18
tp89
tp90
(lp91
g25
ag7
as((I2
I7
I9
I27
tp92
(I2
I7
I9
I26
tp93
tp94
(lp95
g7
ag6
as((I1
I4
I9
I24
tp96
(I0
I4
I9
I24
tp97
tp98
(lp99
g7
ag34
as((I3
I6
I9
I13
tp100
(I2
I6
I9
I13
tp101
tp102
(lp103
g7
ag6
as((I4
I7
I9
I14
tp104
(I4
I8
I9
I14
tp105
tp106
(lp107
g6
ag7
as((I2
I7
I9
I10
tp108
(I1
I7
I9
I10
tp109
tp110
(lp111
g7
ag6
as((I1
I4
I9
I14
tp112
(I1
I5
I9
I14
tp113
tp114
(lp115
g6
ag7
as((I6
I7
I9
I12
tp116
(I5
I7
I9
I12
tp117
tp118
(lp119
g7
ag6
as((I1
I8
I9
I28
tp120
(I1
I8
I9
I27
tp121
tp122
(lp123
g7
ag6
as((I7
I9
I9
I16
tp124
(I7
I9
I9
I15
tp125
tp126
(lp127
g7
ag6
as((I0
I9
I10
I29
tp128
(I0
I10
I10
I29
tp129
tp130
(lp131
g25
ag7
as((I0
I10
I11
I27
tp132
(I0
I11
I11
I27
tp133
tp134
(lp135
g25
ag7
as((I0
I15
I16
I26
tp136
(I0
I15
I16
I25
tp137
tp138
(lp139
g7
ag6
as((I0
I5
I9
I23
tp140
(I0
I5
I9
I22
tp141
tp142
(lp143
g7
ag6
as((I0
I9
I10
I11
tp144
(I0
I10
I10
I11
tp145
tp146
(lp147
g25
ag7
as((I1
I9
I9
I28
tp148
(I1
I9
I9
I27
tp149
tp150
(lp151
g7
ag6
as((I0
I19
I19
I23
tp152
(I0
I19
I20
I23
tp153
tp154
(lp155
g25
ag7
as((I0
I13
I13
I23
tp156
(I0
I13
I13
I22
tp157
tp158
(lp159
g7
ag6
as((I0
I11
I12
I27
tp160
(I0
I12
I12
I27
tp161
tp162
(lp163
g25
ag7
as((I1
I7
I9
I27
tp164
(I0
I7
I9
I27
tp165
tp166
(lp167
g7
ag34
as((I4
I6
I9
I14
tp168
(I4
I6
I9
I13
tp169
tp170
(lp171
g7
ag6
as((I1
I6
I9
I13
tp172
(I1
I6
I9
I12
tp173
tp174
(lp175
g7
ag6
as((I0
I13
I13
I29
tp176
(I0
I13
I13
I28
tp177
tp178
(lp179
g7
ag12
as((I1
I6
I9
I22
tp180
(I1
I7
I9
I22
tp181
tp182
(lp183
g6
ag7
as((I8
I9
I9
I15
tp184
(I7
I9
I9
I15
tp185
tp186
(lp187
g7
ag6
as((I2
I5
I9
I24
tp188
(I1
I5
I9
I24
tp189
tp190
(lp191
g7
ag6
as((I0
I10
I10
I18
tp192
(I0
I10
I10
I17
tp193
tp194
(lp195
g7
ag6
as((I3
I7
I9
I12
tp196
(I3
I7
I9
I11
tp197
tp198
(lp199
g7
ag6
as((I5
I6
I9
I19
tp200
(I5
I6
I9
I18
tp201
tp202
(lp203
g7
ag6
as((I2
I6
I9
I25
tp204
(I1
I6
I9
I25
tp205
tp206
(lp207
g7
ag6
as((I0
I21
I21
I28
tp208
(I0
I21
I21
I27
tp209
tp210
(lp211
g7
ag6
as((I3
I4
I9
I22
tp212
(I2
I4
I9
I22
tp213
tp214
(lp215
g7
ag6
as((I7
I8
I9
I23
tp216
(I6
I8
I9
I23
tp217
tp218
(lp219
g7
ag6
as((I0
I0
I9
I29
tp220
(I5
I6
I9
I29
tp221
tp222
(lp223
g6
ag6
as((I3
I8
I9
I20
tp224
(I2
I8
I9
I20
tp225
tp226
(lp227
g7
ag6
as((I0
I1
I9
I21
tp228
(I0
I2
I9
I21
tp229
tp230
(lp231
g6
ag7
as((I1
I7
I9
I18
tp232
(I1
I8
I9
I18
tp233
tp234
(lp235
g6
ag7
as((I5
I7
I9
I15
tp236
(I5
I8
I9
I15
tp237
tp238
(lp239
g6
ag7
as((I3
I6
I9
I21
tp240
(I3
I6
I9
I20
tp241
tp242
(lp243
g7
ag6
as((I7
I8
I9
I29
tp244
(I6
I8
I9
I29
tp245
tp246
(lp247
g7
ag6
as((I0
I2
I9
I26
tp248
(I0
I3
I9
I26
tp249
tp250
(lp251
g6
ag7
as(g100
(I3
I7
I9
I13
tp252
tp253
(lp254
g6
ag7
as(g220
(I3
I4
I9
I29
tp255
tp256
(lp257
g6
ag6
as((I4
I5
I9
I14
tp258
(I4
I6
I9
I14
tp259
tp260
(lp261
g6
ag7
as((I0
I12
I13
I27
tp262
(I0
I12
I13
I26
tp263
tp264
(lp265
g7
ag6
as((I2
I5
I9
I22
tp266
(I1
I5
I9
I22
tp267
tp268
(lp269
g7
ag6
as((I0
I14
I14
I24
tp270
(I0
I14
I14
I23
tp271
tp272
(lp273
g7
ag6
as((I3
I6
I9
I14
tp274
(I3
I7
I9
I14
tp275
tp276
(lp277
g6
ag7
as((I2
I9
I9
I11
tp278
(I2
I9
I9
I10
tp279
tp280
(lp281
g7
ag6
as((I2
I3
I9
I24
tp282
(I2
I4
I9
I24
tp283
tp284
(lp285
g6
ag7
as((I3
I4
I9
I27
tp286
(I0
I0
I9
I27
tp287
tp288
(lp289
g6
ag6
as((I3
I6
I9
I18
tp290
(I3
I6
I9
I17
tp291
tp292
(lp293
g7
ag6
as((I4
I6
I9
I15
tp294
(I3
I6
I9
I15
tp295
tp296
(lp297
g7
ag6
as((I1
I5
I9
I29
tp298
(I1
I6
I9
I29
tp299
tp300
(lp301
g6
ag7
as(g120
(I1
I9
I9
I28
tp302
tp303
(lp304
g25
ag7
as(g196
(I3
I8
I9
I12
tp305
tp306
(lp307
g6
ag7
as((I0
I20
I20
I26
tp308
(I0
I20
I20
I25
tp309
tp310
(lp311
g7
ag6
as((I0
I18
I18
I28
tp312
(I0
I18
I18
I27
tp313
tp314
(lp315
g7
ag6
as((I0
I13
I13
I25
tp316
(I0
I13
I14
I25
tp317
tp318
(lp319
g25
ag7
as((I0
I19
I20
I23
tp320
(I0
I20
I20
I23
tp321
tp322
(lp323
g25
ag7
as((I0
I8
I9
I18
tp324
(I0
I8
I9
I17
tp325
tp326
(lp327
g7
ag6
as((I0
I4
I9
I11
tp328
(I0
I5
I9
I11
tp329
tp330
(lp331
g6
ag7
as((I3
I7
I9
I21
tp332
(I3
I8
I9
I21
tp333
tp334
(lp335
g6
ag7
as((I0
I8
I9
I14
tp336
(I0
I9
I9
I14
tp337
tp338
(lp339
g25
ag7
as((I0
I12
I13
I19
tp340
(I0
I12
I13
I18
tp341
tp342
(lp343
g7
ag6
as((I1
I8
I9
I19
tp344
(I1
I8
I9
I18
tp345
tp346
(lp347
g7
ag6
as((I0
I10
I11
I24
tp348
(I0
I10
I11
I23
tp349
tp350
(lp351
g7
ag6
as((I0
I12
I12
I24
tp352
(I0
I12
I13
I24
tp353
tp354
(lp355
g25
ag7
as((I8
I9
I9
I23
tp356
(I0
I0
I9
I23
tp357
tp358
(lp359
g25
ag6
as((I2
I4
I9
I17
tp360
(I2
I5
I9
I17
tp361
tp362
(lp363
g6
ag7
as((I5
I6
I9
I22
tp364
(I0
I0
I9
I22
tp365
tp366
(lp367
g6
ag6
as((I0
I18
I18
I20
tp368
(I0
I18
I18
I19
tp369
tp370
(lp371
g7
ag6
as(g108
(I2
I8
I9
I10
tp372
tp373
(lp374
g6
ag7
as((I0
I10
I10
I27
tp375
(I0
I10
I11
I27
tp376
tp377
(lp378
g25
ag7
as((I6
I8
I9
I23
tp379
(I5
I8
I9
I23
tp380
tp381
(lp382
g7
ag6
as((I1
I2
I9
I19
tp383
(I1
I3
I9
I19
tp384
tp385
(lp386
g6
ag7
as((I1
I4
I9
I12
tp387
(I1
I5
I9
I12
tp388
tp389
(lp390
g6
ag7
as((I0
I3
I9
I21
tp391
(I0
I3
I9
I20
tp392
tp393
(lp394
g7
ag6
as((I5
I6
I9
I25
tp395
(I5
I7
I9
I25
tp396
tp397
(lp398
g6
ag7
as((I2
I9
I9
I22
tp399
(I1
I9
I9
I22
tp400
tp401
(lp402
g7
ag6
as((I2
I3
I9
I13
tp403
(I2
I4
I9
I13
tp404
tp405
(lp406
g6
ag7
as((I0
I10
I11
I12
tp407
(I0
I11
I11
I12
tp408
tp409
(lp410
g25
ag7
as((I1
I3
I9
I18
tp411
(I1
I3
I9
I17
tp412
tp413
(lp414
g7
ag6
as((I1
I2
I9
I16
tp415
(I0
I0
I9
I16
tp416
tp417
(lp418
g6
ag6
as((I0
I21
I21
I29
tp419
(I0
I21
I22
I29
tp420
tp421
(lp422
g25
ag7
as((I0
I21
I21
I27
tp423
(I0
I21
I22
I27
tp424
tp425
(lp426
g25
ag7
as((I0
I13
I14
I23
tp427
(I0
I13
I14
I22
tp428
tp429
(lp430
g7
ag6
as(g224
(I3
I9
I9
I20
tp431
tp432
(lp433
g25
ag7
as((I1
I2
I9
I13
tp434
(I0
I0
I9
I13
tp435
tp436
(lp437
g6
ag6
as((I4
I8
I9
I22
tp438
(I4
I9
I9
I22
tp439
tp440
(lp441
g25
ag7
as((I0
I11
I11
I25
tp442
(I0
I11
I12
I25
tp443
tp444
(lp445
g25
ag7
as((I1
I4
I9
I19
tp446
(I0
I4
I9
I19
tp447
tp448
(lp449
g7
ag34
as((I5
I7
I9
I17
tp450
(I4
I7
I9
I17
tp451
tp452
(lp453
g7
ag6
as((I6
I7
I9
I20
tp454
(I5
I7
I9
I20
tp455
tp456
(lp457
g7
ag6
as((I3
I8
I9
I16
tp458
(I3
I9
I9
I16
tp459
tp460
(lp461
g25
ag7
as((I5
I6
I9
I15
tp462
(I5
I6
I9
I14
tp463
tp464
(lp465
g7
ag6
as(g308
(I0
I20
I21
I26
tp466
tp467
(lp468
g25
ag7
as((I0
I12
I13
I17
tp469
(I0
I12
I13
I16
tp470
tp471
(lp472
g7
ag6
as(g104
(I4
I7
I9
I13
tp473
tp474
(lp475
g7
ag6
as((I0
I22
I22
I25
tp476
(I0
I22
I22
I24
tp477
tp478
(lp479
g7
ag6
as((I2
I6
I9
I13
tp480
(I2
I6
I9
I12
tp481
tp482
(lp483
g7
ag6
as((I6
I7
I9
I29
tp484
(I6
I7
I9
I28
tp485
tp486
(lp487
g7
ag12
as((I5
I6
I9
I10
tp488
(I0
I0
I9
I10
tp489
tp490
(lp491
g6
ag6
as((I0
I1
I9
I22
tp492
(I0
I1
I9
I21
tp493
tp494
(lp495
g7
ag6
as((I2
I3
I9
I19
tp496
(I1
I3
I9
I19
tp497
tp498
(lp499
g7
ag6
as((I0
I6
I9
I24
tp500
(I0
I7
I9
I24
tp501
tp502
(lp503
g6
ag7
as((I1
I3
I9
I26
tp504
(I0
I3
I9
I26
tp505
tp506
(lp507
g7
ag34
as((I7
I8
I9
I18
tp508
(I0
I0
I9
I18
tp509
tp510
(lp511
g6
ag6
as((I1
I9
I9
I25
tp512
(I0
I9
I9
I25
tp513
tp514
(lp515
g7
ag34
as((I2
I5
I9
I25
tp516
(I2
I6
I9
I25
tp517
tp518
(lp519
g6
ag7
as((I0
I9
I10
I21
tp520
(I0
I9
I10
I20
tp521
tp522
(lp523
g7
ag6
as((I1
I2
I9
I12
tp524
(I1
I2
I9
I11
tp525
tp526
(lp527
g7
ag6
as((I6
I8
I9
I21
tp528
(I6
I9
I9
I21
tp529
tp530
(lp531
g25
ag7
as((I2
I7
I9
I29
tp532
(I1
I7
I9
I29
tp533
tp534
(lp535
g7
ag6
as((I2
I8
I9
I27
tp536
(I1
I8
I9
I27
tp537
tp538
(lp539
g7
ag6
as((I0
I12
I13
I16
tp540
(I0
I12
I13
I15
tp541
tp542
(lp543
g7
ag6
as((I0
I2
I9
I14
tp544
(I0
I3
I9
I14
tp545
tp546
(lp547
g6
ag7
as((I0
I9
I9
I26
tp548
(I0
I9
I10
I26
tp549
tp550
(lp551
g83
ag7
as((I3
I7
I9
I26
tp552
(I3
I7
I9
I25
tp553
tp554
(lp555
g7
ag6
as((I1
I7
I9
I25
tp556
(I1
I7
I9
I24
tp557
tp558
(lp559
g7
ag6
as(g364
(I4
I6
I9
I22
tp560
tp561
(lp562
g7
ag6
as((I0
I17
I17
I21
tp563
(I0
I17
I18
I21
tp564
tp565
(lp566
g25
ag7
as((I0
I14
I15
I22
tp567
(I0
I14
I15
I21
tp568
tp569
(lp570
g7
ag6
as((I1
I2
I9
I23
tp571
(I0
I2
I9
I23
tp572
tp573
(lp574
g7
ag34
as((I4
I9
I9
I19
tp575
(I3
I9
I9
I19
tp576
tp577
(lp578
g7
ag6
as((I4
I5
I9
I13
tp579
(I4
I6
I9
I13
tp580
tp581
(lp582
g6
ag7
as((I1
I5
I9
I28
tp583
(I1
I6
I9
I28
tp584
tp585
(lp586
g6
ag7
as((I0
I7
I9
I18
tp587
(I0
I8
I9
I18
tp588
tp589
(lp590
g6
ag7
as((I6
I9
I9
I27
tp591
(I5
I9
I9
I27
tp592
tp593
(lp594
g7
ag6
as(g192
(I0
I10
I11
I18
tp595
tp596
(lp597
g25
ag7
as((I3
I5
I9
I21
tp598
(I2
I5
I9
I21
tp599
tp600
(lp601
g7
ag6
as((I4
I9
I9
I16
tp602
(I3
I9
I9
I16
tp603
tp604
(lp605
g7
ag6
as((I0
I3
I9
I11
tp606
(I0
I4
I9
I11
tp607
tp608
(lp609
g6
ag7
as((I0
I15
I16
I25
tp610
(I0
I16
I16
I25
tp611
tp612
(lp613
g25
ag7
as(g395
(I0
I0
I9
I25
tp614
tp615
(lp616
g6
ag6
as((I1
I2
I9
I10
tp617
(I0
I0
I9
I10
tp618
tp619
(lp620
g6
ag6
as((I6
I8
I9
I22
tp621
(I6
I9
I9
I22
tp622
tp623
(lp624
g25
ag7
as((I6
I7
I9
I17
tp625
(I5
I7
I9
I17
tp626
tp627
(lp628
g7
ag6
as((I4
I8
I9
I23
tp629
(I3
I8
I9
I23
tp630
tp631
(lp632
g7
ag6
as((I5
I7
I9
I19
tp633
(I4
I7
I9
I19
tp634
tp635
(lp636
g7
ag6
as((I3
I5
I9
I20
tp637
(I3
I6
I9
I20
tp638
tp639
(lp640
g6
ag7
as((I0
I16
I17
I27
tp641
(I0
I17
I17
I27
tp642
tp643
(lp644
g25
ag7
as((I2
I6
I9
I17
tp645
(I2
I6
I9
I16
tp646
tp647
(lp648
g7
ag6
as((I3
I5
I9
I18
tp649
(I3
I6
I9
I18
tp650
tp651
(lp652
g6
ag7
as((I7
I8
I9
I12
tp653
(I6
I8
I9
I12
tp654
tp655
(lp656
g7
ag6
as((I0
I14
I14
I27
tp657
(I0
I14
I14
I26
tp658
tp659
(lp660
g7
ag6
as((I2
I9
I9
I12
tp661
(I1
I9
I9
I12
tp662
tp663
(lp664
g7
ag6
as((I5
I8
I9
I19
tp665
(I5
I8
I9
I18
tp666
tp667
(lp668
g7
ag6
as((I1
I3
I9
I10
tp669
(I1
I4
I9
I10
tp670
tp671
(lp672
g6
ag7
as((I6
I8
I9
I24
tp673
(I6
I8
I9
I23
tp674
tp675
(lp676
g7
ag6
as((I4
I7
I9
I20
tp677
(I4
I8
I9
I20
tp678
tp679
(lp680
g6
ag7
as((I0
I12
I12
I20
tp681
(I0
I12
I12
I19
tp682
tp683
(lp684
g7
ag6
as((I0
I17
I18
I26
tp685
(I0
I17
I18
I25
tp686
tp687
(lp688
g7
ag6
as((I1
I3
I9
I13
tp689
(I0
I3
I9
I13
tp690
tp691
(lp692
g7
ag34
as((I7
I8
I9
I21
tp693
(I0
I0
I9
I21
tp694
tp695
(lp696
g6
ag6
as((I7
I9
I9
I23
tp697
(I7
I9
I9
I22
tp698
tp699
(lp700
g7
ag6
as((I2
I5
I9
I28
tp701
(I2
I5
I9
I27
tp702
tp703
(lp704
g7
ag6
as((I6
I8
I9
I13
tp705
(I5
I8
I9
I13
tp706
tp707
(lp708
g7
ag6
as((I5
I6
I9
I20
tp709
(I0
I0
I9
I20
tp710
tp711
(lp712
g6
ag6
as((I2
I4
I9
I28
tp713
(I1
I4
I9
I28
tp714
tp715
(lp716
g7
ag6
as((I2
I6
I9
I29
tp717
(I1
I6
I9
I29
tp718
tp719
(lp720
g7
ag6
as((I2
I3
I9
I27
tp721
(I0
I0
I9
I27
tp722
tp723
(lp724
g6
ag6
as((I1
I4
I9
I29
tp725
(I1
I5
I9
I29
tp726
tp727
(lp728
g6
ag7
as(g240
(I2
I6
I9
I21
tp729
tp730
(lp731
g7
ag6
as((I4
I5
I9
I25
tp732
(I3
I5
I9
I25
tp733
tp734
(lp735
g7
ag6
as((I0
I4
I9
I20
tp736
(I0
I5
I9
I20
tp737
tp738
(lp739
g6
ag7
as((I4
I5
I9
I12
tp740
(I0
I0
I9
I12
tp741
tp742
(lp743
g6
ag6
as((I6
I7
I9
I27
tp744
(I6
I8
I9
I27
tp745
tp746
(lp747
g6
ag7
as((I0
I22
I22
I24
tp748
(I0
I22
I22
I23
tp749
tp750
(lp751
g7
ag6
as((I5
I8
I9
I21
tp752
(I5
I9
I9
I21
tp753
tp754
(lp755
g25
ag7
as((I0
I22
I23
I25
tp756
(I0
I23
I23
I25
tp757
tp758
(lp759
g25
ag7
as((I0
I20
I20
I28
tp760
(I0
I20
I21
I28
tp761
tp762
(lp763
g25
ag7
as((I3
I8
I9
I12
tp764
(I2
I8
I9
I12
tp765
tp766
(lp767
g7
ag6
as((I6
I9
I9
I12
tp768
(I6
I9
I9
I11
tp769
tp770
(lp771
g7
ag6
as((I1
I8
I9
I15
tp772
(I0
I8
I9
I15
tp773
tp774
(lp775
g7
ag34
as((I0
I17
I18
I21
tp776
(I0
I17
I18
I20
tp777
tp778
(lp779
g7
ag6
as((I3
I5
I9
I27
tp780
(I3
I5
I9
I26
tp781
tp782
(lp783
g7
ag6
as((I0
I9
I9
I27
tp784
(I0
I9
I10
I27
tp785
tp786
(lp787
g83
ag7
as((I0
I12
I13
I15
tp788
(I0
I12
I13
I14
tp789
tp790
(lp791
g7
ag6
as((I0
I12
I12
I23
tp792
(I0
I12
I13
I23
tp793
tp794
(lp795
g25
ag7
as((I0
I4
I9
I23
tp796
(I0
I5
I9
I23
tp797
tp798
(lp799
g6
ag7
as((I1
I8
I9
I23
tp800
(I1
I9
I9
I23
tp801
tp802
(lp803
g25
ag7
as((I0
I6
I9
I29
tp804
(I0
I6
I9
I28
tp805
tp806
(lp807
g7
ag12
as(g294
(I4
I7
I9
I15
tp808
tp809
(lp810
g6
ag7
as((I4
I6
I9
I12
tp811
(I3
I6
I9
I12
tp812
tp813
(lp814
g7
ag6
as((I0
I10
I10
I26
tp815
(I0
I10
I11
I26
tp816
tp817
(lp818
g25
ag7
as((I2
I8
I9
I16
tp819
(I2
I9
I9
I16
tp820
tp821
(lp822
g25
ag7
as((I0
I18
I19
I25
tp823
(I0
I19
I19
I25
tp824
tp825
(lp826
g25
ag7
as((I6
I9
I9
I13
tp827
(I5
I9
I9
I13
tp828
tp829
(lp830
g7
ag6
as((I2
I5
I9
I15
tp831
(I2
I6
I9
I15
tp832
tp833
(lp834
g6
ag7
as((I7
I8
I9
I17
tp835
(I7
I8
I9
I16
tp836
tp837
(lp838
g7
ag6
as((I0
I4
I9
I28
tp839
(I0
I4
I9
I27
tp840
tp841
(lp842
g7
ag6
as(g665
(I5
I9
I9
I19
tp843
tp844
(lp845
g25
ag7
as((I0
I11
I12
I17
tp846
(I0
I12
I12
I17
tp847
tp848
(lp849
g25
ag7
as((I3
I8
I9
I19
tp850
(I2
I8
I9
I19
tp851
tp852
(lp853
g7
ag6
as((I0
I1
I9
I26
tp854
(I0
I2
I9
I26
tp855
tp856
(lp857
g6
ag7
as((I0
I6
I9
I11
tp858
(I0
I7
I9
I11
tp859
tp860
(lp861
g6
ag7
as((I2
I3
I9
I16
tp862
(I2
I4
I9
I16
tp863
tp864
(lp865
g6
ag7
as((I1
I4
I9
I28
tp866
(I0
I4
I9
I28
tp867
tp868
(lp869
g7
ag34
as((I5
I6
I9
I16
tp870
(I4
I6
I9
I16
tp871
tp872
(lp873
g7
ag6
as((I3
I9
I9
I24
tp874
(I2
I9
I9
I24
tp875
tp876
(lp877
g7
ag6
as((I0
I10
I10
I23
tp878
(I0
I10
I10
I22
tp879
tp880
(lp881
g7
ag6
as(g850
(I3
I8
I9
I18
tp882
tp883
(lp884
g7
ag6
as((I0
I2
I9
I27
tp885
(I0
I2
I9
I26
tp886
tp887
(lp888
g7
ag6
as((I0
I16
I16
I29
tp889
(I0
I16
I17
I29
tp890
tp891
(lp892
g25
ag7
as((I8
I9
I9
I28
tp893
(I0
I0
I9
I28
tp894
tp895
(lp896
g25
ag6
as((I1
I2
I9
I21
tp897
(I0
I0
I9
I21
tp898
tp899
(lp900
g6
ag6
as((I3
I6
I9
I29
tp901
(I2
I6
I9
I29
tp902
tp903
(lp904
g7
ag6
as((I2
I9
I9
I19
tp905
(I2
I9
I9
I18
tp906
tp907
(lp908
g7
ag6
as((I2
I5
I9
I29
tp909
(I2
I5
I9
I28
tp910
tp911
(lp912
g7
ag12
as((I0
I8
I9
I24
tp913
(I0
I8
I9
I23
tp914
tp915
(lp916
g7
ag6
as((I0
I14
I14
I20
tp917
(I0
I14
I14
I19
tp918
tp919
(lp920
g7
ag6
as((I0
I17
I18
I24
tp921
(I0
I18
I18
I24
tp922
tp923
(lp924
g25
ag7
as((I7
I8
I9
I20
tp925
(I7
I9
I9
I20
tp926
tp927
(lp928
g25
ag7
as((I0
I11
I12
I25
tp929
(I0
I12
I12
I25
tp930
tp931
(lp932
g25
ag7
as((I0
I8
I9
I21
tp933
(I0
I8
I9
I20
tp934
tp935
(lp936
g7
ag6
as((I0
I11
I11
I21
tp937
(I0
I11
I11
I20
tp938
tp939
(lp940
g7
ag6
as((I3
I6
I9
I20
tp941
(I3
I7
I9
I20
tp942
tp943
(lp944
g6
ag7
as((I2
I5
I9
I11
tp945
(I2
I6
I9
I11
tp946
tp947
(lp948
g6
ag7
as((I2
I8
I9
I26
tp949
(I2
I9
I9
I26
tp950
tp951
(lp952
g25
ag7
as((I5
I6
I9
I13
tp953
(I5
I7
I9
I13
tp954
tp955
(lp956
g6
ag7
as((I3
I5
I9
I24
tp957
(I3
I6
I9
I24
tp958
tp959
(lp960
g6
ag7
as((I1
I2
I9
I20
tp961
(I1
I3
I9
I20
tp962
tp963
(lp964
g6
ag7
as((I6
I8
I9
I17
tp965
(I5
I8
I9
I17
tp966
tp967
(lp968
g7
ag6
as((I4
I7
I9
I19
tp969
(I3
I7
I9
I19
tp970
tp971
(lp972
g7
ag6
as((I5
I7
I9
I24
tp973
(I4
I7
I9
I24
tp974
tp975
(lp976
g7
ag6
as((I5
I7
I9
I16
tp977
(I5
I7
I9
I15
tp978
tp979
(lp980
g7
ag6
as(g744
(I5
I7
I9
I27
tp981
tp982
(lp983
g7
ag6
as((I0
I4
I9
I27
tp984
(I0
I4
I9
I26
tp985
tp986
(lp987
g7
ag6
as((I0
I6
I9
I20
tp988
(I0
I7
I9
I20
tp989
tp990
(lp991
g6
ag7
as((I5
I7
I9
I14
tp992
(I4
I7
I9
I14
tp993
tp994
(lp995
g7
ag6
as((I2
I7
I9
I23
tp996
(I1
I7
I9
I23
tp997
tp998
(lp999
g7
ag6
as((I0
I17
I18
I29
tp1000
(I0
I18
I18
I29
tp1001
tp1002
(lp1003
g25
ag7
as((I4
I6
I9
I13
tp1004
(I4
I7
I9
I13
tp1005
tp1006
(lp1007
g6
ag7
as((I5
I6
I9
I27
tp1008
(I5
I6
I9
I26
tp1009
tp1010
(lp1011
g7
ag6
as((I6
I7
I9
I26
tp1012
(I5
I7
I9
I26
tp1013
tp1014
(lp1015
g7
ag6
as((I0
I5
I9
I16
tp1016
(I0
I6
I9
I16
tp1017
tp1018
(lp1019
g6
ag7
as((I5
I7
I9
I20
tp1020
(I5
I8
I9
I20
tp1021
tp1022
(lp1023
g6
ag7
as(g917
(I0
I14
I15
I20
tp1024
tp1025
(lp1026
g25
ag7
as(g556
(I1
I8
I9
I25
tp1027
tp1028
(lp1029
g6
ag7
as((I8
I9
I9
I29
tp1030
(I7
I9
I9
I29
tp1031
tp1032
(lp1033
g7
ag6
as((I4
I5
I9
I10
tp1034
(I0
I0
I9
I10
tp1035
tp1036
(lp1037
g6
ag6
as((I4
I8
I9
I12
tp1038
(I4
I8
I9
I11
tp1039
tp1040
(lp1041
g7
ag6
as((I1
I4
I9
I26
tp1042
(I0
I4
I9
I26
tp1043
tp1044
(lp1045
g7
ag34
as((I3
I5
I9
I28
tp1046
(I3
I6
I9
I28
tp1047
tp1048
(lp1049
g6
ag7
as(g673
(I5
I8
I9
I24
tp1050
tp1051
(lp1052
g7
ag6
as((I1
I3
I9
I15
tp1053
(I1
I4
I9
I15
tp1054
tp1055
(lp1056
g6
ag7
as((I4
I6
I9
I22
tp1057
(I3
I6
I9
I22
tp1058
tp1059
(lp1060
g7
ag6
as((I0
I15
I16
I18
tp1061
(I0
I15
I16
I17
tp1062
tp1063
(lp1064
g7
ag6
as((I4
I7
I9
I25
tp1065
(I4
I7
I9
I24
tp1066
tp1067
(lp1068
g7
ag6
as((I5
I7
I9
I26
tp1069
(I5
I7
I9
I25
tp1070
tp1071
(lp1072
g7
ag6
as((I0
I22
I22
I27
tp1073
(I0
I22
I23
I27
tp1074
tp1075
(lp1076
g25
ag7
as((I4
I8
I9
I28
tp1077
(I4
I9
I9
I28
tp1078
tp1079
(lp1080
g25
ag7
as(g454
(I0
I0
I9
I20
tp1081
tp1082
(lp1083
g6
ag6
as((I4
I6
I9
I24
tp1084
(I4
I7
I9
I24
tp1085
tp1086
(lp1087
g6
ag7
as((I0
I9
I10
I22
tp1088
(I0
I10
I10
I22
tp1089
tp1090
(lp1091
g25
ag7
as((I7
I9
I9
I11
tp1092
(I7
I9
I9
I10
tp1093
tp1094
(lp1095
g7
ag6
as(g476
(I0
I22
I23
I25
tp1096
tp1097
(lp1098
g25
ag7
as((I5
I8
I9
I28
tp1099
(I5
I9
I9
I28
tp1100
tp1101
(lp1102
g25
ag7
as((I0
I11
I12
I20
tp1103
(I0
I11
I12
I19
tp1104
tp1105
(lp1106
g7
ag6
as((I3
I9
I9
I11
tp1107
(I2
I9
I9
I11
tp1108
tp1109
(lp1110
g7
ag6
as((I3
I4
I9
I21
tp1111
(I0
I0
I9
I21
tp1112
tp1113
(lp1114
g6
ag6
as((I2
I8
I9
I11
tp1115
(I2
I8
I9
I10
tp1116
tp1117
(lp1118
g7
ag6
as((I3
I9
I9
I14
tp1119
(I3
I9
I9
I13
tp1120
tp1121
(lp1122
g7
ag6
as((I3
I7
I9
I14
tp1123
(I2
I7
I9
I14
tp1124
tp1125
(lp1126
g7
ag6
as((I1
I7
I9
I19
tp1127
(I1
I8
I9
I19
tp1128
tp1129
(lp1130
g6
ag7
as((I1
I6
I9
I17
tp1131
(I1
I6
I9
I16
tp1132
tp1133
(lp1134
g7
ag6
as((I1
I7
I9
I28
tp1135
(I1
I7
I9
I27
tp1136
tp1137
(lp1138
g7
ag6
as((I6
I8
I9
I18
tp1139
(I5
I8
I9
I18
tp1140
tp1141
(lp1142
g7
ag6
as((I1
I4
I9
I27
tp1143
(I1
I4
I9
I26
tp1144
tp1145
(lp1146
g7
ag6
as((I2
I3
I9
I28
tp1147
(I2
I4
I9
I28
tp1148
tp1149
(lp1150
g6
ag7
as((I6
I7
I9
I19
tp1151
(I6
I8
I9
I19
tp1152
tp1153
(lp1154
g6
ag7
as((I0
I15
I16
I20
tp1155
(I0
I15
I16
I19
tp1156
tp1157
(lp1158
g7
ag6
as((I1
I5
I9
I21
tp1159
(I0
I5
I9
I21
tp1160
tp1161
(lp1162
g7
ag34
as((I7
I8
I9
I10
tp1163
(I0
I0
I9
I10
tp1164
tp1165
(lp1166
g6
ag6
as((I0
I23
I24
I29
tp1167
(I0
I23
I24
I28
tp1168
tp1169
(lp1170
g7
ag12
as((I3
I4
I9
I17
tp1171
(I3
I5
I9
I17
tp1172
tp1173
(lp1174
g6
ag7
as((I0
I7
I9
I25
tp1175
(I0
I7
I9
I24
tp1176
tp1177
(lp1178
g7
ag6
as(g709
(I5
I6
I9
I19
tp1179
tp1180
(lp1181
g7
ag6
as((I5
I9
I9
I20
tp1182
(I5
I9
I9
I19
tp1183
tp1184
(lp1185
g7
ag6
as((I0
I4
I9
I16
tp1186
(I0
I5
I9
I16
tp1187
tp1188
(lp1189
g6
ag7
as(g232
(I1
I7
I9
I17
tp1190
tp1191
(lp1192
g7
ag6
as((I4
I7
I9
I12
tp1193
(I4
I8
I9
I12
tp1194
tp1195
(lp1196
g6
ag7
as((I4
I6
I9
I16
tp1197
(I3
I6
I9
I16
tp1198
tp1199
(lp1200
g7
ag6
as((I0
I2
I9
I11
tp1201
(I0
I2
I9
I10
tp1202
tp1203
(lp1204
g7
ag6
as(g870
(I5
I7
I9
I16
tp1205
tp1206
(lp1207
g6
ag7
as((I0
I14
I14
I18
tp1208
(I0
I14
I14
I17
tp1209
tp1210
(lp1211
g7
ag6
as((I6
I8
I9
I15
tp1212
(I6
I9
I9
I15
tp1213
tp1214
(lp1215
g25
ag7
as((I0
I21
I21
I23
tp1216
(I0
I21
I22
I23
tp1217
tp1218
(lp1219
g25
ag7
as((I0
I16
I17
I28
tp1220
(I0
I17
I17
I28
tp1221
tp1222
(lp1223
g25
ag7
as((I6
I9
I9
I22
tp1224
(I6
I9
I9
I21
tp1225
tp1226
(lp1227
g7
ag6
as((I1
I3
I9
I12
tp1228
(I0
I3
I9
I12
tp1229
tp1230
(lp1231
g7
ag34
as((I0
I9
I10
I15
tp1232
(I0
I10
I10
I15
tp1233
tp1234
(lp1235
g25
ag7
as((I4
I8
I9
I20
tp1236
(I4
I9
I9
I20
tp1237
tp1238
(lp1239
g25
ag7
as((I0
I10
I10
I15
tp1240
(I0
I10
I10
I14
tp1241
tp1242
(lp1243
g7
ag6
as(g220
(I2
I3
I9
I29
tp1244
tp1245
(lp1246
g6
ag6
as(g290
(I3
I7
I9
I18
tp1247
tp1248
(lp1249
g6
ag7
as((I0
I6
I9
I28
tp1250
(I0
I6
I9
I27
tp1251
tp1252
(lp1253
g7
ag6
as((I0
I19
I19
I24
tp1254
(I0
I19
I20
I24
tp1255
tp1256
(lp1257
g25
ag7
as((I2
I7
I9
I24
tp1258
(I2
I8
I9
I24
tp1259
tp1260
(lp1261
g6
ag7
as((I3
I4
I9
I13
tp1262
(I3
I5
I9
I13
tp1263
tp1264
(lp1265
g6
ag7
as((I0
I15
I15
I25
tp1266
(I0
I15
I16
I25
tp1267
tp1268
(lp1269
g25
ag7
as((I0
I1
I9
I16
tp1270
(I0
I2
I9
I16
tp1271
tp1272
(lp1273
g6
ag7
as((I4
I5
I9
I19
tp1274
(I3
I5
I9
I19
tp1275
tp1276
(lp1277
g7
ag6
as((I0
I1
I9
I25
tp1278
(I0
I1
I9
I24
tp1279
tp1280
(lp1281
g7
ag6
as(g831
(I1
I5
I9
I15
tp1282
tp1283
(lp1284
g7
ag6
as((I0
I22
I23
I27
tp1285
(I0
I23
I23
I27
tp1286
tp1287
(lp1288
g25
ag7
as((I4
I8
I9
I19
tp1289
(I3
I8
I9
I19
tp1290
tp1291
(lp1292
g7
ag6
as((I4
I8
I9
I16
tp1293
(I4
I8
I9
I15
tp1294
tp1295
(lp1296
g7
ag6
as((I2
I8
I9
I17
tp1297
(I2
I9
I9
I17
tp1298
tp1299
(lp1300
g25
ag7
as((I3
I8
I9
I26
tp1301
(I3
I8
I9
I25
tp1302
tp1303
(lp1304
g7
ag6
as((I0
I11
I11
I17
tp1305
(I0
I11
I12
I17
tp1306
tp1307
(lp1308
g25
ag7
as((I0
I3
I9
I24
tp1309
(I0
I3
I9
I23
tp1310
tp1311
(lp1312
g7
ag6
as((I5
I7
I9
I12
tp1313
(I5
I8
I9
I12
tp1314
tp1315
(lp1316
g6
ag7
as((I0
I12
I13
I29
tp1317
(I0
I12
I13
I28
tp1318
tp1319
(lp1320
g7
ag12
as((I4
I9
I9
I11
tp1321
(I4
I9
I9
I10
tp1322
tp1323
(lp1324
g7
ag6
as(g84
(I3
I7
I9
I18
tp1325
tp1326
(lp1327
g7
ag6
as((I2
I3
I9
I25
tp1328
(I2
I4
I9
I25
tp1329
tp1330
(lp1331
g6
ag7
as((I3
I4
I9
I20
tp1332
(I0
I0
I9
I20
tp1333
tp1334
(lp1335
g6
ag6
as((I1
I6
I9
I16
tp1336
(I1
I6
I9
I15
tp1337
tp1338
(lp1339
g7
ag6
as((I5
I9
I9
I28
tp1340
(I4
I9
I9
I28
tp1341
tp1342
(lp1343
g7
ag6
as((I1
I3
I9
I19
tp1344
(I1
I4
I9
I19
tp1345
tp1346
(lp1347
g6
ag7
as((I2
I4
I9
I19
tp1348
(I2
I4
I9
I18
tp1349
tp1350
(lp1351
g7
ag6
as((I0
I6
I9
I26
tp1352
(I0
I6
I9
I25
tp1353
tp1354
(lp1355
g7
ag6
as((I4
I9
I9
I20
tp1356
(I4
I9
I9
I19
tp1357
tp1358
(lp1359
g7
ag6
as((I3
I5
I9
I14
tp1360
(I2
I5
I9
I14
tp1361
tp1362
(lp1363
g7
ag6
as((I0
I20
I20
I29
tp1364
(I0
I20
I20
I28
tp1365
tp1366
(lp1367
g7
ag12
as((I5
I6
I9
I17
tp1368
(I4
I6
I9
I17
tp1369
tp1370
(lp1371
g7
ag6
as((I2
I8
I9
I12
tp1372
(I1
I8
I9
I12
tp1373
tp1374
(lp1375
g7
ag6
as((I1
I3
I9
I23
tp1376
(I1
I3
I9
I22
tp1377
tp1378
(lp1379
g7
ag6
as(g1088
(I0
I9
I10
I21
tp1380
tp1381
(lp1382
g7
ag6
as((I1
I2
I9
I28
tp1383
(I0
I0
I9
I28
tp1384
tp1385
(lp1386
g6
ag6
as((I5
I8
I9
I10
tp1387
(I5
I9
I9
I10
tp1388
tp1389
(lp1390
g25
ag7
as(g1171
(I2
I4
I9
I17
tp1391
tp1392
(lp1393
g7
ag6
as((I3
I8
I9
I27
tp1394
(I3
I8
I9
I26
tp1395
tp1396
(lp1397
g7
ag6
as((I0
I7
I9
I14
tp1398
(I0
I7
I9
I13
tp1399
tp1400
(lp1401
g7
ag6
as((I0
I2
I9
I22
tp1402
(I0
I2
I9
I21
tp1403
tp1404
(lp1405
g7
ag6
as((I0
I12
I12
I17
tp1406
(I0
I12
I13
I17
tp1407
tp1408
(lp1409
g25
ag7
as((I2
I9
I9
I17
tp1410
(I2
I9
I9
I16
tp1411
tp1412
(lp1413
g7
ag6
as((I0
I15
I15
I23
tp1414
(I0
I15
I15
I22
tp1415
tp1416
(lp1417
g7
ag6
as((I4
I8
I9
I25
tp1418
(I4
I9
I9
I25
tp1419
tp1420
(lp1421
g25
ag7
as((I0
I12
I13
I28
tp1422
(I0
I12
I13
I27
tp1423
tp1424
(lp1425
g7
ag6
as((I2
I6
I9
I28
tp1426
(I2
I6
I9
I27
tp1427
tp1428
(lp1429
g7
ag6
as((I6
I8
I9
I12
tp1430
(I6
I9
I9
I12
tp1431
tp1432
(lp1433
g25
ag7
as((I0
I11
I11
I14
tp1434
(I0
I11
I12
I14
tp1435
tp1436
(lp1437
g25
ag7
as((I0
I28
I28
I29
tp1438
(I0
I28
I29
I29
tp1439
tp1440
(lp1441
g25
ag12
as((I0
I26
I26
I28
tp1442
(I0
I26
I26
I27
tp1443
tp1444
(lp1445
g7
ag6
as(g629
(I4
I9
I9
I23
tp1446
tp1447
(lp1448
g25
ag7
as((I3
I8
I9
I17
tp1449
(I3
I9
I9
I17
tp1450
tp1451
(lp1452
g25
ag7
as((I3
I5
I9
I29
tp1453
(I3
I6
I9
I29
tp1454
tp1455
(lp1456
g6
ag7
as(g492
(I0
I0
I9
I22
tp1457
tp1458
(lp1459
g6
ag34
as((I4
I5
I9
I28
tp1460
(I3
I5
I9
I28
tp1461
tp1462
(lp1463
g7
ag6
as((I3
I5
I9
I10
tp1464
(I3
I6
I9
I10
tp1465
tp1466
(lp1467
g6
ag7
as((I3
I7
I9
I17
tp1468
(I3
I8
I9
I17
tp1469
tp1470
(lp1471
g6
ag7
as((I2
I4
I9
I25
tp1472
(I2
I4
I9
I24
tp1473
tp1474
(lp1475
g7
ag6
as((I1
I6
I9
I21
tp1476
(I1
I6
I9
I20
tp1477
tp1478
(lp1479
g7
ag6
as((I0
I24
I25
I27
tp1480
(I0
I25
I25
I27
tp1481
tp1482
(lp1483
g25
ag7
as((I0
I20
I21
I27
tp1484
(I0
I20
I21
I26
tp1485
tp1486
(lp1487
g7
ag6
as((I0
I1
I9
I19
tp1488
(I0
I1
I9
I18
tp1489
tp1490
(lp1491
g7
ag6
as((I3
I4
I9
I16
tp1492
(I3
I5
I9
I16
tp1493
tp1494
(lp1495
g6
ag7
as((I2
I4
I9
I26
tp1496
(I2
I5
I9
I26
tp1497
tp1498
(lp1499
g6
ag7
as((I1
I3
I9
I20
tp1500
(I1
I3
I9
I19
tp1501
tp1502
(lp1503
g7
ag6
as((I0
I14
I15
I28
tp1504
(I0
I14
I15
I27
tp1505
tp1506
(lp1507
g7
ag6
as((I6
I9
I9
I23
tp1508
(I6
I9
I9
I22
tp1509
tp1510
(lp1511
g7
ag6
as((I6
I9
I9
I14
tp1512
(I5
I9
I9
I14
tp1513
tp1514
(lp1515
g7
ag6
as((I0
I1
I9
I11
tp1516
(I0
I2
I9
I11
tp1517
tp1518
(lp1519
g6
ag7
as((I0
I11
I11
I19
tp1520
(I0
I11
I12
I19
tp1521
tp1522
(lp1523
g25
ag7
as((I1
I5
I9
I19
tp1524
(I1
I5
I9
I18
tp1525
tp1526
(lp1527
g7
ag6
as((I0
I6
I9
I17
tp1528
(I0
I6
I9
I16
tp1529
tp1530
(lp1531
g7
ag6
as((I0
I19
I20
I29
tp1532
(I0
I20
I20
I29
tp1533
tp1534
(lp1535
g25
ag7
as((I4
I6
I9
I20
tp1536
(I4
I6
I9
I19
tp1537
tp1538
(lp1539
g7
ag6
as((I0
I21
I22
I27
tp1540
(I0
I21
I22
I26
tp1541
tp1542
(lp1543
g7
ag6
as((I0
I9
I9
I25
tp1544
(I0
I9
I10
I25
tp1545
tp1546
(lp1547
g83
ag7
as((I0
I25
I25
I27
tp1548
(I0
I25
I25
I26
tp1549
tp1550
(lp1551
g7
ag6
as((I2
I3
I9
I26
tp1552
(I2
I3
I9
I25
tp1553
tp1554
(lp1555
g7
ag6
as((I7
I9
I9
I14
tp1556
(I6
I9
I9
I14
tp1557
tp1558
(lp1559
g7
ag6
as((I3
I6
I9
I24
tp1560
(I2
I6
I9
I24
tp1561
tp1562
(lp1563
g7
ag6
as((I3
I7
I9
I20
tp1564
(I2
I7
I9
I20
tp1565
tp1566
(lp1567
g7
ag6
as(g1053
(I1
I3
I9
I14
tp1568
tp1569
(lp1570
g7
ag6
as(g1111
(I3
I5
I9
I21
tp1571
tp1572
(lp1573
g6
ag7
as((I0
I17
I17
I26
tp1574
(I0
I17
I17
I25
tp1575
tp1576
(lp1577
g7
ag6
as((I0
I14
I15
I27
tp1578
(I0
I14
I15
I26
tp1579
tp1580
(lp1581
g7
ag6
as((I4
I5
I9
I27
tp1582
(I4
I5
I9
I26
tp1583
tp1584
(lp1585
g7
ag6
as((I0
I16
I16
I20
tp1586
(I0
I16
I16
I19
tp1587
tp1588
(lp1589
g7
ag6
as((I6
I7
I9
I13
tp1590
(I5
I7
I9
I13
tp1591
tp1592
(lp1593
g7
ag6
as(g1092
(I6
I9
I9
I11
tp1594
tp1595
(lp1596
g7
ag6
as((I5
I8
I9
I27
tp1597
(I4
I8
I9
I27
tp1598
tp1599
(lp1600
g7
ag6
as(g524
(I1
I3
I9
I12
tp1601
tp1602
(lp1603
g6
ag7
as((I0
I9
I9
I29
tp1604
(I0
I9
I9
I28
tp1605
tp1606
(lp1607
g7
ag12
as(g992
(I5
I8
I9
I14
tp1608
tp1609
(lp1610
g6
ag7
as((I1
I6
I9
I29
tp1611
(I1
I7
I9
I29
tp1612
tp1613
(lp1614
g6
ag7
as((I1
I9
I9
I11
tp1615
(I1
I9
I9
I10
tp1616
tp1617
(lp1618
g7
ag6
as(g298
(I0
I5
I9
I29
tp1619
tp1620
(lp1621
g7
ag34
as((I5
I7
I9
I28
tp1622
(I5
I8
I9
I28
tp1623
tp1624
(lp1625
g6
ag7
as((I0
I10
I11
I25
tp1626
(I0
I11
I11
I25
tp1627
tp1628
(lp1629
g25
ag7
as(g1274
(I4
I5
I9
I18
tp1630
tp1631
(lp1632
g7
ag6
as((I2
I5
I9
I10
tp1633
(I1
I5
I9
I10
tp1634
tp1635
(lp1636
g7
ag6
as((I0
I11
I11
I29
tp1637
(I0
I11
I11
I28
tp1638
tp1639
(lp1640
g7
ag12
as((I1
I6
I9
I14
tp1641
(I1
I7
I9
I14
tp1642
tp1643
(lp1644
g6
ag7
as((I0
I16
I17
I22
tp1645
(I0
I16
I17
I21
tp1646
tp1647
(lp1648
g7
ag6
as((I6
I9
I9
I19
tp1649
(I6
I9
I9
I18
tp1650
tp1651
(lp1652
g7
ag6
as((I3
I6
I9
I19
tp1653
(I2
I6
I9
I19
tp1654
tp1655
(lp1656
g7
ag6
as((I0
I10
I11
I18
tp1657
(I0
I11
I11
I18
tp1658
tp1659
(lp1660
g25
ag7
as((I2
I7
I9
I21
tp1661
(I2
I8
I9
I21
tp1662
tp1663
(lp1664
g6
ag7
as((I1
I2
I9
I18
tp1665
(I1
I2
I9
I17
tp1666
tp1667
(lp1668
g7
ag6
as((I0
I9
I9
I14
tp1669
(I0
I9
I10
I14
tp1670
tp1671
(lp1672
g83
ag7
as((I2
I6
I9
I19
tp1673
(I2
I7
I9
I19
tp1674
tp1675
(lp1676
g6
ag7
as((I0
I13
I13
I22
tp1677
(I0
I13
I13
I21
tp1678
tp1679
(lp1680
g7
ag6
as((I6
I7
I9
I23
tp1681
(I0
I0
I9
I23
tp1682
tp1683
(lp1684
g6
ag6
as((I6
I8
I9
I16
tp1685
(I6
I9
I9
I16
tp1686
tp1687
(lp1688
g25
ag7
as((I0
I24
I24
I26
tp1689
(I0
I24
I25
I26
tp1690
tp1691
(lp1692
g25
ag7
as(g504
(I1
I3
I9
I25
tp1693
tp1694
(lp1695
g7
ag6
as(g862
(I2
I3
I9
I15
tp1696
tp1697
(lp1698
g7
ag6
as((I3
I5
I9
I13
tp1699
(I3
I5
I9
I12
tp1700
tp1701
(lp1702
g7
ag6
as((I1
I4
I9
I16
tp1703
(I0
I4
I9
I16
tp1704
tp1705
(lp1706
g7
ag34
as((I4
I8
I9
I15
tp1707
(I4
I8
I9
I14
tp1708
tp1709
(lp1710
g7
ag6
as((I4
I7
I9
I29
tp1711
(I3
I7
I9
I29
tp1712
tp1713
(lp1714
g7
ag6
as((I1
I2
I9
I26
tp1715
(I0
I2
I9
I26
tp1716
tp1717
(lp1718
g7
ag34
as((I0
I9
I10
I26
tp1719
(I0
I9
I10
I25
tp1720
tp1721
(lp1722
g7
ag6
as(g438
(I4
I8
I9
I21
tp1723
tp1724
(lp1725
g7
ag6
as((I2
I9
I9
I25
tp1726
(I1
I9
I9
I25
tp1727
tp1728
(lp1729
g7
ag6
as((I0
I25
I26
I29
tp1730
(I0
I26
I26
I29
tp1731
tp1732
(lp1733
g25
ag7
as(g1220
(I0
I16
I17
I27
tp1734
tp1735
(lp1736
g7
ag6
as((I2
I8
I9
I21
tp1737
(I2
I8
I9
I20
tp1738
tp1739
(lp1740
g7
ag6
as((I5
I8
I9
I20
tp1741
(I5
I9
I9
I20
tp1742
tp1743
(lp1744
g25
ag7
as(g43
(I0
I0
I9
I16
tp1745
tp1746
(lp1747
g6
ag6
as((I0
I11
I11
I27
tp1748
(I0
I11
I12
I27
tp1749
tp1750
(lp1751
g25
ag7
as((I0
I6
I9
I16
tp1752
(I0
I6
I9
I15
tp1753
tp1754
(lp1755
g7
ag6
as((I2
I4
I9
I22
tp1756
(I2
I5
I9
I22
tp1757
tp1758
(lp1759
g6
ag7
as((I3
I7
I9
I28
tp1760
(I3
I8
I9
I28
tp1761
tp1762
(lp1763
g6
ag7
as((I0
I11
I12
I16
tp1764
(I0
I12
I12
I16
tp1765
tp1766
(lp1767
g25
ag7
as((I0
I15
I15
I17
tp1768
(I0
I15
I15
I16
tp1769
tp1770
(lp1771
g7
ag6
as((I4
I7
I9
I17
tp1772
(I4
I8
I9
I17
tp1773
tp1774
(lp1775
g6
ag7
as((I3
I5
I9
I23
tp1776
(I2
I5
I9
I23
tp1777
tp1778
(lp1779
g7
ag6
as(g236
(I4
I7
I9
I15
tp1780
tp1781
(lp1782
g7
ag6
as((I2
I6
I9
I18
tp1783
(I1
I6
I9
I18
tp1784
tp1785
(lp1786
g7
ag6
as(g1508
(I5
I9
I9
I23
tp1787
tp1788
(lp1789
g7
ag6
as((I2
I5
I9
I26
tp1790
(I2
I6
I9
I26
tp1791
tp1792
(lp1793
g6
ag7
as(g1042
(I1
I5
I9
I26
tp1794
tp1795
(lp1796
g6
ag7
as(g1476
(I1
I7
I9
I21
tp1797
tp1798
(lp1799
g6
ag7
as(g610
(I0
I15
I16
I24
tp1800
tp1801
(lp1802
g7
ag6
as((I0
I15
I16
I28
tp1803
(I0
I15
I16
I27
tp1804
tp1805
(lp1806
g7
ag6
as((I0
I19
I19
I22
tp1807
(I0
I19
I19
I21
tp1808
tp1809
(lp1810
g7
ag6
as(g772
(I1
I9
I9
I15
tp1811
tp1812
(lp1813
g25
ag7
as((I0
I14
I14
I19
tp1814
(I0
I14
I15
I19
tp1815
tp1816
(lp1817
g25
ag7
as((I0
I17
I17
I29
tp1818
(I0
I17
I17
I28
tp1819
tp1820
(lp1821
g7
ag12
as((I0
I8
I9
I11
tp1822
(I0
I8
I9
I10
tp1823
tp1824
(lp1825
g7
ag6
as((I2
I8
I9
I29
tp1826
(I2
I9
I9
I29
tp1827
tp1828
(lp1829
g25
ag7
as((I5
I7
I9
I11
tp1830
(I5
I8
I9
I11
tp1831
tp1832
(lp1833
g6
ag7
as((I2
I9
I9
I28
tp1834
(I1
I9
I9
I28
tp1835
tp1836
(lp1837
g7
ag6
as((I0
I17
I18
I28
tp1838
(I0
I17
I18
I27
tp1839
tp1840
(lp1841
g7
ag6
as((I2
I5
I9
I18
tp1842
(I1
I5
I9
I18
tp1843
tp1844
(lp1845
g7
ag6
as((I7
I8
I9
I22
tp1846
(I0
I0
I9
I22
tp1847
tp1848
(lp1849
g6
ag6
as((I2
I9
I9
I14
tp1850
(I2
I9
I9
I13
tp1851
tp1852
(lp1853
g7
ag6
as(g1159
(I1
I6
I9
I21
tp1854
tp1855
(lp1856
g6
ag7
as(g804
(I0
I7
I9
I29
tp1857
tp1858
(lp1859
g6
ag7
as((I0
I26
I26
I29
tp1860
(I0
I26
I26
I28
tp1861
tp1862
(lp1863
g7
ag12
as((I1
I7
I9
I17
tp1864
(I1
I7
I9
I16
tp1865
tp1866
(lp1867
g7
ag6
as(g399
(I2
I9
I9
I21
tp1868
tp1869
(lp1870
g7
ag6
as((I0
I3
I9
I13
tp1871
(I0
I3
I9
I12
tp1872
tp1873
(lp1874
g7
ag6
as((I4
I8
I9
I24
tp1875
(I4
I8
I9
I23
tp1876
tp1877
(lp1878
g7
ag6
as((I0
I20
I21
I25
tp1879
(I0
I21
I21
I25
tp1880
tp1881
(lp1882
g25
ag7
as((I3
I7
I9
I18
tp1883
(I3
I8
I9
I18
tp1884
tp1885
(lp1886
g6
ag7
as((I0
I11
I12
I21
tp1887
(I0
I12
I12
I21
tp1888
tp1889
(lp1890
g25
ag7
as((I1
I3
I9
I11
tp1891
(I0
I3
I9
I11
tp1892
tp1893
(lp1894
g7
ag34
as((I3
I4
I9
I10
tp1895
(I0
I0
I9
I10
tp1896
tp1897
(lp1898
g6
ag6
as(g925
(I6
I8
I9
I20
tp1899
tp1900
(lp1901
g7
ag6
as((I7
I9
I9
I21
tp1902
(I7
I9
I9
I20
tp1903
tp1904
(lp1905
g7
ag6
as((I0
I5
I9
I20
tp1906
(I0
I6
I9
I20
tp1907
tp1908
(lp1909
g6
ag7
as((I0
I23
I24
I26
tp1910
(I0
I24
I24
I26
tp1911
tp1912
(lp1913
g25
ag7
as(g1197
(I4
I7
I9
I16
tp1914
tp1915
(lp1916
g6
ag7
as((I2
I5
I9
I20
tp1917
(I1
I5
I9
I20
tp1918
tp1919
(lp1920
g7
ag6
as((I0
I10
I11
I22
tp1921
(I0
I11
I11
I22
tp1922
tp1923
(lp1924
g25
ag7
as((I0
I17
I17
I23
tp1925
(I0
I17
I18
I23
tp1926
tp1927
(lp1928
g25
ag7
as((I1
I6
I9
I27
tp1929
(I0
I6
I9
I27
tp1930
tp1931
(lp1932
g7
ag34
as((I7
I8
I9
I26
tp1933
(I7
I8
I9
I25
tp1934
tp1935
(lp1936
g7
ag6
as((I0
I22
I23
I26
tp1937
(I0
I23
I23
I26
tp1938
tp1939
(lp1940
g25
ag7
as((I3
I6
I9
I16
tp1941
(I2
I6
I9
I16
tp1942
tp1943
(lp1944
g7
ag6
as((I7
I9
I9
I25
tp1945
(I7
I9
I9
I24
tp1946
tp1947
(lp1948
g7
ag6
as((I2
I8
I9
I14
tp1949
(I2
I9
I9
I14
tp1950
tp1951
(lp1952
g25
ag7
as((I3
I5
I9
I25
tp1953
(I3
I6
I9
I25
tp1954
tp1955
(lp1956
g6
ag7
as(g701
(I1
I5
I9
I28
tp1957
tp1958
(lp1959
g7
ag6
as((I0
I9
I10
I20
tp1960
(I0
I9
I10
I19
tp1961
tp1962
(lp1963
g7
ag6
as(g1175
(I0
I8
I9
I25
tp1964
tp1965
(lp1966
g6
ag7
as(g112
(I0
I4
I9
I14
tp1967
tp1968
(lp1969
g7
ag34
as(g725
(I1
I4
I9
I28
tp1970
tp1971
(lp1972
g7
ag12
as((I3
I4
I9
I23
tp1973
(I2
I4
I9
I23
tp1974
tp1975
(lp1976
g7
ag6
as(g434
(I1
I2
I9
I12
tp1977
tp1978
(lp1979
g7
ag6
as((I4
I6
I9
I25
tp1980
(I4
I6
I9
I24
tp1981
tp1982
(lp1983
g7
ag6
as((I2
I4
I9
I24
tp1984
(I2
I4
I9
I23
tp1985
tp1986
(lp1987
g7
ag6
as((I6
I9
I9
I21
tp1988
(I6
I9
I9
I20
tp1989
tp1990
(lp1991
g7
ag6
as((I2
I7
I9
I22
tp1992
(I2
I7
I9
I21
tp1993
tp1994
(lp1995
g7
ag6
as((I8
I9
I9
I18
tp1996
(I0
I0
I9
I18
tp1997
tp1998
(lp1999
g25
ag6
as((I2
I6
I9
I26
tp2000
(I2
I6
I9
I25
tp2001
tp2002
(lp2003
g7
ag6
as((I8
I9
I9
I25
tp2004
(I8
I9
I9
I24
tp2005
tp2006
(lp2007
g7
ag6
as((I4
I5
I9
I26
tp2008
(I0
I0
I9
I26
tp2009
tp2010
(lp2011
g6
ag6
as((I0
I15
I15
I24
tp2012
(I0
I15
I16
I24
tp2013
tp2014
(lp2015
g25
ag7
as((I0
I2
I9
I19
tp2016
(I0
I2
I9
I18
tp2017
tp2018
(lp2019
g7
ag6
as((I0
I7
I9
I15
tp2020
(I0
I8
I9
I15
tp2021
tp2022
(lp2023
g6
ag7
as((I1
I5
I9
I26
tp2024
(I1
I5
I9
I25
tp2025
tp2026
(lp2027
g7
ag6
as(g1422
(I0
I13
I13
I28
tp2028
tp2029
(lp2030
g25
ag7
as((I0
I12
I13
I18
tp2031
(I0
I13
I13
I18
tp2032
tp2033
(lp2034
g25
ag7
as((I0
I9
I10
I23
tp2035
(I0
I9
I10
I22
tp2036
tp2037
(lp2038
g7
ag6
as((I1
I5
I9
I11
tp2039
(I1
I5
I9
I10
tp2040
tp2041
(lp2042
g7
ag6
as(g2020
(I0
I7
I9
I14
tp2043
tp2044
(lp2045
g7
ag6
as(g258
(I3
I5
I9
I14
tp2046
tp2047
(lp2048
g7
ag6
as((I1
I2
I9
I17
tp2049
(I1
I2
I9
I16
tp2050
tp2051
(lp2052
g7
ag6
as(g1301
(I2
I8
I9
I26
tp2053
tp2054
(lp2055
g7
ag6
as((I3
I4
I9
I14
tp2056
(I0
I0
I9
I14
tp2057
tp2058
(lp2059
g6
ag6
as(g1524
(I0
I5
I9
I19
tp2060
tp2061
(lp2062
g7
ag34
as((I0
I11
I12
I22
tp2063
(I0
I12
I12
I22
tp2064
tp2065
(lp2066
g25
ag7
as((I0
I18
I19
I24
tp2067
(I0
I19
I19
I24
tp2068
tp2069
(lp2070
g25
ag7
as((I4
I6
I9
I21
tp2071
(I3
I6
I9
I21
tp2072
tp2073
(lp2074
g7
ag6
as((I0
I9
I9
I22
tp2075
(I0
I9
I10
I22
tp2076
tp2077
(lp2078
g83
ag7
as((I1
I2
I9
I14
tp2079
(I0
I0
I9
I14
tp2080
tp2081
(lp2082
g6
ag6
as((I0
I11
I11
I20
tp2083
(I0
I11
I12
I20
tp2084
tp2085
(lp2086
g25
ag7
as((I3
I6
I9
I25
tp2087
(I3
I6
I9
I24
tp2088
tp2089
(lp2090
g7
ag6
as((I0
I10
I11
I17
tp2091
(I0
I11
I11
I17
tp2092
tp2093
(lp2094
g25
ag7
as((I0
I7
I9
I13
tp2095
(I0
I7
I9
I12
tp2096
tp2097
(lp2098
g7
ag6
as((I0
I16
I16
I26
tp2099
(I0
I16
I17
I26
tp2100
tp2101
(lp2102
g25
ag7
as((I1
I4
I9
I25
tp2103
(I1
I5
I9
I25
tp2104
tp2105
(lp2106
g6
ag7
as((I0
I14
I15
I21
tp2107
(I0
I15
I15
I21
tp2108
tp2109
(lp2110
g25
ag7
as((I0
I16
I17
I23
tp2111
(I0
I16
I17
I22
tp2112
tp2113
(lp2114
g7
ag6
as((I4
I5
I9
I15
tp2115
(I3
I5
I9
I15
tp2116
tp2117
(lp2118
g7
ag6
as((I5
I9
I9
I21
tp2119
(I4
I9
I9
I21
tp2120
tp2121
(lp2122
g7
ag6
as((I0
I23
I23
I25
tp2123
(I0
I23
I24
I25
tp2124
tp2125
(lp2126
g25
ag7
as((I0
I16
I16
I21
tp2127
(I0
I16
I17
I21
tp2128
tp2129
(lp2130
g25
ag7
as((I3
I9
I9
I25
tp2131
(I2
I9
I9
I25
tp2132
tp2133
(lp2134
g7
ag6
as((I0
I11
I11
I26
tp2135
(I0
I11
I12
I26
tp2136
tp2137
(lp2138
g25
ag7
as((I4
I6
I9
I28
tp2139
(I4
I7
I9
I28
tp2140
tp2141
(lp2142
g6
ag7
as((I2
I6
I9
I23
tp2143
(I2
I6
I9
I22
tp2144
tp2145
(lp2146
g7
ag6
as((I0
I16
I17
I19
tp2147
(I0
I17
I17
I19
tp2148
tp2149
(lp2150
g25
ag7
as(g152
(I0
I19
I19
I22
tp2151
tp2152
(lp2153
g7
ag6
as((I2
I7
I9
I19
tp2154
(I2
I7
I9
I18
tp2155
tp2156
(lp2157
g7
ag6
as((I0
I11
I11
I24
tp2158
(I0
I11
I11
I23
tp2159
tp2160
(lp2161
g7
ag6
as((I6
I8
I9
I10
tp2162
(I6
I9
I9
I10
tp2163
tp2164
(lp2165
g25
ag7
as(g1099
(I5
I8
I9
I27
tp2166
tp2167
(lp2168
g7
ag6
as((I2
I6
I9
I27
tp2169
(I2
I6
I9
I26
tp2170
tp2171
(lp2172
g7
ag6
as((I2
I5
I9
I23
tp2173
(I2
I5
I9
I22
tp2174
tp2175
(lp2176
g7
ag6
as((I0
I2
I9
I15
tp2177
(I0
I2
I9
I14
tp2178
tp2179
(lp2180
g7
ag6
as((I0
I8
I9
I23
tp2181
(I0
I8
I9
I22
tp2182
tp2183
(lp2184
g7
ag6
as((I0
I10
I10
I24
tp2185
(I0
I10
I10
I23
tp2186
tp2187
(lp2188
g7
ag6
as(g2181
(I0
I9
I9
I23
tp2189
tp2190
(lp2191
g25
ag7
as((I2
I7
I9
I17
tp2192
(I2
I8
I9
I17
tp2193
tp2194
(lp2195
g6
ag7
as(g587
(I0
I7
I9
I17
tp2196
tp2197
(lp2198
g7
ag6
as((I4
I7
I9
I23
tp2199
(I4
I7
I9
I22
tp2200
tp2201
(lp2202
g7
ag6
as(g1159
(I1
I5
I9
I20
tp2203
tp2204
(lp2205
g7
ag6
as((I6
I8
I9
I11
tp2206
(I6
I8
I9
I10
tp2207
tp2208
(lp2209
g7
ag6
as((I2
I7
I9
I14
tp2210
(I2
I8
I9
I14
tp2211
tp2212
(lp2213
g6
ag7
as((I0
I12
I13
I20
tp2214
(I0
I13
I13
I20
tp2215
tp2216
(lp2217
g25
ag7
as((I2
I6
I9
I10
tp2218
(I1
I6
I9
I10
tp2219
tp2220
(lp2221
g7
ag6
as((I1
I7
I9
I21
tp2222
(I1
I8
I9
I21
tp2223
tp2224
(lp2225
g6
ag7
as((I0
I17
I17
I25
tp2226
(I0
I17
I18
I25
tp2227
tp2228
(lp2229
g25
ag7
as(g415
(I1
I3
I9
I16
tp2230
tp2231
(lp2232
g6
ag7
as((I0
I11
I11
I15
tp2233
(I0
I11
I12
I15
tp2234
tp2235
(lp2236
g25
ag7
as(g1332
(I2
I4
I9
I20
tp2237
tp2238
(lp2239
g7
ag6
as(g2123
(I0
I23
I23
I24
tp2240
tp2241
(lp2242
g7
ag6
as((I5
I7
I9
I10
tp2243
(I5
I8
I9
I10
tp2244
tp2245
(lp2246
g6
ag7
as((I1
I8
I9
I11
tp2247
(I1
I8
I9
I10
tp2248
tp2249
(lp2250
g7
ag6
as((I4
I7
I9
I21
tp2251
(I4
I8
I9
I21
tp2252
tp2253
(lp2254
g6
ag7
as((I0
I12
I13
I22
tp2255
(I0
I13
I13
I22
tp2256
tp2257
(lp2258
g25
ag7
as((I3
I5
I9
I22
tp2259
(I3
I6
I9
I22
tp2260
tp2261
(lp2262
g6
ag7
as(g458
(I2
I8
I9
I16
tp2263
tp2264
(lp2265
g7
ag6
as((I1
I9
I9
I16
tp2266
(I0
I9
I9
I16
tp2267
tp2268
(lp2269
g7
ag34
as(g71
(I5
I7
I9
I15
tp2270
tp2271
(lp2272
g7
ag6
as((I1
I2
I9
I11
tp2273
(I0
I0
I9
I11
tp2274
tp2275
(lp2276
g6
ag6
as((I0
I23
I24
I28
tp2277
(I0
I24
I24
I28
tp2278
tp2279
(lp2280
g25
ag7
as(g835
(I0
I0
I9
I17
tp2281
tp2282
(lp2283
g6
ag6
as(g2103
(I0
I4
I9
I25
tp2284
tp2285
(lp2286
g7
ag34
as((I2
I5
I9
I21
tp2287
(I2
I5
I9
I20
tp2288
tp2289
(lp2290
g7
ag6
as(g1356
(I3
I9
I9
I20
tp2291
tp2292
(lp2293
g7
ag6
as((I0
I11
I11
I16
tp2294
(I0
I11
I11
I15
tp2295
tp2296
(lp2297
g7
ag6
as((I1
I8
I9
I29
tp2298
(I0
I8
I9
I29
tp2299
tp2300
(lp2301
g7
ag34
as((I0
I3
I9
I17
tp2302
(I0
I3
I9
I16
tp2303
tp2304
(lp2305
g7
ag6
as(g661
(I2
I9
I9
I11
tp2306
tp2307
(lp2308
g7
ag6
as(g434
(I0
I2
I9
I13
tp2309
tp2310
(lp2311
g7
ag34
as(g579
(I4
I5
I9
I12
tp2312
tp2313
(lp2314
g7
ag6
as((I0
I4
I9
I15
tp2315
(I0
I4
I9
I14
tp2316
tp2317
(lp2318
g7
ag6
as((I1
I4
I9
I20
tp2319
(I1
I5
I9
I20
tp2320
tp2321
(lp2322
g6
ag7
as((I1
I3
I9
I22
tp2323
(I1
I3
I9
I21
tp2324
tp2325
(lp2326
g7
ag6
as((I0
I6
I9
I18
tp2327
(I0
I6
I9
I17
tp2328
tp2329
(lp2330
g7
ag6
as((I4
I7
I9
I27
tp2331
(I4
I8
I9
I27
tp2332
tp2333
(lp2334
g6
ag7
as((I5
I6
I9
I14
tp2335
(I5
I7
I9
I14
tp2336
tp2337
(lp2338
g6
ag7
as((I0
I13
I13
I15
tp2339
(I0
I13
I13
I14
tp2340
tp2341
(lp2342
g7
ag6
as((I7
I8
I9
I15
tp2343
(I7
I8
I9
I14
tp2344
tp2345
(lp2346
g7
ag6
as(g1611
(I0
I6
I9
I29
tp2347
tp2348
(lp2349
g7
ag34
as((I0
I2
I9
I12
tp2350
(I0
I2
I9
I11
tp2351
tp2352
(lp2353
g7
ag6
as((I0
I11
I12
I24
tp2354
(I0
I11
I12
I23
tp2355
tp2356
(lp2357
g7
ag6
as((I4
I9
I9
I14
tp2358
(I3
I9
I9
I14
tp2359
tp2360
(lp2361
g7
ag6
as((I5
I7
I9
I29
tp2362
(I4
I7
I9
I29
tp2363
tp2364
(lp2365
g7
ag6
as((I0
I10
I11
I13
tp2366
(I0
I10
I11
I12
tp2367
tp2368
(lp2369
g7
ag6
as(g2251
(I4
I7
I9
I20
tp2370
tp2371
(lp2372
g7
ag6
as((I3
I9
I9
I23
tp2373
(I3
I9
I9
I22
tp2374
tp2375
(lp2376
g7
ag6
as((I0
I10
I11
I21
tp2377
(I0
I10
I11
I20
tp2378
tp2379
(lp2380
g7
ag6
as((I0
I1
I9
I20
tp2381
(I0
I2
I9
I20
tp2382
tp2383
(lp2384
g6
ag7
as((I4
I8
I9
I11
tp2385
(I4
I9
I9
I11
tp2386
tp2387
(lp2388
g25
ag7
as(g524
(I0
I0
I9
I12
tp2389
tp2390
(lp2391
g6
ag6
as((I5
I7
I9
I18
tp2392
(I5
I7
I9
I17
tp2393
tp2394
(lp2395
g7
ag6
as((I0
I14
I15
I17
tp2396
(I0
I14
I15
I16
tp2397
tp2398
(lp2399
g7
ag6
as((I1
I5
I9
I18
tp2400
(I0
I5
I9
I18
tp2401
tp2402
(lp2403
g7
ag34
as(g1653
(I3
I7
I9
I19
tp2404
tp2405
(lp2406
g6
ag7
as((I2
I5
I9
I17
tp2407
(I1
I5
I9
I17
tp2408
tp2409
(lp2410
g7
ag6
as((I5
I8
I9
I23
tp2411
(I4
I8
I9
I23
tp2412
tp2413
(lp2414
g7
ag6
as((I8
I9
I9
I20
tp2415
(I8
I9
I9
I19
tp2416
tp2417
(lp2418
g7
ag6
as(g984
(I0
I5
I9
I27
tp2419
tp2420
(lp2421
g6
ag7
as(g508
(I7
I9
I9
I18
tp2422
tp2423
(lp2424
g25
ag7
as((I5
I6
I9
I26
tp2425
(I5
I6
I9
I25
tp2426
tp2427
(lp2428
g7
ag6
as(g1344
(I1
I3
I9
I18
tp2429
tp2430
(lp2431
g7
ag6
as(g1536
(I3
I6
I9
I20
tp2432
tp2433
(lp2434
g7
ag6
as((I6
I9
I9
I17
tp2435
(I5
I9
I9
I17
tp2436
tp2437
(lp2438
g7
ag6
as(g1069
(I5
I8
I9
I26
tp2439
tp2440
(lp2441
g6
ag7
as((I0
I7
I9
I24
tp2442
(I0
I7
I9
I23
tp2443
tp2444
(lp2445
g7
ag6
as((I0
I14
I15
I18
tp2446
(I0
I14
I15
I17
tp2447
tp2448
(lp2449
g7
ag6
as((I5
I8
I9
I15
tp2450
(I5
I8
I9
I14
tp2451
tp2452
(lp2453
g7
ag6
as(g1167
(I0
I24
I24
I29
tp2454
tp2455
(lp2456
g25
ag7
as(g1212
(I5
I8
I9
I15
tp2457
tp2458
(lp2459
g7
ag6
as(g1520
(I0
I11
I11
I18
tp2460
tp2461
(lp2462
g7
ag6
as((I3
I4
I9
I15
tp2463
(I3
I4
I9
I14
tp2464
tp2465
(lp2466
g7
ag6
as((I5
I8
I9
I12
tp2467
(I5
I8
I9
I11
tp2468
tp2469
(lp2470
g7
ag6
as(g395
(I4
I6
I9
I25
tp2471
tp2472
(lp2473
g7
ag6
as((I0
I3
I9
I15
tp2474
(I0
I3
I9
I14
tp2475
tp2476
(lp2477
g7
ag6
as(g996
(I2
I7
I9
I22
tp2478
tp2479
(lp2480
g7
ag6
as((I3
I9
I9
I22
tp2481
(I3
I9
I9
I21
tp2482
tp2483
(lp2484
g7
ag6
as((I1
I9
I9
I27
tp2485
(I0
I9
I9
I27
tp2486
tp2487
(lp2488
g7
ag34
as(g536
(I2
I9
I9
I27
tp2489
tp2490
(lp2491
g25
ag7
as(g2411
(I5
I8
I9
I22
tp2492
tp2493
(lp2494
g7
ag6
as(g516
(I1
I5
I9
I25
tp2495
tp2496
(lp2497
g7
ag6
as((I0
I13
I13
I19
tp2498
(I0
I13
I14
I19
tp2499
tp2500
(lp2501
g25
ag7
as(g2199
(I4
I8
I9
I23
tp2502
tp2503
(lp2504
g6
ag7
as((I1
I4
I9
I21
tp2505
(I1
I4
I9
I20
tp2506
tp2507
(lp2508
g7
ag6
as((I0
I6
I9
I12
tp2509
(I0
I7
I9
I12
tp2510
tp2511
(lp2512
g6
ag7
as(g454
(I6
I7
I9
I19
tp2513
tp2514
(lp2515
g7
ag6
as((I0
I13
I14
I19
tp2516
(I0
I14
I14
I19
tp2517
tp2518
(lp2519
g25
ag7
as(g2373
(I2
I9
I9
I23
tp2520
tp2521
(lp2522
g7
ag6
as((I7
I8
I9
I24
tp2523
(I0
I0
I9
I24
tp2524
tp2525
(lp2526
g6
ag6
as((I2
I4
I9
I23
tp2527
(I2
I4
I9
I22
tp2528
tp2529
(lp2530
g7
ag6
as((I2
I8
I9
I28
tp2531
(I2
I9
I9
I28
tp2532
tp2533
(lp2534
g25
ag7
as((I0
I5
I9
I21
tp2535
(I0
I6
I9
I21
tp2536
tp2537
(lp2538
g6
ag7
as((I0
I20
I20
I23
tp2539
(I0
I20
I20
I22
tp2540
tp2541
(lp2542
g7
ag6
as(g1980
(I3
I6
I9
I25
tp2543
tp2544
(lp2545
g7
ag6
as(g1328
(I1
I3
I9
I25
tp2546
tp2547
(lp2548
g7
ag6
as(g1046
(I2
I5
I9
I28
tp2549
tp2550
(lp2551
g7
ag6
as(g1681
(I6
I7
I9
I22
tp2552
tp2553
(lp2554
g7
ag6
as((I1
I2
I9
I15
tp2555
(I1
I3
I9
I15
tp2556
tp2557
(lp2558
g6
ag7
as((I1
I5
I9
I13
tp2559
(I1
I5
I9
I12
tp2560
tp2561
(lp2562
g7
ag6
as((I3
I7
I9
I25
tp2563
(I3
I7
I9
I24
tp2564
tp2565
(lp2566
g7
ag6
as(g1633
(I2
I6
I9
I10
tp2567
tp2568
(lp2569
g6
ag7
as(g1681
(I6
I8
I9
I23
tp2570
tp2571
(lp2572
g6
ag7
as((I0
I3
I9
I28
tp2573
(I0
I3
I9
I27
tp2574
tp2575
(lp2576
g7
ag6
as((I5
I8
I9
I18
tp2577
(I5
I9
I9
I18
tp2578
tp2579
(lp2580
g25
ag7
as(g1984
(I2
I5
I9
I24
tp2581
tp2582
(lp2583
g6
ag7
as(g79
(I0
I9
I9
I10
tp2584
tp2585
(lp2586
g7
ag6
as(g232
(I0
I7
I9
I18
tp2587
tp2588
(lp2589
g7
ag34
as((I0
I17
I18
I23
tp2590
(I0
I17
I18
I22
tp2591
tp2592
(lp2593
g7
ag6
as((I7
I9
I9
I26
tp2594
(I6
I9
I9
I26
tp2595
tp2596
(lp2597
g7
ag6
as(g391
(I0
I4
I9
I21
tp2598
tp2599
(lp2600
g6
ag7
as(g1258
(I2
I7
I9
I23
tp2601
tp2602
(lp2603
g7
ag6
as((I1
I9
I9
I14
tp2604
(I1
I9
I9
I13
tp2605
tp2606
(lp2607
g7
ag6
as((I2
I8
I9
I22
tp2608
(I2
I8
I9
I21
tp2609
tp2610
(lp2611
g7
ag6
as((I4
I8
I9
I10
tp2612
(I3
I8
I9
I10
tp2613
tp2614
(lp2615
g7
ag6
as((I4
I5
I9
I16
tp2616
(I4
I6
I9
I16
tp2617
tp2618
(lp2619
g6
ag7
as((I2
I6
I9
I12
tp2620
(I2
I6
I9
I11
tp2621
tp2622
(lp2623
g7
ag6
as((I0
I1
I9
I17
tp2624
(I0
I1
I9
I16
tp2625
tp2626
(lp2627
g7
ag6
as((I0
I22
I23
I29
tp2628
(I0
I23
I23
I29
tp2629
tp2630
(lp2631
g25
ag7
as(g1945
(I6
I9
I9
I25
tp2632
tp2633
(lp2634
g7
ag6
as(g598
(I3
I5
I9
I20
tp2635
tp2636
(lp2637
g7
ag6
as((I0
I16
I16
I23
tp2638
(I0
I16
I17
I23
tp2639
tp2640
(lp2641
g25
ag7
as((I0
I17
I17
I27
tp2642
(I0
I17
I18
I27
tp2643
tp2644
(lp2645
g25
ag7
as(g1057
(I4
I6
I9
I21
tp2646
tp2647
(lp2648
g7
ag6
as(g1891
(I1
I3
I9
I10
tp2649
tp2650
(lp2651
g7
ag6
as((I2
I6
I9
I15
tp2652
(I1
I6
I9
I15
tp2653
tp2654
(lp2655
g7
ag6
as(g1980
(I4
I7
I9
I25
tp2656
tp2657
(lp2658
g6
ag7
as((I5
I6
I9
I11
tp2659
(I4
I6
I9
I11
tp2660
tp2661
(lp2662
g7
ag6
as((I4
I8
I9
I26
tp2663
(I4
I8
I9
I25
tp2664
tp2665
(lp2666
g7
ag6
as(g228
(I0
I1
I9
I20
tp2667
tp2668
(lp2669
g7
ag6
as((I1
I3
I9
I17
tp2670
(I0
I3
I9
I17
tp2671
tp2672
(lp2673
g7
ag34
as(g1586
(I0
I16
I17
I20
tp2674
tp2675
(lp2676
g25
ag7
as((I5
I6
I9
I29
tp2677
(I4
I6
I9
I29
tp2678
tp2679
(lp2680
g7
ag6
as((I0
I6
I9
I14
tp2681
(I0
I6
I9
I13
tp2682
tp2683
(lp2684
g7
ag6
as(g756
(I0
I22
I23
I24
tp2685
tp2686
(lp2687
g7
ag6
as((I0
I16
I16
I22
tp2688
(I0
I16
I17
I22
tp2689
tp2690
(lp2691
g25
ag7
as((I0
I9
I9
I16
tp2692
(I0
I9
I9
I15
tp2693
tp2694
(lp2695
g7
ag6
as((I0
I14
I15
I25
tp2696
(I0
I15
I15
I25
tp2697
tp2698
(lp2699
g25
ag7
as((I7
I8
I9
I11
tp2700
(I7
I8
I9
I10
tp2701
tp2702
(lp2703
g7
ag6
as(g2107
(I0
I14
I15
I20
tp2704
tp2705
(lp2706
g7
ag6
as((I6
I7
I9
I18
tp2707
(I0
I0
I9
I18
tp2708
tp2709
(lp2710
g6
ag6
as(g488
(I5
I7
I9
I10
tp2711
tp2712
(lp2713
g6
ag7
as(g633
(I5
I8
I9
I19
tp2714
tp2715
(lp2716
g6
ag7
as((I0
I3
I9
I19
tp2717
(I0
I3
I9
I18
tp2718
tp2719
(lp2720
g7
ag6
as(g1917
(I2
I5
I9
I19
tp2721
tp2722
(lp2723
g7
ag6
as((I1
I9
I9
I21
tp2724
(I1
I9
I9
I20
tp2725
tp2726
(lp2727
g7
ag6
as((I0
I21
I22
I28
tp2728
(I0
I22
I22
I28
tp2729
tp2730
(lp2731
g25
ag7
as((I3
I7
I9
I29
tp2732
(I3
I8
I9
I29
tp2733
tp2734
(lp2735
g6
ag7
as(g516
(I2
I5
I9
I24
tp2736
tp2737
(lp2738
g7
ag6
as((I4
I9
I9
I21
tp2739
(I3
I9
I9
I21
tp2740
tp2741
(lp2742
g7
ag6
as((I0
I3
I9
I20
tp2743
(I0
I4
I9
I20
tp2744
tp2745
(lp2746
g6
ag7
as(g536
(I2
I8
I9
I26
tp2747
tp2748
(lp2749
g7
ag6
as((I3
I5
I9
I17
tp2750
(I3
I5
I9
I16
tp2751
tp2752
(lp2753
g7
ag6
as((I3
I6
I9
I26
tp2754
(I2
I6
I9
I26
tp2755
tp2756
(lp2757
g7
ag6
as(g1665
(I0
I2
I9
I18
tp2758
tp2759
(lp2760
g7
ag34
as((I6
I8
I9
I19
tp2761
(I6
I9
I9
I19
tp2762
tp2763
(lp2764
g25
ag7
as((I1
I4
I9
I11
tp2765
(I1
I4
I9
I10
tp2766
tp2767
(lp2768
g7
ag6
as(g1368
(I5
I6
I9
I16
tp2769
tp2770
(lp2771
g7
ag6
as((I0
I15
I15
I18
tp2772
(I0
I15
I16
I18
tp2773
tp2774
(lp2775
g25
ag7
as((I0
I6
I9
I15
tp2776
(I0
I6
I9
I14
tp2777
tp2778
(lp2779
g7
ag6
as((I4
I9
I9
I29
tp2780
(I3
I9
I9
I29
tp2781
tp2782
(lp2783
g7
ag6
as((I0
I3
I9
I27
tp2784
(I0
I4
I9
I27
tp2785
tp2786
(lp2787
g6
ag7
as((I1
I6
I9
I23
tp2788
(I0
I6
I9
I23
tp2789
tp2790
(lp2791
g7
ag34
as(g1996
(I8
I9
I9
I17
tp2792
tp2793
(lp2794
g7
ag6
as(g2463
(I3
I5
I9
I15
tp2795
tp2796
(lp2797
g6
ag7
as(g1516
(I0
I0
I9
I11
tp2798
tp2799
(lp2800
g6
ag34
as(g717
(I2
I6
I9
I28
tp2801
tp2802
(lp2803
g7
ag12
as(g575
(I4
I9
I9
I18
tp2804
tp2805
(lp2806
g7
ag6
as(g96
(I1
I4
I9
I23
tp2807
tp2808
(lp2809
g7
ag6
as(g693
(I6
I8
I9
I21
tp2810
tp2811
(lp2812
g7
ag6
as((I0
I2
I9
I18
tp2813
(I0
I2
I9
I17
tp2814
tp2815
(lp2816
g7
ag6
as((I0
I18
I19
I28
tp2817
(I0
I18
I19
I27
tp2818
tp2819
(lp2820
g7
ag6
as((I4
I8
I9
I14
tp2821
(I4
I9
I9
I14
tp2822
tp2823
(lp2824
g25
ag7
as(g637
(I3
I5
I9
I19
tp2825
tp2826
(lp2827
g7
ag6
as(g1387
(I4
I8
I9
I10
tp2828
tp2829
(lp2830
g7
ag6
as((I2
I3
I9
I14
tp2831
(I2
I4
I9
I14
tp2832
tp2833
(lp2834
g6
ag7
as((I2
I7
I9
I11
tp2835
(I2
I8
I9
I11
tp2836
tp2837
(lp2838
g6
ag7
as((I0
I21
I21
I26
tp2839
(I0
I21
I22
I26
tp2840
tp2841
(lp2842
g25
ag7
as((I5
I8
I9
I13
tp2843
(I5
I8
I9
I12
tp2844
tp2845
(lp2846
g7
ag6
as((I0
I22
I22
I26
tp2847
(I0
I22
I22
I25
tp2848
tp2849
(lp2850
g7
ag6
as((I0
I14
I15
I23
tp2851
(I0
I15
I15
I23
tp2852
tp2853
(lp2854
g25
ag7
as((I0
I10
I11
I26
tp2855
(I0
I10
I11
I25
tp2856
tp2857
(lp2858
g7
ag6
as(g2688
(I0
I16
I16
I21
tp2859
tp2860
(lp2861
g7
ag6
as(g1492
(I0
I0
I9
I16
tp2862
tp2863
(lp2864
g6
ag6
as(g1348
(I2
I5
I9
I19
tp2865
tp2866
(lp2867
g6
ag7
as((I8
I9
I9
I17
tp2868
(I0
I0
I9
I17
tp2869
tp2870
(lp2871
g25
ag6
as((I0
I10
I10
I21
tp2872
(I0
I10
I10
I20
tp2873
tp2874
(lp2875
g7
ag6
as((I8
I9
I9
I27
tp2876
(I0
I0
I9
I27
tp2877
tp2878
(lp2879
g25
ag6
as(g2700
(I0
I0
I9
I11
tp2880
tp2881
(lp2882
g6
ag6
as((I2
I7
I9
I26
tp2883
(I2
I8
I9
I26
tp2884
tp2885
(lp2886
g6
ag7
as(g2485
(I1
I9
I9
I26
tp2887
tp2888
(lp2889
g7
ag6
as((I0
I10
I10
I16
tp2890
(I0
I10
I10
I15
tp2891
tp2892
(lp2893
g7
ag6
as(g1925
(I0
I17
I17
I22
tp2894
tp2895
(lp2896
g7
ag6
as((I0
I26
I27
I28
tp2897
(I0
I27
I27
I28
tp2898
tp2899
(lp2900
g25
ag7
as((I0
I23
I23
I26
tp2901
(I0
I23
I23
I25
tp2902
tp2903
(lp2904
g7
ag6
as((I2
I4
I9
I16
tp2905
(I2
I5
I9
I16
tp2906
tp2907
(lp2908
g6
ag7
as((I7
I8
I9
I13
tp2909
(I0
I0
I9
I13
tp2910
tp2911
(lp2912
g6
ag6
as((I0
I15
I15
I20
tp2913
(I0
I15
I16
I20
tp2914
tp2915
(lp2916
g25
ag7
as((I3
I6
I9
I22
tp2917
(I3
I6
I9
I21
tp2918
tp2919
(lp2920
g7
ag6
as((I2
I6
I9
I22
tp2921
(I2
I6
I9
I21
tp2922
tp2923
(lp2924
g7
ag6
as((I0
I17
I17
I28
tp2925
(I0
I17
I18
I28
tp2926
tp2927
(lp2928
g25
ag7
as((I1
I8
I9
I27
tp2929
(I1
I8
I9
I26
tp2930
tp2931
(lp2932
g7
ag6
as((I3
I4
I9
I19
tp2933
(I3
I5
I9
I19
tp2934
tp2935
(lp2936
g6
ag7
as((I1
I2
I9
I24
tp2937
(I0
I2
I9
I24
tp2938
tp2939
(lp2940
g7
ag34
as((I1
I5
I9
I14
tp2941
(I0
I5
I9
I14
tp2942
tp2943
(lp2944
g7
ag34
as(g1822
(I0
I9
I9
I11
tp2945
tp2946
(lp2947
g25
ag7
as(g1895
(I2
I4
I9
I10
tp2948
tp2949
(lp2950
g7
ag6
as((I0
I11
I12
I26
tp2951
(I0
I12
I12
I26
tp2952
tp2953
(lp2954
g25
ag7
as(g2319
(I1
I4
I9
I19
tp2955
tp2956
(lp2957
g7
ag6
as((I1
I5
I9
I12
tp2958
(I1
I5
I9
I11
tp2959
tp2960
(lp2961
g7
ag6
as((I2
I7
I9
I12
tp2962
(I2
I8
I9
I12
tp2963
tp2964
(lp2965
g6
ag7
as(g1418
(I4
I8
I9
I24
tp2966
tp2967
(lp2968
g7
ag6
as((I0
I17
I18
I25
tp2969
(I0
I17
I18
I24
tp2970
tp2971
(lp2972
g7
ag6
as((I4
I6
I9
I17
tp2973
(I4
I6
I9
I16
tp2974
tp2975
(lp2976
g7
ag6
as(g1163
(I6
I8
I9
I10
tp2977
tp2978
(lp2979
g7
ag6
as((I0
I10
I11
I23
tp2980
(I0
I11
I11
I23
tp2981
tp2982
(lp2983
g25
ag7
as((I0
I4
I9
I25
tp2984
(I0
I5
I9
I25
tp2985
tp2986
(lp2987
g6
ag7
as((I0
I11
I12
I13
tp2988
(I0
I12
I12
I13
tp2989
tp2990
(lp2991
g25
ag7
as((I0
I19
I19
I26
tp2992
(I0
I19
I19
I25
tp2993
tp2994
(lp2995
g7
ag6
as((I2
I9
I9
I27
tp2996
(I2
I9
I9
I26
tp2997
tp2998
(lp2999
g7
ag6
as(g2400
(I1
I6
I9
I18
tp3000
tp3001
(lp3002
g6
ag7
as((I7
I8
I9
I27
tp3003
(I0
I0
I9
I27
tp3004
tp3005
(lp3006
g6
ag6
as((I0
I13
I14
I27
tp3007
(I0
I13
I14
I26
tp3008
tp3009
(lp3010
g7
ag6
as(g2905
(I1
I4
I9
I16
tp3011
tp3012
(lp3013
g7
ag6
as(g2425
(I4
I6
I9
I26
tp3014
tp3015
(lp3016
g7
ag6
as((I1
I5
I9
I17
tp3017
(I1
I6
I9
I17
tp3018
tp3019
(lp3020
g6
ag7
as((I0
I4
I9
I12
tp3021
(I0
I4
I9
I11
tp3022
tp3023
(lp3024
g7
ag6
as(g732
(I0
I0
I9
I25
tp3025
tp3026
(lp3027
g6
ag6
as((I7
I9
I9
I13
tp3028
(I6
I9
I9
I13
tp3029
tp3030
(lp3031
g7
ag6
as((I2
I3
I9
I12
tp3032
(I1
I3
I9
I12
tp3033
tp3034
(lp3035
g7
ag6
as((I4
I5
I9
I20
tp3036
(I4
I5
I9
I19
tp3037
tp3038
(lp3039
g7
ag6
as((I0
I12
I12
I28
tp3040
(I0
I12
I13
I28
tp3041
tp3042
(lp3043
g25
ag7
as((I0
I23
I23
I28
tp3044
(I0
I23
I24
I28
tp3045
tp3046
(lp3047
g25
ag7
as((I0
I8
I9
I20
tp3048
(I0
I8
I9
I19
tp3049
tp3050
(lp3051
g7
ag6
as(g2608
(I1
I8
I9
I22
tp3052
tp3053
(lp3054
g7
ag6
as(g768
(I5
I9
I9
I12
tp3055
tp3056
(lp3057
g7
ag6
as(g2185
(I0
I10
I11
I24
tp3058
tp3059
(lp3060
g25
ag7
as(g2323
(I1
I4
I9
I22
tp3061
tp3062
(lp3063
g6
ag7
as(g2539
(I0
I20
I21
I23
tp3064
tp3065
(lp3066
g25
ag7
as(g2366
(I0
I11
I11
I13
tp3067
tp3068
(lp3069
g25
ag7
as(g780
(I3
I6
I9
I27
tp3070
tp3071
(lp3072
g6
ag7
as((I0
I7
I9
I11
tp3073
(I0
I7
I9
I10
tp3074
tp3075
(lp3076
g7
ag6
as((I2
I6
I9
I14
tp3077
(I1
I6
I9
I14
tp3078
tp3079
(lp3080
g7
ag6
as((I2
I7
I9
I20
tp3081
(I1
I7
I9
I20
tp3082
tp3083
(lp3084
g7
ag6
as((I8
I9
I9
I21
tp3085
(I0
I0
I9
I21
tp3086
tp3087
(lp3088
g25
ag6
as((I7
I8
I9
I25
tp3089
(I7
I8
I9
I24
tp3090
tp3091
(lp3092
g7
ag6
as((I0
I13
I13
I17
tp3093
(I0
I13
I13
I16
tp3094
tp3095
(lp3096
g7
ag6
as(g220
(I8
I9
I9
I29
tp3097
tp3098
(lp3099
g25
ag6
as((I1
I8
I9
I26
tp3100
(I1
I8
I9
I25
tp3101
tp3102
(lp3103
g7
ag6
as((I0
I9
I10
I13
tp3104
(I0
I10
I10
I13
tp3105
tp3106
(lp3107
g25
ag7
as((I6
I9
I9
I29
tp3108
(I5
I9
I9
I29
tp3109
tp3110
(lp3111
g7
ag6
as((I2
I5
I9
I14
tp3112
(I2
I6
I9
I14
tp3113
tp3114
(lp3115
g6
ag7
as(g2732
(I3
I7
I9
I28
tp3116
tp3117
(lp3118
g7
ag12
as((I2
I6
I9
I11
tp3119
(I2
I7
I9
I11
tp3120
tp3121
(lp3122
g6
ag7
as((I0
I15
I16
I29
tp3123
(I0
I16
I16
I29
tp3124
tp3125
(lp3126
g25
ag7
as((I1
I7
I9
I12
tp3127
(I1
I8
I9
I12
tp3128
tp3129
(lp3130
g6
ag7
as((I3
I7
I9
I22
tp3131
(I3
I7
I9
I21
tp3132
tp3133
(lp3134
g7
ag6
as(g1933
(I0
I0
I9
I26
tp3135
tp3136
(lp3137
g6
ag6
as((I2
I9
I9
I23
tp3138
(I2
I9
I9
I22
tp3139
tp3140
(lp3141
g7
ag6
as(g2594
(I7
I9
I9
I25
tp3142
tp3143
(lp3144
g7
ag6
as(g1472
(I2
I5
I9
I25
tp3145
tp3146
(lp3147
g6
ag7
as(g2670
(I1
I3
I9
I16
tp3148
tp3149
(lp3150
g7
ag6
as((I7
I9
I9
I12
tp3151
(I6
I9
I9
I12
tp3152
tp3153
(lp3154
g7
ag6
as((I0
I1
I9
I29
tp3155
(I0
I2
I9
I29
tp3156
tp3157
(lp3158
g6
ag7
as((I0
I12
I12
I26
tp3159
(I0
I12
I12
I25
tp3160
tp3161
(lp3162
g7
ag6
as(g188
(I2
I5
I9
I23
tp3163
tp3164
(lp3165
g7
ag6
as((I0
I15
I16
I19
tp3166
(I0
I16
I16
I19
tp3167
tp3168
(lp3169
g25
ag7
as((I3
I4
I9
I25
tp3170
(I3
I5
I9
I25
tp3171
tp3172
(lp3173
g6
ag7
as((I6
I7
I9
I11
tp3174
(I6
I8
I9
I11
tp3175
tp3176
(lp3177
g6
ag7
as(g1752
(I0
I7
I9
I16
tp3178
tp3179
(lp3180
g6
ag7
as((I0
I9
I9
I17
tp3181
(I0
I9
I9
I16
tp3182
tp3183
(lp3184
g7
ag6
as(g216
(I0
I0
I9
I23
tp3185
tp3186
(lp3187
g6
ag6
as(g1814
(I0
I14
I14
I18
tp3188
tp3189
(lp3190
g7
ag6
as(g1641
(I0
I6
I9
I14
tp3191
tp3192
(lp3193
g7
ag34
as(g2
(I3
I6
I9
I10
tp3194
tp3195
(lp3196
g7
ag6
as((I1
I3
I9
I16
tp3197
(I0
I3
I9
I16
tp3198
tp3199
(lp3200
g7
ag34
as(g717
(I2
I7
I9
I29
tp3201
tp3202
(lp3203
g6
ag7
as(g2992
(I0
I19
I20
I26
tp3204
tp3205
(lp3206
g25
ag7
as(g88
(I4
I8
I9
I17
tp3207
tp3208
(lp3209
g7
ag6
as((I0
I15
I15
I29
tp3210
(I0
I15
I16
I29
tp3211
tp3212
(lp3213
g25
ag7
as(g2056
(I3
I4
I9
I13
tp3214
tp3215
(lp3216
g7
ag6
as(g266
(I2
I5
I9
I21
tp3217
tp3218
(lp3219
g7
ag6
as(g2467
(I4
I8
I9
I12
tp3220
tp3221
(lp3222
g7
ag6
as((I1
I6
I9
I11
tp3223
(I0
I6
I9
I11
tp3224
tp3225
(lp3226
g7
ag34
as((I0
I11
I12
I19
tp3227
(I0
I12
I12
I19
tp3228
tp3229
(lp3230
g25
ag7
as(g2154
(I2
I8
I9
I19
tp3231
tp3232
(lp3233
g6
ag7
as((I0
I13
I14
I29
tp3234
(I0
I14
I14
I29
tp3235
tp3236
(lp3237
g25
ag7
as(g2435
(I6
I9
I9
I16
tp3238
tp3239
(lp3240
g7
ag6
as(g3032
(I2
I3
I9
I11
tp3241
tp3242
(lp3243
g7
ag6
as((I6
I7
I9
I25
tp3244
(I6
I8
I9
I25
tp3245
tp3246
(lp3247
g6
ag7
as((I2
I3
I9
I11
tp3248
(I2
I3
I9
I10
tp3249
tp3250
(lp3251
g7
ag6
as((I5
I6
I9
I18
tp3252
(I4
I6
I9
I18
tp3253
tp3254
(lp3255
g7
ag6
as(g1139
(I6
I8
I9
I17
tp3256
tp3257
(lp3258
g7
ag6
as(g2901
(I0
I23
I24
I26
tp3259
tp3260
(lp3261
g25
ag7
as((I5
I6
I9
I24
tp3262
(I4
I6
I9
I24
tp3263
tp3264
(lp3265
g7
ag6
as(g67
(I1
I3
I9
I25
tp3266
tp3267
(lp3268
g6
ag7
as(g212
(I0
I0
I9
I22
tp3269
tp3270
(lp3271
g6
ag6
as(g760
(I0
I20
I20
I27
tp3272
tp3273
(lp3274
g7
ag6
as((I0
I7
I9
I16
tp3275
(I0
I7
I9
I15
tp3276
tp3277
(lp3278
g7
ag6
as((I0
I24
I25
I29
tp3279
(I0
I24
I25
I28
tp3280
tp3281
(lp3282
g7
ag12
as((I0
I12
I12
I27
tp3283
(I0
I12
I13
I27
tp3284
tp3285
(lp3286
g25
ag7
as((I6
I7
I9
I14
tp3287
(I0
I0
I9
I14
tp3288
tp3289
(lp3290
g6
ag6
as(g2523
(I7
I9
I9
I24
tp3291
tp3292
(lp3293
g25
ag7
as(g2206
(I5
I8
I9
I11
tp3294
tp3295
(lp3296
g7
ag6
as((I0
I12
I12
I14
tp3297
(I0
I12
I13
I14
tp3298
tp3299
(lp3300
g25
ag7
as((I2
I7
I9
I13
tp3301
(I2
I8
I9
I13
tp3302
tp3303
(lp3304
g6
ag7
as(g2663
(I3
I8
I9
I26
tp3305
tp3306
(lp3307
g7
ag6
as((I0
I9
I10
I17
tp3308
(I0
I10
I10
I17
tp3309
tp3310
(lp3311
g25
ag7
as(g2700
(I6
I8
I9
I11
tp3312
tp3313
(lp3314
g7
ag6
as(g2343
(I6
I8
I9
I15
tp3315
tp3316
(lp3317
g7
ag6
as((I0
I19
I19
I21
tp3318
(I0
I19
I20
I21
tp3319
tp3320
(lp3321
g25
ag7
as((I7
I9
I9
I22
tp3322
(I6
I9
I9
I22
tp3323
tp3324
(lp3325
g7
ag6
as((I0
I11
I11
I13
tp3326
(I0
I11
I12
I13
tp3327
tp3328
(lp3329
g25
ag7
as((I4
I6
I9
I10
tp3330
(I4
I7
I9
I10
tp3331
tp3332
(lp3333
g6
ag7
as(g520
(I0
I10
I10
I21
tp3334
tp3335
(lp3336
g25
ag7
as((I3
I5
I9
I15
tp3337
(I3
I5
I9
I14
tp3338
tp3339
(lp3340
g7
ag6
as((I0
I14
I14
I28
tp3341
(I0
I14
I15
I28
tp3342
tp3343
(lp3344
g25
ag7
as((I4
I5
I9
I29
tp3345
(I4
I6
I9
I29
tp3346
tp3347
(lp3348
g6
ag7
as((I0
I15
I15
I22
tp3349
(I0
I15
I15
I21
tp3350
tp3351
(lp3352
g7
ag6
as(g450
(I5
I8
I9
I17
tp3353
tp3354
(lp3355
g6
ag7
as((I1
I5
I9
I15
tp3356
(I1
I5
I9
I14
tp3357
tp3358
(lp3359
g7
ag6
as(g2788
(I1
I7
I9
I23
tp3360
tp3361
(lp3362
g6
ag7
as((I1
I3
I9
I14
tp3363
(I0
I3
I9
I14
tp3364
tp3365
(lp3366
g7
ag34
as(g3131
(I3
I8
I9
I22
tp3367
tp3368
(lp3369
g6
ag7
as((I6
I7
I9
I10
tp3370
(I6
I8
I9
I10
tp3371
tp3372
(lp3373
g6
ag7
as((I3
I4
I9
I28
tp3374
(I3
I4
I9
I27
tp3375
tp3376
(lp3377
g7
ag6
as((I2
I4
I9
I21
tp3378
(I2
I4
I9
I20
tp3379
tp3380
(lp3381
g7
ag6
as(g462
(I4
I6
I9
I15
tp3382
tp3383
(lp3384
g7
ag6
as(g1544
(I0
I9
I9
I24
tp3385
tp3386
(lp3387
g7
ag6
as(g2259
(I2
I5
I9
I22
tp3388
tp3389
(lp3390
g7
ag6
as((I0
I20
I21
I24
tp3391
(I0
I20
I21
I23
tp3392
tp3393
(lp3394
g7
ag6
as((I0
I5
I9
I19
tp3395
(I0
I6
I9
I19
tp3396
tp3397
(lp3398
g6
ag7
as((I2
I3
I9
I18
tp3399
(I2
I3
I9
I17
tp3400
tp3401
(lp3402
g7
ag6
as((I1
I5
I9
I23
tp3403
(I1
I5
I9
I22
tp3404
tp3405
(lp3406
g7
ag6
as((I2
I4
I9
I15
tp3407
(I2
I5
I9
I15
tp3408
tp3409
(lp3410
g6
ag7
as((I8
I9
I9
I13
tp3411
(I0
I0
I9
I13
tp3412
tp3413
(lp3414
g25
ag6
as((I7
I8
I9
I19
tp3415
(I6
I8
I9
I19
tp3416
tp3417
(lp3418
g7
ag6
as(g368
(I0
I18
I19
I20
tp3419
tp3420
(lp3421
g25
ag7
as((I0
I9
I9
I23
tp3422
(I0
I9
I10
I23
tp3423
tp3424
(lp3425
g83
ag7
as((I1
I9
I9
I15
tp3426
(I1
I9
I9
I14
tp3427
tp3428
(lp3429
g7
ag6
as(g693
(I7
I8
I9
I20
tp3430
tp3431
(lp3432
g7
ag6
as(g3363
(I1
I4
I9
I14
tp3433
tp3434
(lp3435
g6
ag7
as(g2056
(I3
I5
I9
I14
tp3436
tp3437
(lp3438
g6
ag7
as((I0
I5
I9
I17
tp3439
(I0
I5
I9
I16
tp3440
tp3441
(lp3442
g7
ag6
as(g140
(I0
I6
I9
I23
tp3443
tp3444
(lp3445
g6
ag7
as(g1846
(I6
I8
I9
I22
tp3446
tp3447
(lp3448
g7
ag6
as(g2821
(I4
I8
I9
I13
tp3449
tp3450
(lp3451
g7
ag6
as(g945
(I1
I5
I9
I11
tp3452
tp3453
(lp3454
g7
ag6
as(g2962
(I1
I7
I9
I12
tp3455
tp3456
(lp3457
g7
ag6
as((I0
I17
I18
I22
tp3458
(I0
I17
I18
I21
tp3459
tp3460
(lp3461
g7
ag6
as(g2400
(I1
I5
I9
I17
tp3462
tp3463
(lp3464
g7
ag6
as(g3374
(I3
I5
I9
I28
tp3465
tp3466
(lp3467
g6
ag7
as(g1807
(I0
I19
I20
I22
tp3468
tp3469
(lp3470
g25
ag7
as((I6
I8
I9
I25
tp3471
(I5
I8
I9
I25
tp3472
tp3473
(lp3474
g7
ag6
as(g1578
(I0
I15
I15
I27
tp3475
tp3476
(lp3477
g25
ag7
as((I1
I3
I9
I29
tp3478
(I1
I4
I9
I29
tp3479
tp3480
(lp3481
g6
ag7
as((I0
I15
I16
I27
tp3482
(I0
I16
I16
I27
tp3483
tp3484
(lp3485
g25
ag7
as(g1741
(I5
I8
I9
I19
tp3486
tp3487
(lp3488
g7
ag6
as((I2
I8
I9
I20
tp3489
(I2
I8
I9
I19
tp3490
tp3491
(lp3492
g7
ag6
as(g2192
(I1
I7
I9
I17
tp3493
tp3494
(lp3495
g7
ag6
as((I4
I7
I9
I28
tp3496
(I3
I7
I9
I28
tp3497
tp3498
(lp3499
g7
ag6
as((I3
I4
I9
I18
tp3500
(I3
I4
I9
I17
tp3501
tp3502
(lp3503
g7
ag6
as((I3
I8
I9
I13
tp3504
(I2
I8
I9
I13
tp3505
tp3506
(lp3507
g7
ag6
as(g500
(I0
I6
I9
I23
tp3508
tp3509
(lp3510
g7
ag6
as((I0
I14
I14
I25
tp3511
(I0
I14
I15
I25
tp3512
tp3513
(lp3514
g25
ag7
as((I0
I5
I9
I29
tp3515
(I0
I5
I9
I28
tp3516
tp3517
(lp3518
g7
ag12
as((I0
I19
I20
I26
tp3519
(I0
I20
I20
I26
tp3520
tp3521
(lp3522
g25
ag7
as((I3
I7
I9
I27
tp3523
(I2
I7
I9
I27
tp3524
tp3525
(lp3526
g7
ag6
as((I2
I3
I9
I20
tp3527
(I1
I3
I9
I20
tp3528
tp3529
(lp3530
g7
ag6
as(g2835
(I2
I7
I9
I10
tp3531
tp3532
(lp3533
g7
ag6
as((I5
I8
I9
I16
tp3534
(I5
I8
I9
I15
tp3535
tp3536
(lp3537
g7
ag6
as(g2259
(I3
I5
I9
I21
tp3538
tp3539
(lp3540
g7
ag6
as(g897
(I1
I2
I9
I20
tp3541
tp3542
(lp3543
g7
ag6
as((I0
I2
I9
I23
tp3544
(I0
I2
I9
I22
tp3545
tp3546
(lp3547
g7
ag6
as(g1528
(I0
I7
I9
I17
tp3548
tp3549
(lp3550
g6
ag7
as(g112
(I1
I4
I9
I13
tp3551
tp3552
(lp3553
g7
ag6
as(g220
(I6
I7
I9
I29
tp3554
tp3555
(lp3556
g6
ag6
as(g3262
(I0
I0
I9
I24
tp3557
tp3558
(lp3559
g6
ag6
as(g2909
(I7
I8
I9
I12
tp3560
tp3561
(lp3562
g7
ag6
as((I0
I18
I18
I24
tp3563
(I0
I18
I19
I24
tp3564
tp3565
(lp3566
g25
ag7
as((I0
I3
I9
I18
tp3567
(I0
I3
I9
I17
tp3568
tp3569
(lp3570
g7
ag6
as(g2008
(I4
I5
I9
I25
tp3571
tp3572
(lp3573
g7
ag6
as(g1270
(I0
I1
I9
I15
tp3574
tp3575
(lp3576
g7
ag6
as(g544
(I0
I2
I9
I13
tp3577
tp3578
(lp3579
g7
ag6
as(g2143
(I1
I6
I9
I23
tp3580
tp3581
(lp3582
g7
ag6
as((I0
I19
I19
I29
tp3583
(I0
I19
I19
I28
tp3584
tp3585
(lp3586
g7
ag12
as((I5
I8
I9
I26
tp3587
(I5
I9
I9
I26
tp3588
tp3589
(lp3590
g25
ag7
as(g2079
(I1
I2
I9
I13
tp3591
tp3592
(lp3593
g7
ag6
as(g184
(I8
I9
I9
I14
tp3594
tp3595
(lp3596
g7
ag6
as((I0
I26
I27
I29
tp3597
(I0
I26
I27
I28
tp3598
tp3599
(lp3600
g7
ag12
as((I0
I9
I9
I24
tp3601
(I0
I9
I9
I23
tp3602
tp3603
(lp3604
g7
ag6
as(g2616
(I0
I0
I9
I16
tp3605
tp3606
(lp3607
g6
ag6
as((I5
I7
I9
I21
tp3608
(I4
I7
I9
I21
tp3609
tp3610
(lp3611
g7
ag6
as(g3378
(I1
I4
I9
I21
tp3612
tp3613
(lp3614
g7
ag6
as((I1
I7
I9
I14
tp3615
(I1
I7
I9
I13
tp3616
tp3617
(lp3618
g7
ag6
as((I4
I7
I9
I24
tp3619
(I4
I7
I9
I23
tp3620
tp3621
(lp3622
g7
ag6
as((I0
I19
I20
I28
tp3623
(I0
I20
I20
I28
tp3624
tp3625
(lp3626
g25
ag7
as(g3036
(I0
I0
I9
I20
tp3627
tp3628
(lp3629
g6
ag6
as((I0
I5
I9
I10
tp3630
(I0
I6
I9
I10
tp3631
tp3632
(lp3633
g6
ag7
as((I0
I14
I15
I19
tp3634
(I0
I15
I15
I19
tp3635
tp3636
(lp3637
g25
ag7
as((I4
I8
I9
I17
tp3638
(I4
I8
I9
I16
tp3639
tp3640
(lp3641
g7
ag6
as(g3363
(I1
I3
I9
I13
tp3642
tp3643
(lp3644
g7
ag6
as((I2
I4
I9
I13
tp3645
(I2
I5
I9
I13
tp3646
tp3647
(lp3648
g6
ag7
as((I4
I5
I9
I23
tp3649
(I4
I6
I9
I23
tp3650
tp3651
(lp3652
g6
ag7
as(g3608
(I5
I7
I9
I20
tp3653
tp3654
(lp3655
g7
ag6
as(g168
(I4
I7
I9
I14
tp3656
tp3657
(lp3658
g6
ag7
as((I2
I3
I9
I21
tp3659
(I2
I3
I9
I20
tp3660
tp3661
(lp3662
g7
ag6
as((I0
I13
I14
I21
tp3663
(I0
I13
I14
I20
tp3664
tp3665
(lp3666
g7
ag6
as((I0
I17
I17
I22
tp3667
(I0
I17
I17
I21
tp3668
tp3669
(lp3670
g7
ag6
as(g3252
(I5
I6
I9
I17
tp3671
tp3672
(lp3673
g7
ag6
as((I0
I4
I9
I29
tp3674
(I0
I4
I9
I28
tp3675
tp3676
(lp3677
g7
ag12
as((I5
I9
I9
I19
tp3678
(I4
I9
I9
I19
tp3679
tp3680
(lp3681
g7
ag6
as((I2
I8
I9
I24
tp3682
(I2
I8
I9
I23
tp3683
tp3684
(lp3685
g7
ag6
as(g2962
(I2
I7
I9
I11
tp3686
tp3687
(lp3688
g7
ag6
as(g796
(I0
I4
I9
I22
tp3689
tp3690
(lp3691
g7
ag6
as((I0
I2
I9
I20
tp3692
(I0
I2
I9
I19
tp3693
tp3694
(lp3695
g7
ag6
as(g328
(I0
I4
I9
I10
tp3696
tp3697
(lp3698
g7
ag6
as((I0
I4
I9
I17
tp3699
(I0
I4
I9
I16
tp3700
tp3701
(lp3702
g7
ag6
as((I0
I12
I12
I25
tp3703
(I0
I12
I13
I25
tp3704
tp3705
(lp3706
g25
ag7
as((I2
I3
I9
I17
tp3707
(I2
I3
I9
I16
tp3708
tp3709
(lp3710
g7
ag6
as(g641
(I0
I16
I17
I26
tp3711
tp3712
(lp3713
g7
ag6
as((I0
I1
I9
I13
tp3714
(I0
I0
I9
I13
tp3715
tp3716
(lp3717
g6
ag34
as((I2
I7
I9
I18
tp3718
(I1
I7
I9
I18
tp3719
tp3720
(lp3721
g7
ag6
as((I0
I14
I14
I23
tp3722
(I0
I14
I14
I22
tp3723
tp3724
(lp3725
g7
ag6
as(g1151
(I0
I0
I9
I19
tp3726
tp3727
(lp3728
g6
ag6
as((I0
I1
I9
I12
tp3729
(I0
I2
I9
I12
tp3730
tp3731
(lp3732
g6
ag7
as((I2
I5
I9
I27
tp3733
(I1
I5
I9
I27
tp3734
tp3735
(lp3736
g7
ag6
as(g1228
(I1
I3
I9
I11
tp3737
tp3738
(lp3739
g7
ag6
as((I5
I7
I9
I22
tp3740
(I4
I7
I9
I22
tp3741
tp3742
(lp3743
g7
ag6
as((I4
I9
I9
I15
tp3744
(I3
I9
I9
I15
tp3745
tp3746
(lp3747
g7
ag6
as((I2
I7
I9
I28
tp3748
(I1
I7
I9
I28
tp3749
tp3750
(lp3751
g7
ag6
as(g2937
(I1
I2
I9
I23
tp3752
tp3753
(lp3754
g7
ag6
as((I5
I6
I9
I23
tp3755
(I4
I6
I9
I23
tp3756
tp3757
(lp3758
g7
ag6
as(g602
(I4
I9
I9
I15
tp3759
tp3760
(lp3761
g7
ag6
as(g2628
(I0
I22
I23
I28
tp3762
tp3763
(lp3764
g7
ag12
as(g1034
(I3
I5
I9
I10
tp3765
tp3766
(lp3767
g7
ag6
as((I0
I8
I9
I13
tp3768
(I0
I9
I9
I13
tp3769
tp3770
(lp3771
g25
ag7
as((I3
I9
I9
I13
tp3772
(I2
I9
I9
I13
tp3773
tp3774
(lp3775
g7
ag6
as((I1
I7
I9
I20
tp3776
(I1
I7
I9
I19
tp3777
tp3778
(lp3779
g7
ag6
as(g3663
(I0
I14
I14
I21
tp3780
tp3781
(lp3782
g25
ag7
as((I6
I7
I9
I21
tp3783
(I6
I8
I9
I21
tp3784
tp3785
(lp3786
g6
ag7
as((I0
I8
I9
I16
tp3787
(I0
I8
I9
I15
tp3788
tp3789
(lp3790
g7
ag6
as((I1
I7
I9
I24
tp3791
(I1
I8
I9
I24
tp3792
tp3793
(lp3794
g6
ag7
as(g3608
(I5
I8
I9
I21
tp3795
tp3796
(lp3797
g6
ag7
as((I1
I3
I9
I28
tp3798
(I1
I3
I9
I27
tp3799
tp3800
(lp3801
g7
ag6
as((I5
I8
I9
I25
tp3802
(I5
I9
I9
I25
tp3803
tp3804
(lp3805
g25
ag7
as((I3
I5
I9
I16
tp3806
(I3
I5
I9
I15
tp3807
tp3808
(lp3809
g7
ag6
as((I0
I16
I17
I21
tp3810
(I0
I17
I17
I21
tp3811
tp3812
(lp3813
g25
ag7
as(g258
(I4
I5
I9
I13
tp3814
tp3815
(lp3816
g7
ag6
as((I0
I11
I11
I28
tp3817
(I0
I11
I11
I27
tp3818
tp3819
(lp3820
g7
ag6
as(g1887
(I0
I11
I12
I20
tp3821
tp3822
(lp3823
g7
ag6
as(g100
(I3
I6
I9
I12
tp3824
tp3825
(lp3826
g7
ag6
as(g3170
(I3
I4
I9
I24
tp3827
tp3828
(lp3829
g7
ag6
as(g1604
(I0
I9
I10
I29
tp3830
tp3831
(lp3832
g83
ag7
as((I3
I5
I9
I26
tp3833
(I3
I5
I9
I25
tp3834
tp3835
(lp3836
g7
ag6
as(g26
(I0
I18
I19
I23
tp3837
tp3838
(lp3839
g25
ag7
as((I0
I6
I9
I13
tp3840
(I0
I7
I9
I13
tp3841
tp3842
(lp3843
g6
ag7
as((I2
I9
I9
I26
tp3844
(I2
I9
I9
I25
tp3845
tp3846
(lp3847
g7
ag6
as((I0
I13
I13
I16
tp3848
(I0
I13
I14
I16
tp3849
tp3850
(lp3851
g25
ag7
as(g35
(I0
I8
I9
I29
tp3852
tp3853
(lp3854
g6
ag7
as(g2024
(I1
I6
I9
I26
tp3855
tp3856
(lp3857
g6
ag7
as(g2298
(I1
I8
I9
I28
tp3858
tp3859
(lp3860
g7
ag12
as((I0
I2
I9
I17
tp3861
(I0
I2
I9
I16
tp3862
tp3863
(lp3864
g7
ag6
as((I6
I8
I9
I29
tp3865
(I5
I8
I9
I29
tp3866
tp3867
(lp3868
g7
ag6
as((I0
I16
I17
I18
tp3869
(I0
I17
I17
I18
tp3870
tp3871
(lp3872
g25
ag7
as((I6
I8
I9
I20
tp3873
(I6
I8
I9
I19
tp3874
tp3875
(lp3876
g7
ag6
as((I1
I6
I9
I18
tp3877
(I1
I7
I9
I18
tp3878
tp3879
(lp3880
g6
ag7
as(g1236
(I4
I8
I9
I19
tp3881
tp3882
(lp3883
g7
ag6
as((I0
I10
I10
I13
tp3884
(I0
I10
I10
I12
tp3885
tp3886
(lp3887
g7
ag6
as((I0
I1
I9
I15
tp3888
(I0
I1
I9
I14
tp3889
tp3890
(lp3891
g7
ag6
as((I6
I9
I9
I26
tp3892
(I5
I9
I9
I26
tp3893
tp3894
(lp3895
g7
ag6
as((I5
I9
I9
I24
tp3896
(I5
I9
I9
I23
tp3897
tp3898
(lp3899
g7
ag6
as(g1737
(I1
I8
I9
I21
tp3900
tp3901
(lp3902
g7
ag6
as(g866
(I1
I5
I9
I28
tp3903
tp3904
(lp3905
g6
ag7
as((I0
I7
I9
I10
tp3906
(I0
I8
I9
I10
tp3907
tp3908
(lp3909
g6
ag7
as(g2294
(I0
I11
I12
I16
tp3910
tp3911
(lp3912
g25
ag7
as((I6
I7
I9
I22
tp3913
(I5
I7
I9
I22
tp3914
tp3915
(lp3916
g7
ag6
as(g1008
(I0
I0
I9
I27
tp3917
tp3918
(lp3919
g6
ag6
as(g3500
(I3
I5
I9
I18
tp3920
tp3921
(lp3922
g6
ag7
as(g2350
(I0
I3
I9
I12
tp3923
tp3924
(lp3925
g6
ag7
as(g2917
(I2
I6
I9
I22
tp3926
tp3927
(lp3928
g7
ag6
as(g3500
(I0
I0
I9
I18
tp3929
tp3930
(lp3931
g6
ag6
as(g1008
(I5
I7
I9
I27
tp3932
tp3933
(lp3934
g6
ag7
as((I2
I4
I9
I11
tp3935
(I1
I4
I9
I11
tp3936
tp3937
(lp3938
g7
ag6
as((I1
I8
I9
I18
tp3939
(I1
I9
I9
I18
tp3940
tp3941
(lp3942
g25
ag7
as(g740
(I3
I5
I9
I12
tp3943
tp3944
(lp3945
g7
ag6
as((I8
I9
I9
I12
tp3946
(I7
I9
I9
I12
tp3947
tp3948
(lp3949
g7
ag6
as(g1266
(I0
I15
I15
I24
tp3950
tp3951
(lp3952
g7
ag6
as((I6
I7
I9
I16
tp3953
(I5
I7
I9
I16
tp3954
tp3955
(lp3956
g7
ag6
as(g1834
(I2
I9
I9
I27
tp3957
tp3958
(lp3959
g7
ag6
as(g3489
(I1
I8
I9
I20
tp3960
tp3961
(lp3962
g7
ag6
as(g282
(I0
I0
I9
I24
tp3963
tp3964
(lp3965
g6
ag6
as(g3946
(I8
I9
I9
I11
tp3966
tp3967
(lp3968
g7
ag6
as(g1906
(I0
I5
I9
I19
tp3969
tp3970
(lp3971
g7
ag6
as(g2247
(I0
I8
I9
I11
tp3972
tp3973
(lp3974
g7
ag34
as(g2474
(I0
I4
I9
I15
tp3975
tp3976
(lp3977
g6
ag7
as(g55
(I4
I9
I9
I25
tp3978
tp3979
(lp3980
g7
ag6
as((I4
I6
I9
I18
tp3981
(I4
I6
I9
I17
tp3982
tp3983
(lp3984
g7
ag6
as((I0
I14
I14
I29
tp3985
(I0
I14
I14
I28
tp3986
tp3987
(lp3988
g7
ag12
as((I0
I11
I12
I14
tp3989
(I0
I12
I12
I14
tp3990
tp3991
(lp3992
g25
ag7
as((I0
I12
I12
I21
tp3993
(I0
I12
I13
I21
tp3994
tp3995
(lp3996
g25
ag7
as((I4
I6
I9
I11
tp3997
(I3
I6
I9
I11
tp3998
tp3999
(lp4000
g7
ag6
as((I0
I19
I20
I25
tp4001
(I0
I20
I20
I25
tp4002
tp4003
(lp4004
g25
ag7
as(g2162
(I5
I8
I9
I10
tp4005
tp4006
(lp4007
g7
ag6
as(g2385
(I4
I8
I9
I10
tp4008
tp4009
(lp4010
g7
ag6
as((I2
I8
I9
I19
tp4011
(I2
I9
I9
I19
tp4012
tp4013
(lp4014
g25
ag7
as((I5
I7
I9
I27
tp4015
(I4
I7
I9
I27
tp4016
tp4017
(lp4018
g7
ag6
as(g1826
(I2
I8
I9
I28
tp4019
tp4020
(lp4021
g7
ag12
as((I4
I9
I9
I10
tp4022
(I3
I9
I9
I10
tp4023
tp4024
(lp4025
g7
ag6
as((I2
I5
I9
I13
tp4026
(I2
I6
I9
I13
tp4027
tp4028
(lp4029
g6
ag7
as((I0
I15
I16
I23
tp4030
(I0
I16
I16
I23
tp4031
tp4032
(lp4033
g25
ag7
as(g3119
(I1
I6
I9
I11
tp4034
tp4035
(lp4036
g7
ag6
as(g3674
(I0
I5
I9
I29
tp4037
tp4038
(lp4039
g6
ag7
as((I1
I8
I9
I13
tp4040
(I0
I8
I9
I13
tp4041
tp4042
(lp4043
g7
ag34
as(g3888
(I0
I0
I9
I15
tp4044
tp4045
(lp4046
g6
ag34
as(g2523
(I7
I8
I9
I23
tp4047
tp4048
(lp4049
g7
ag6
as((I7
I9
I9
I19
tp4050
(I7
I9
I9
I18
tp4051
tp4052
(lp4053
g7
ag6
as((I3
I8
I9
I24
tp4054
(I3
I8
I9
I23
tp4055
tp4056
(lp4057
g7
ag6
as((I0
I24
I24
I28
tp4058
(I0
I24
I25
I28
tp4059
tp4060
(lp4061
g25
ag7
as((I1
I8
I9
I14
tp4062
(I1
I9
I9
I14
tp4063
tp4064
(lp4065
g25
ag7
as((I0
I16
I16
I25
tp4066
(I0
I16
I17
I25
tp4067
tp4068
(lp4069
g25
ag7
as(g2008
(I4
I6
I9
I26
tp4070
tp4071
(lp4072
g6
ag7
as((I3
I7
I9
I24
tp4073
(I3
I7
I9
I23
tp4074
tp4075
(lp4076
g7
ag6
as((I0
I18
I18
I29
tp4077
(I0
I18
I18
I28
tp4078
tp4079
(lp4080
g7
ag12
as((I0
I21
I22
I26
tp4081
(I0
I22
I22
I26
tp4082
tp4083
(lp4084
g25
ag7
as((I1
I9
I9
I12
tp4085
(I1
I9
I9
I11
tp4086
tp4087
(lp4088
g7
ag6
as(g2233
(I0
I11
I11
I14
tp4089
tp4090
(lp4091
g7
ag6
as((I2
I9
I9
I24
tp4092
(I1
I9
I9
I24
tp4093
tp4094
(lp4095
g7
ag6
as(g200
(I0
I0
I9
I19
tp4096
tp4097
(lp4098
g6
ag6
as((I2
I7
I9
I25
tp4099
(I2
I8
I9
I25
tp4100
tp4101
(lp4102
g6
ag7
as((I0
I7
I9
I26
tp4103
(I0
I7
I9
I25
tp4104
tp4105
(lp4106
g7
ag6
as(g1719
(I0
I10
I10
I26
tp4107
tp4108
(lp4109
g25
ag7
as((I0
I14
I15
I29
tp4110
(I0
I15
I15
I29
tp4111
tp4112
(lp4113
g25
ag7
as(g172
(I1
I7
I9
I13
tp4114
tp4115
(lp4116
g6
ag7
as((I4
I9
I9
I18
tp4117
(I3
I9
I9
I18
tp4118
tp4119
(lp4120
g7
ag6
as(g3877
(I0
I6
I9
I18
tp4121
tp4122
(lp4123
g7
ag34
as(g1548
(I0
I25
I26
I27
tp4124
tp4125
(lp4126
g25
ag7
as(g3275
(I0
I8
I9
I16
tp4127
tp4128
(lp4129
g6
ag7
as((I0
I17
I18
I27
tp4130
(I0
I18
I18
I27
tp4131
tp4132
(lp4133
g25
ag7
as(g3844
(I1
I9
I9
I26
tp4134
tp4135
(lp4136
g7
ag6
as(g1645
(I0
I17
I17
I22
tp4137
tp4138
(lp4139
g25
ag7
as(g3100
(I1
I9
I9
I26
tp4140
tp4141
(lp4142
g25
ag7
as(g3174
(I5
I7
I9
I11
tp4143
tp4144
(lp4145
g7
ag6
as((I0
I15
I16
I24
tp4146
(I0
I15
I16
I23
tp4147
tp4148
(lp4149
g7
ag6
as(g1111
(I3
I4
I9
I20
tp4150
tp4151
(lp4152
g7
ag6
as((I4
I8
I9
I27
tp4153
(I3
I8
I9
I27
tp4154
tp4155
(lp4156
g7
ag6
as((I0
I9
I9
I28
tp4157
(I0
I9
I9
I27
tp4158
tp4159
(lp4160
g7
ag6
as(g2039
(I1
I6
I9
I11
tp4161
tp4162
(lp4163
g6
ag7
as(g973
(I5
I7
I9
I23
tp4164
tp4165
(lp4166
g7
ag6
as((I7
I8
I9
I28
tp4167
(I7
I9
I9
I28
tp4168
tp4169
(lp4170
g25
ag7
as((I4
I5
I9
I17
tp4171
(I4
I5
I9
I16
tp4172
tp4173
(lp4174
g7
ag6
as((I2
I4
I9
I27
tp4175
(I1
I4
I9
I27
tp4176
tp4177
(lp4178
g7
ag6
as(g3032
(I0
I0
I9
I12
tp4179
tp4180
(lp4181
g6
ag6
as((I0
I19
I19
I25
tp4182
(I0
I19
I20
I25
tp4183
tp4184
(lp4185
g25
ag7
as((I3
I6
I9
I12
tp4186
(I3
I6
I9
I11
tp4187
tp4188
(lp4189
g7
ag6
as((I0
I10
I10
I12
tp4190
(I0
I10
I11
I12
tp4191
tp4192
(lp4193
g25
ag7
as((I1
I7
I9
I29
tp4194
(I1
I8
I9
I29
tp4195
tp4196
(lp4197
g6
ag7
as(g3345
(I4
I5
I9
I28
tp4198
tp4199
(lp4200
g7
ag12
as(g332
(I3
I7
I9
I20
tp4201
tp4202
(lp4203
g7
ag6
as(g4026
(I2
I5
I9
I12
tp4204
tp4205
(lp4206
g7
ag6
as(g4153
(I4
I8
I9
I26
tp4207
tp4208
(lp4209
g7
ag6
as(g156
(I0
I13
I14
I23
tp4210
tp4211
(lp4212
g25
ag7
as((I0
I3
I9
I16
tp4213
(I0
I3
I9
I15
tp4214
tp4215
(lp4216
g7
ag6
as(g2780
(I4
I9
I9
I28
tp4217
tp4218
(lp4219
g7
ag12
as((I7
I8
I9
I14
tp4220
(I0
I0
I9
I14
tp4221
tp4222
(lp4223
g6
ag6
as((I3
I9
I9
I20
tp4224
(I2
I9
I9
I20
tp4225
tp4226
(lp4227
g7
ag6
as(g4054
(I2
I8
I9
I24
tp4228
tp4229
(lp4230
g7
ag6
as((I0
I17
I18
I19
tp4231
(I0
I18
I18
I19
tp4232
tp4233
(lp4234
g25
ag7
as(g1933
(I7
I9
I9
I26
tp4235
tp4236
(lp4237
g25
ag7
as((I0
I12
I13
I14
tp4238
(I0
I13
I13
I14
tp4239
tp4240
(lp4241
g25
ag7
as((I0
I9
I10
I19
tp4242
(I0
I10
I10
I19
tp4243
tp4244
(lp4245
g25
ag7
as((I0
I14
I15
I26
tp4246
(I0
I14
I15
I25
tp4247
tp4248
(lp4249
g7
ag6
as((I0
I18
I18
I21
tp4250
(I0
I18
I18
I20
tp4251
tp4252
(lp4253
g7
ag6
as(g953
(I5
I6
I9
I12
tp4254
tp4255
(lp4256
g7
ag6
as((I3
I6
I9
I23
tp4257
(I3
I7
I9
I23
tp4258
tp4259
(lp4260
g6
ag7
as(g3519
(I0
I19
I20
I25
tp4261
tp4262
(lp4263
g7
ag6
as(g2951
(I0
I11
I12
I25
tp4264
tp4265
(lp4266
g7
ag6
as((I0
I18
I19
I23
tp4267
(I0
I19
I19
I23
tp4268
tp4269
(lp4270
g25
ag7
as(g4171
(I4
I6
I9
I17
tp4271
tp4272
(lp4273
g6
ag7
as(g3356
(I0
I5
I9
I15
tp4274
tp4275
(lp4276
g7
ag34
as(g21
(I7
I9
I9
I24
tp4277
tp4278
(lp4279
g7
ag6
as((I0
I11
I12
I18
tp4280
(I0
I11
I12
I17
tp4281
tp4282
(lp4283
g7
ag6
as((I0
I11
I12
I28
tp4284
(I0
I11
I12
I27
tp4285
tp4286
(lp4287
g7
ag6
as(g1012
(I6
I7
I9
I25
tp4288
tp4289
(lp4290
g7
ag6
as((I0
I8
I9
I12
tp4291
(I0
I8
I9
I11
tp4292
tp4293
(lp4294
g7
ag6
as(g1254
(I0
I19
I19
I23
tp4295
tp4296
(lp4297
g7
ag6
as((I1
I7
I9
I11
tp4298
(I1
I8
I9
I11
tp4299
tp4300
(lp4301
g6
ag7
as(g889
(I0
I16
I16
I28
tp4302
tp4303
(lp4304
g7
ag12
as(g427
(I0
I14
I14
I23
tp4305
tp4306
(lp4307
g25
ag7
as((I0
I10
I10
I28
tp4308
(I0
I10
I10
I27
tp4309
tp4310
(lp4311
g7
ag6
as(g204
(I2
I7
I9
I25
tp4312
tp4313
(lp4314
g6
ag7
as(g870
(I5
I6
I9
I15
tp4315
tp4316
(lp4317
g7
ag6
as(g4099
(I1
I7
I9
I25
tp4318
tp4319
(lp4320
g7
ag6
as((I3
I4
I9
I24
tp4321
(I2
I4
I9
I24
tp4322
tp4323
(lp4324
g7
ag6
as(g1476
(I0
I6
I9
I21
tp4325
tp4326
(lp4327
g7
ag34
as(g1135
(I1
I8
I9
I28
tp4328
tp4329
(lp4330
g6
ag7
as((I0
I10
I10
I17
tp4331
(I0
I10
I10
I16
tp4332
tp4333
(lp4334
g7
ag6
as((I3
I7
I9
I15
tp4335
(I2
I7
I9
I15
tp4336
tp4337
(lp4338
g7
ag6
as((I2
I5
I9
I12
tp4339
(I2
I5
I9
I11
tp4340
tp4341
(lp4342
g7
ag6
as(g294
(I4
I6
I9
I14
tp4343
tp4344
(lp4345
g7
ag6
as(g3733
(I2
I5
I9
I26
tp4346
tp4347
(lp4348
g7
ag6
as((I0
I10
I11
I15
tp4349
(I0
I10
I11
I14
tp4350
tp4351
(lp4352
g7
ag6
as((I8
I9
I9
I22
tp4353
(I0
I0
I9
I22
tp4354
tp4355
(lp4356
g25
ag6
as(g508
(I7
I8
I9
I17
tp4357
tp4358
(lp4359
g7
ag6
as(g2608
(I2
I9
I9
I22
tp4360
tp4361
(lp4362
g25
ag7
as(g1297
(I1
I8
I9
I17
tp4363
tp4364
(lp4365
g7
ag6
as(g4242
(I0
I9
I10
I18
tp4366
tp4367
(lp4368
g7
ag6
as((I8
I9
I9
I10
tp4369
(I0
I0
I9
I10
tp4370
tp4371
(lp4372
g25
ag6
as((I4
I6
I9
I29
tp4373
(I4
I7
I9
I29
tp4374
tp4375
(lp4376
g6
ag7
as((I0
I7
I9
I22
tp4377
(I0
I8
I9
I22
tp4378
tp4379
(lp4380
g6
ag7
as(g1460
(I4
I6
I9
I28
tp4381
tp4382
(lp4383
g6
ag7
as((I0
I3
I9
I23
tp4384
(I0
I3
I9
I22
tp4385
tp4386
(lp4387
g7
ag6
as(g732
(I4
I6
I9
I25
tp4388
tp4389
(lp4390
g6
ag7
as((I0
I6
I9
I25
tp4391
(I0
I6
I9
I24
tp4392
tp4393
(lp4394
g7
ag6
as(g458
(I3
I8
I9
I15
tp4395
tp4396
(lp4397
g7
ag6
as(g3563
(I0
I18
I18
I23
tp4398
tp4399
(lp4400
g7
ag6
as(g17
(I0
I7
I9
I26
tp4401
tp4402
(lp4403
g7
ag34
as((I5
I9
I9
I17
tp4404
(I4
I9
I9
I17
tp4405
tp4406
(lp4407
g7
ag6
as(g1776
(I3
I5
I9
I22
tp4408
tp4409
(lp4410
g7
ag6
as((I0
I27
I27
I29
tp4411
(I0
I27
I27
I28
tp4412
tp4413
(lp4414
g7
ag12
as((I0
I6
I9
I23
tp4415
(I0
I7
I9
I23
tp4416
tp4417
(lp4418
g6
ag7
as(g4213
(I0
I4
I9
I16
tp4419
tp4420
(lp4421
g6
ag7
as((I0
I25
I26
I28
tp4422
(I0
I25
I26
I27
tp4423
tp4424
(lp4425
g7
ag6
as(g1699
(I2
I5
I9
I13
tp4426
tp4427
(lp4428
g7
ag6
as(g2659
(I0
I0
I9
I11
tp4429
tp4430
(lp4431
g6
ag6
as((I1
I2
I9
I29
tp4432
(I1
I2
I9
I28
tp4433
tp4434
(lp4435
g7
ag12
as((I0
I6
I9
I19
tp4436
(I0
I6
I9
I18
tp4437
tp4438
(lp4439
g7
ag6
as((I2
I9
I9
I18
tp4440
(I2
I9
I9
I17
tp4441
tp4442
(lp4443
g7
ag6
as(g3234
(I0
I13
I14
I28
tp4444
tp4445
(lp4446
g7
ag12
as((I2
I4
I9
I18
tp4447
(I1
I4
I9
I18
tp4448
tp4449
(lp4450
g7
ag6
as(g1201
(I0
I3
I9
I11
tp4451
tp4452
(lp4453
g6
ag7
as((I5
I9
I9
I16
tp4454
(I5
I9
I9
I15
tp4455
tp4456
(lp4457
g7
ag6
as((I2
I7
I9
I15
tp4458
(I2
I8
I9
I15
tp4459
tp4460
(lp4461
g6
ag7
as((I6
I8
I9
I26
tp4462
(I5
I8
I9
I26
tp4463
tp4464
(lp4465
g7
ag6
as((I0
I2
I9
I13
tp4466
(I0
I2
I9
I12
tp4467
tp4468
(lp4469
g7
ag6
as(g148
(I0
I9
I9
I28
tp4470
tp4471
(lp4472
g7
ag34
as((I0
I3
I9
I22
tp4473
(I0
I4
I9
I22
tp4474
tp4475
(lp4476
g6
ag7
as(g548
(I0
I9
I9
I25
tp4477
tp4478
(lp4479
g7
ag6
as(g4415
(I0
I6
I9
I22
tp4480
tp4481
(lp4482
g7
ag6
as((I1
I4
I9
I22
tp4483
(I0
I4
I9
I22
tp4484
tp4485
(lp4486
g7
ag34
as(g411
(I0
I3
I9
I18
tp4487
tp4488
(lp4489
g7
ag34
as((I3
I4
I9
I12
tp4490
(I2
I4
I9
I12
tp4491
tp4492
(lp4493
g7
ag6
as((I2
I4
I9
I10
tp4494
(I1
I4
I9
I10
tp4495
tp4496
(lp4497
g7
ag6
as(g3523
(I3
I7
I9
I26
tp4498
tp4499
(lp4500
g7
ag6
as(g567
(I0
I15
I15
I22
tp4501
tp4502
(lp4503
g25
ag7
as((I0
I14
I14
I22
tp4504
(I0
I14
I14
I21
tp4505
tp4506
(lp4507
g7
ag6
as(g3349
(I0
I15
I16
I22
tp4508
tp4509
(lp4510
g25
ag7
as((I2
I8
I9
I23
tp4511
(I1
I8
I9
I23
tp4512
tp4513
(lp4514
g7
ag6
as(g2835
(I1
I7
I9
I11
tp4515
tp4516
(lp4517
g7
ag6
as(g3411
(I8
I9
I9
I12
tp4518
tp4519
(lp4520
g7
ag6
as(g4369
(I7
I9
I9
I10
tp4521
tp4522
(lp4523
g7
ag6
as(g2890
(I0
I10
I11
I16
tp4524
tp4525
(lp4526
g25
ag7
as((I0
I4
I9
I24
tp4527
(I0
I5
I9
I24
tp4528
tp4529
(lp4530
g6
ag7
as((I6
I8
I9
I14
tp4531
(I5
I8
I9
I14
tp4532
tp4533
(lp4534
g7
ag6
as((I0
I14
I14
I17
tp4535
(I0
I14
I15
I17
tp4536
tp4537
(lp4538
g25
ag7
as((I5
I6
I9
I12
tp4539
(I5
I6
I9
I11
tp4540
tp4541
(lp4542
g7
ag6
as((I0
I15
I15
I21
tp4543
(I0
I15
I15
I20
tp4544
tp4545
(lp4546
g7
ag6
as(g953
(I4
I6
I9
I13
tp4547
tp4548
(lp4549
g7
ag6
as(g212
(I3
I5
I9
I22
tp4550
tp4551
(lp4552
g6
ag7
as((I2
I8
I9
I25
tp4553
(I2
I8
I9
I24
tp4554
tp4555
(lp4556
g7
ag6
as((I5
I6
I9
I28
tp4557
(I4
I6
I9
I28
tp4558
tp4559
(lp4560
g7
ag6
as(g2707
(I6
I8
I9
I18
tp4561
tp4562
(lp4563
g6
ag7
as((I0
I22
I22
I28
tp4564
(I0
I22
I22
I27
tp4565
tp4566
(lp4567
g7
ag6
as(g3953
(I0
I0
I9
I16
tp4568
tp4569
(lp4570
g6
ag6
as((I1
I7
I9
I16
tp4571
(I0
I7
I9
I16
tp4572
tp4573
(lp4574
g7
ag34
as((I0
I18
I19
I27
tp4575
(I0
I19
I19
I27
tp4576
tp4577
(lp4578
g25
ag7
as(g4335
(I3
I7
I9
I14
tp4579
tp4580
(lp4581
g7
ag6
as(g3330
(I3
I6
I9
I10
tp4582
tp4583
(lp4584
g7
ag6
as((I1
I6
I9
I24
tp4585
(I1
I7
I9
I24
tp4586
tp4587
(lp4588
g6
ag7
as((I0
I22
I22
I29
tp4589
(I0
I22
I22
I28
tp4590
tp4591
(lp4592
g7
ag12
as(g1460
(I0
I0
I9
I28
tp4593
tp4594
(lp4595
g6
ag6
as((I8
I9
I9
I14
tp4596
(I8
I9
I9
I13
tp4597
tp4598
(lp4599
g7
ag6
as(g2067
(I0
I18
I19
I23
tp4600
tp4601
(lp4602
g7
ag6
as(g1301
(I3
I9
I9
I26
tp4603
tp4604
(lp4605
g25
ag7
as((I6
I7
I9
I24
tp4606
(I6
I7
I9
I23
tp4607
tp4608
(lp4609
g7
ag6
as(g3028
(I7
I9
I9
I12
tp4610
tp4611
(lp4612
g7
ag6
as((I8
I9
I9
I16
tp4613
(I0
I0
I9
I16
tp4614
tp4615
(lp4616
g25
ag6
as(g3104
(I0
I9
I10
I12
tp4617
tp4618
(lp4619
g7
ag6
as(g2839
(I0
I21
I21
I25
tp4620
tp4621
(lp4622
g7
ag6
as((I1
I5
I9
I27
tp4623
(I1
I6
I9
I27
tp4624
tp4625
(lp4626
g6
ag7
as((I2
I9
I9
I29
tp4627
(I2
I9
I9
I28
tp4628
tp4629
(lp4630
g7
ag12
as((I1
I8
I9
I25
tp4631
(I1
I9
I9
I25
tp4632
tp4633
(lp4634
g25
ag7
as((I0
I21
I22
I25
tp4635
(I0
I21
I22
I24
tp4636
tp4637
(lp4638
g7
ag6
as((I2
I4
I9
I29
tp4639
(I2
I4
I9
I28
tp4640
tp4641
(lp4642
g7
ag12
as((I3
I8
I9
I28
tp4643
(I3
I8
I9
I27
tp4644
tp4645
(lp4646
g7
ag6
as(g1127
(I0
I7
I9
I19
tp4647
tp4648
(lp4649
g7
ag34
as(g3755
(I0
I0
I9
I23
tp4650
tp4651
(lp4652
g6
ag6
as(g1637
(I0
I11
I12
I29
tp4653
tp4654
(lp4655
g25
ag7
as(g1764
(I0
I11
I12
I15
tp4656
tp4657
(lp4658
g7
ag6
as((I1
I6
I9
I26
tp4659
(I1
I7
I9
I26
tp4660
tp4661
(lp4662
g6
ag7
as(g4015
(I5
I8
I9
I27
tp4663
tp4664
(lp4665
g6
ag7
as(g866
(I1
I4
I9
I27
tp4666
tp4667
(lp4668
g7
ag6
as(g3527
(I2
I3
I9
I19
tp4669
tp4670
(lp4671
g7
ag6
as((I0
I12
I12
I22
tp4672
(I0
I12
I13
I22
tp4673
tp4674
(lp4675
g25
ag7
as((I3
I8
I9
I15
tp4676
(I3
I8
I9
I14
tp4677
tp4678
(lp4679
g7
ag6
as(g2973
(I3
I6
I9
I17
tp4680
tp4681
(lp4682
g7
ag6
as((I5
I7
I9
I23
tp4683
(I4
I7
I9
I23
tp4684
tp4685
(lp4686
g7
ag6
as(g2339
(I0
I13
I14
I15
tp4687
tp4688
(lp4689
g25
ag7
as(g1293
(I3
I8
I9
I16
tp4690
tp4691
(lp4692
g7
ag6
as((I2
I8
I9
I13
tp4693
(I2
I8
I9
I12
tp4694
tp4695
(lp4696
g7
ag6
as((I2
I6
I9
I16
tp4697
(I2
I6
I9
I15
tp4698
tp4699
(lp4700
g7
ag6
as(g3802
(I4
I8
I9
I25
tp4701
tp4702
(lp4703
g7
ag6
as((I4
I7
I9
I16
tp4704
(I3
I7
I9
I16
tp4705
tp4706
(lp4707
g7
ag6
as((I1
I8
I9
I22
tp4708
(I1
I9
I9
I22
tp4709
tp4710
(lp4711
g25
ag7
as(g1973
(I3
I4
I9
I22
tp4712
tp4713
(lp4714
g7
ag6
as(g324
(I0
I9
I9
I18
tp4715
tp4716
(lp4717
g25
ag7
as(g2821
(I3
I8
I9
I14
tp4718
tp4719
(lp4720
g7
ag6
as((I2
I3
I9
I23
tp4721
(I2
I4
I9
I23
tp4722
tp4723
(lp4724
g6
ag7
as(g2917
(I3
I7
I9
I22
tp4725
tp4726
(lp4727
g6
ag7
as(g2590
(I0
I18
I18
I23
tp4728
tp4729
(lp4730
g25
ag7
as((I0
I2
I9
I21
tp4731
(I0
I2
I9
I20
tp4732
tp4733
(lp4734
g7
ag6
as(g937
(I0
I11
I12
I21
tp4735
tp4736
(lp4737
g25
ag7
as((I2
I8
I9
I10
tp4738
(I2
I9
I9
I10
tp4739
tp4740
(lp4741
g25
ag7
as((I0
I19
I19
I27
tp4742
(I0
I19
I19
I26
tp4743
tp4744
(lp4745
g7
ag6
as(g1340
(I5
I9
I9
I27
tp4746
tp4747
(lp4748
g7
ag6
as(g375
(I0
I10
I10
I26
tp4749
tp4750
(lp4751
g7
ag6
as(g629
(I4
I8
I9
I22
tp4752
tp4753
(lp4754
g7
ag6
as((I0
I18
I18
I25
tp4755
(I0
I18
I18
I24
tp4756
tp4757
(lp4758
g7
ag6
as((I1
I3
I9
I21
tp4759
(I0
I3
I9
I21
tp4760
tp4761
(lp4762
g7
ag34
as((I1
I3
I9
I27
tp4763
(I1
I3
I9
I26
tp4764
tp4765
(lp4766
g7
ag6
as(g811
(I4
I6
I9
I11
tp4767
tp4768
(lp4769
g7
ag6
as(g1492
(I2
I4
I9
I16
tp4770
tp4771
(lp4772
g7
ag6
as((I3
I5
I9
I19
tp4773
(I3
I5
I9
I18
tp4774
tp4775
(lp4776
g7
ag6
as(g51
(I1
I9
I9
I21
tp4777
tp4778
(lp4779
g25
ag7
as(g1442
(I0
I26
I27
I28
tp4780
tp4781
(lp4782
g25
ag7
as(g4146
(I0
I16
I16
I24
tp4783
tp4784
(lp4785
g25
ag7
as(g383
(I0
I2
I9
I19
tp4786
tp4787
(lp4788
g7
ag34
as(g332
(I2
I7
I9
I21
tp4789
tp4790
(lp4791
g7
ag6
as(g1464
(I2
I5
I9
I10
tp4792
tp4793
(lp4794
g7
ag6
as(g4557
(I5
I6
I9
I27
tp4795
tp4796
(lp4797
g7
ag6
as((I0
I14
I14
I16
tp4798
(I0
I14
I14
I15
tp4799
tp4800
(lp4801
g7
ag6
as(g2210
(I1
I7
I9
I14
tp4802
tp4803
(lp4804
g7
ag6
as(g4153
(I4
I9
I9
I27
tp4805
tp4806
(lp4807
g25
ag7
as((I3
I4
I9
I29
tp4808
(I3
I5
I9
I29
tp4809
tp4810
(lp4811
g6
ag7
as(g776
(I0
I18
I18
I21
tp4812
tp4813
(lp4814
g25
ag7
as(g1208
(I0
I14
I15
I18
tp4815
tp4816
(lp4817
g25
ag7
as(g617
(I1
I3
I9
I10
tp4818
tp4819
(lp4820
g6
ag7
as(g1410
(I1
I9
I9
I17
tp4821
tp4822
(lp4823
g7
ag6
as(g685
(I0
I18
I18
I26
tp4824
tp4825
(lp4826
g25
ag7
as((I5
I9
I9
I26
tp4827
(I4
I9
I9
I26
tp4828
tp4829
(lp4830
g7
ag6
as((I0
I8
I9
I29
tp4831
(I0
I9
I9
I29
tp4832
tp4833
(lp4834
g25
ag7
as(g3615
(I0
I7
I9
I14
tp4835
tp4836
(lp4837
g7
ag34
as(g532
(I2
I8
I9
I29
tp4838
tp4839
(lp4840
g6
ag7
as(g4331
(I0
I10
I11
I17
tp4841
tp4842
(lp4843
g25
ag7
as(g1046
(I3
I5
I9
I27
tp4844
tp4845
(lp4846
g7
ag6
as(g1699
(I3
I6
I9
I13
tp4847
tp4848
(lp4849
g6
ag7
as(g21
(I8
I9
I9
I23
tp4850
tp4851
(lp4852
g7
ag6
as(g4436
(I0
I7
I9
I19
tp4853
tp4854
(lp4855
g6
ag7
as(g2969
(I0
I18
I18
I25
tp4856
tp4857
(lp4858
g25
ag7
as((I1
I4
I9
I23
tp4859
(I1
I4
I9
I22
tp4860
tp4861
(lp4862
g7
ag6
as((I3
I9
I9
I12
tp4863
(I2
I9
I9
I12
tp4864
tp4865
(lp4866
g7
ag6
as((I4
I9
I9
I13
tp4867
(I3
I9
I9
I13
tp4868
tp4869
(lp4870
g7
ag6
as(g1665
(I0
I0
I9
I18
tp4871
tp4872
(lp4873
g6
ag6
as((I0
I11
I11
I22
tp4874
(I0
I11
I11
I21
tp4875
tp4876
(lp4877
g7
ag6
as((I3
I4
I9
I26
tp4878
(I2
I4
I9
I26
tp4879
tp4880
(lp4881
g7
ag6
as(g1556
(I7
I9
I9
I13
tp4882
tp4883
(lp4884
g7
ag6
as((I0
I11
I12
I23
tp4885
(I0
I12
I12
I23
tp4886
tp4887
(lp4888
g25
ag7
as(g4531
(I6
I8
I9
I13
tp4889
tp4890
(lp4891
g7
ag6
as((I0
I13
I14
I24
tp4892
(I0
I14
I14
I24
tp4893
tp4894
(lp4895
g25
ag7
as(g1065
(I3
I7
I9
I25
tp4896
tp4897
(lp4898
g7
ag6
as(g4040
(I1
I9
I9
I13
tp4899
tp4900
(lp4901
g25
ag7
as(g2039
(I0
I5
I9
I11
tp4902
tp4903
(lp4904
g7
ag34
as(g1313
(I5
I7
I9
I11
tp4905
tp4906
(lp4907
g7
ag6
as(g2843
(I4
I8
I9
I13
tp4908
tp4909
(lp4910
g7
ag6
as((I7
I9
I9
I15
tp4911
(I6
I9
I9
I15
tp4912
tp4913
(lp4914
g7
ag6
as(g862
(I1
I3
I9
I16
tp4915
tp4916
(lp4917
g7
ag6
as((I3
I8
I9
I21
tp4918
(I3
I8
I9
I20
tp4919
tp4920
(lp4921
g7
ag6
as(g2463
(I2
I4
I9
I15
tp4922
tp4923
(lp4924
g7
ag6
as(g2075
(I0
I9
I9
I21
tp4925
tp4926
(lp4927
g7
ag6
as(g360
(I1
I4
I9
I17
tp4928
tp4929
(lp4930
g7
ag6
as(g1228
(I1
I4
I9
I12
tp4931
tp4932
(lp4933
g6
ag7
as((I0
I18
I19
I22
tp4934
(I0
I19
I19
I22
tp4935
tp4936
(lp4937
g25
ag7
as((I0
I4
I9
I22
tp4938
(I0
I4
I9
I21
tp4939
tp4940
(lp4941
g7
ag6
as(g713
(I2
I5
I9
I28
tp4942
tp4943
(lp4944
g6
ag7
as(g172
(I0
I6
I9
I13
tp4945
tp4946
(lp4947
g7
ag34
as(g2467
(I5
I9
I9
I12
tp4948
tp4949
(lp4950
g25
ag7
as(g3768
(I0
I8
I9
I12
tp4951
tp4952
(lp4953
g7
ag6
as((I1
I4
I9
I13
tp4954
(I1
I5
I9
I13
tp4955
tp4956
(lp4957
g6
ag7
as((I0
I14
I14
I21
tp4958
(I0
I14
I15
I21
tp4959
tp4960
(lp4961
g25
ag7
as(g689
(I1
I4
I9
I13
tp4962
tp4963
(lp4964
g6
ag7
as((I0
I1
I9
I27
tp4965
(I0
I1
I9
I26
tp4966
tp4967
(lp4968
g7
ag6
as((I1
I7
I9
I22
tp4969
(I1
I8
I9
I22
tp4970
tp4971
(lp4972
g6
ag7
as((I1
I2
I9
I27
tp4973
(I0
I0
I9
I27
tp4974
tp4975
(lp4976
g6
ag6
as(g220
(I0
I1
I9
I29
tp4977
tp4978
(lp4979
g6
ag34
as(g2450
(I5
I9
I9
I15
tp4980
tp4981
(lp4982
g25
ag7
as(g2298
(I1
I9
I9
I29
tp4983
tp4984
(lp4985
g25
ag7
as(g3252
(I5
I7
I9
I18
tp4986
tp4987
(lp4988
g6
ag7
as(g3833
(I3
I6
I9
I26
tp4989
tp4990
(lp4991
g6
ag7
as(g1406
(I0
I12
I12
I16
tp4992
tp4993
(lp4994
g7
ag6
as(g744
(I0
I0
I9
I27
tp4995
tp4996
(lp4997
g6
ag6
as((I1
I8
I9
I20
tp4998
(I0
I8
I9
I20
tp4999
tp5000
(lp5001
g7
ag34
as((I1
I9
I9
I10
tp5002
(I0
I9
I9
I10
tp5003
tp5004
(lp5005
g7
ag34
as(g4659
(I1
I6
I9
I25
tp5006
tp5007
(lp5008
g7
ag6
as(g4182
(I0
I19
I19
I24
tp5009
tp5010
(lp5011
g7
ag6
as((I0
I7
I9
I20
tp5012
(I0
I8
I9
I20
tp5013
tp5014
(lp5015
g6
ag7
as((I0
I16
I16
I19
tp5016
(I0
I16
I16
I18
tp5017
tp5018
(lp5019
g7
ag6
as(g1741
(I4
I8
I9
I20
tp5020
tp5021
(lp5022
g7
ag6
as(g1313
(I4
I7
I9
I12
tp5023
tp5024
(lp5025
g7
ag6
as(g3415
(I0
I0
I9
I19
tp5026
tp5027
(lp5028
g6
ag6
as(g4353
(I7
I9
I9
I22
tp5029
tp5030
(lp5031
g7
ag6
as(g4557
(I5
I7
I9
I28
tp5032
tp5033
(lp5034
g6
ag7
as((I0
I15
I16
I17
tp5035
(I0
I16
I16
I17
tp5036
tp5037
(lp5038
g25
ag7
as(g3692
(I0
I3
I9
I20
tp5039
tp5040
(lp5041
g6
ag7
as(g1250
(I0
I7
I9
I28
tp5042
tp5043
(lp5044
g6
ag7
as((I6
I9
I9
I15
tp5045
(I6
I9
I9
I14
tp5046
tp5047
(lp5048
g7
ag6
as((I0
I2
I9
I16
tp5049
(I0
I2
I9
I15
tp5050
tp5051
(lp5052
g7
ag6
as(g2381
(I0
I1
I9
I19
tp5053
tp5054
(lp5055
g7
ag6
as(g3748
(I2
I8
I9
I28
tp5056
tp5057
(lp5058
g6
ag7
as((I5
I8
I9
I14
tp5059
(I4
I8
I9
I14
tp5060
tp5061
(lp5062
g7
ag6
as(g128
(I0
I9
I10
I28
tp5063
tp5064
(lp5065
g7
ag12
as(g3017
(I0
I5
I9
I17
tp5066
tp5067
(lp5068
g7
ag34
as(g208
(I0
I21
I22
I28
tp5069
tp5070
(lp5071
g25
ag7
as((I0
I3
I9
I12
tp5072
(I0
I3
I9
I11
tp5073
tp5074
(lp5075
g7
ag6
as(g1262
(I3
I4
I9
I12
tp5076
tp5077
(lp5078
g7
ag6
as(g262
(I0
I13
I13
I27
tp5079
tp5080
(lp5081
g25
ag7
as((I1
I9
I9
I19
tp5082
(I1
I9
I9
I18
tp5083
tp5084
(lp5085
g7
ag6
as(g4659
(I0
I6
I9
I26
tp5086
tp5087
(lp5088
g7
ag34
as(g819
(I2
I8
I9
I15
tp5089
tp5090
(lp5091
g7
ag6
as(g3248
(I2
I4
I9
I11
tp5092
tp5093
(lp5094
g6
ag7
as((I4
I9
I9
I28
tp5095
(I4
I9
I9
I27
tp5096
tp5097
(lp5098
g7
ag6
as(g4377
(I0
I7
I9
I21
tp5099
tp5100
(lp5101
g7
ag6
as((I1
I5
I9
I25
tp5102
(I1
I5
I9
I24
tp5103
tp5104
(lp5105
g7
ag6
as((I0
I9
I9
I18
tp5106
(I0
I9
I10
I18
tp5107
tp5108
(lp5109
g83
ag7
as(g2872
(I0
I10
I11
I21
tp5110
tp5111
(lp5112
g25
ag7
as((I0
I1
I9
I23
tp5113
(I0
I2
I9
I23
tp5114
tp5115
(lp5116
g6
ag7
as(g3619
(I3
I7
I9
I24
tp5117
tp5118
(lp5119
g7
ag6
as((I2
I3
I9
I10
tp5120
(I2
I4
I9
I10
tp5121
tp5122
(lp5123
g6
ag7
as((I5
I8
I9
I24
tp5124
(I4
I8
I9
I24
tp5125
tp5126
(lp5127
g7
ag6
as(g1430
(I6
I8
I9
I11
tp5128
tp5129
(lp5130
g7
ag6
as(g2925
(I0
I17
I17
I27
tp5131
tp5132
(lp5133
g7
ag6
as((I0
I17
I17
I19
tp5134
(I0
I17
I18
I19
tp5135
tp5136
(lp5137
g25
ag7
as(g1131
(I0
I6
I9
I17
tp5138
tp5139
(lp5140
g7
ag34
as(g3939
(I1
I8
I9
I17
tp5141
tp5142
(lp5143
g7
ag6
as((I3
I7
I9
I10
tp5144
(I3
I8
I9
I10
tp5145
tp5146
(lp5147
g6
ag7
as((I0
I13
I14
I26
tp5148
(I0
I14
I14
I26
tp5149
tp5150
(lp5151
g25
ag7
as(g1236
(I3
I8
I9
I20
tp5152
tp5153
(lp5154
g7
ag6
as(g2765
(I1
I5
I9
I11
tp5155
tp5156
(lp5157
g6
ag7
as(g2761
(I6
I8
I9
I18
tp5158
tp5159
(lp5160
g7
ag6
as(g2728
(I0
I21
I22
I27
tp5161
tp5162
(lp5163
g7
ag6
as(g3523
(I3
I8
I9
I27
tp5164
tp5165
(lp5166
g6
ag7
as((I4
I7
I9
I26
tp5167
(I4
I7
I9
I25
tp5168
tp5169
(lp5170
g7
ag6
as(g3587
(I5
I8
I9
I25
tp5171
tp5172
(lp5173
g7
ag6
as(g1344
(I0
I3
I9
I19
tp5174
tp5175
(lp5176
g7
ag34
as((I2
I8
I9
I15
tp5177
(I2
I8
I9
I14
tp5178
tp5179
(lp5180
g7
ag6
as((I0
I25
I25
I28
tp5181
(I0
I25
I25
I27
tp5182
tp5183
(lp5184
g7
ag6
as((I0
I27
I28
I29
tp5185
(I0
I28
I28
I29
tp5186
tp5187
(lp5188
g25
ag7
as(g3287
(I5
I7
I9
I14
tp5189
tp5190
(lp5191
g7
ag6
as((I0
I12
I12
I15
tp5192
(I0
I12
I13
I15
tp5193
tp5194
(lp5195
g25
ag7
as((I0
I21
I22
I29
tp5196
(I0
I22
I22
I29
tp5197
tp5198
(lp5199
g25
ag7
as(g446
(I1
I4
I9
I18
tp5200
tp5201
(lp5202
g7
ag6
as(g176
(I0
I13
I14
I29
tp5203
tp5204
(lp5205
g25
ag7
as(g4998
(I1
I9
I9
I20
tp5206
tp5207
(lp5208
g25
ag7
as((I1
I6
I9
I25
tp5209
(I1
I7
I9
I25
tp5210
tp5211
(lp5212
g6
ag7
as((I3
I9
I9
I10
tp5213
(I2
I9
I9
I10
tp5214
tp5215
(lp5216
g7
ag6
as(g3119
(I2
I6
I9
I10
tp5217
tp5218
(lp5219
g7
ag6
as(g3482
(I0
I15
I16
I26
tp5220
tp5221
(lp5222
g7
ag6
as(g2173
(I1
I5
I9
I23
tp5223
tp5224
(lp5225
g7
ag6
as(g3170
(I2
I4
I9
I25
tp5226
tp5227
(lp5228
g7
ag6
as(g1309
(I0
I4
I9
I24
tp5229
tp5230
(lp5231
g6
ag7
as((I0
I11
I11
I18
tp5232
(I0
I11
I11
I17
tp5233
tp5234
(lp5235
g7
ag6
as(g3399
(I1
I3
I9
I18
tp5236
tp5237
(lp5238
g7
ag6
as((I2
I6
I9
I24
tp5239
(I1
I6
I9
I24
tp5240
tp5241
(lp5242
g7
ag6
as(g5124
(I5
I9
I9
I24
tp5243
tp5244
(lp5245
g25
ag7
as((I0
I15
I15
I27
tp5246
(I0
I15
I15
I26
tp5247
tp5248
(lp5249
g7
ag6
as((I4
I5
I9
I24
tp5250
(I3
I5
I9
I24
tp5251
tp5252
(lp5253
g7
ag6
as(g4458
(I2
I7
I9
I14
tp5254
tp5255
(lp5256
g7
ag6
as(g1289
(I4
I8
I9
I18
tp5257
tp5258
(lp5259
g7
ag6
as(g552
(I3
I8
I9
I26
tp5260
tp5261
(lp5262
g6
ag7
as(g689
(I1
I3
I9
I12
tp5263
tp5264
(lp5265
g7
ag6
as(g1016
(I0
I5
I9
I15
tp5266
tp5267
(lp5268
g7
ag6
as(g5239
(I2
I6
I9
I23
tp5269
tp5270
(lp5271
g7
ag6
as((I6
I9
I9
I11
tp5272
(I5
I9
I9
I11
tp5273
tp5274
(lp5275
g7
ag6
as(g1703
(I1
I5
I9
I16
tp5276
tp5277
(lp5278
g6
ag7
as(g1468
(I2
I7
I9
I17
tp5279
tp5280
(lp5281
g7
ag6
as(g2921
(I2
I7
I9
I22
tp5282
tp5283
(lp5284
g6
ag7
as(g1532
(I0
I19
I20
I28
tp5285
tp5286
(lp5287
g7
ag12
as(g480
(I2
I7
I9
I13
tp5288
tp5289
(lp5290
g6
ag7
as(g4672
(I0
I12
I12
I21
tp5291
tp5292
(lp5293
g7
ag6
as((I3
I8
I9
I11
tp5294
(I2
I8
I9
I11
tp5295
tp5296
(lp5297
g7
ag6
as(g3729
(I0
I1
I9
I11
tp5298
tp5299
(lp5300
g7
ag6
as(g2277
(I0
I23
I24
I27
tp5301
tp5302
(lp5303
g7
ag6
as(g2111
(I0
I17
I17
I23
tp5304
tp5305
(lp5306
g25
ag7
as(g3356
(I1
I6
I9
I15
tp5307
tp5308
(lp5309
g6
ag7
as((I0
I14
I15
I20
tp5310
(I0
I14
I15
I19
tp5311
tp5312
(lp5313
g7
ag6
as((I1
I5
I9
I22
tp5314
(I0
I5
I9
I22
tp5315
tp5316
(lp5317
g7
ag34
as(g2559
(I0
I5
I9
I13
tp5318
tp5319
(lp5320
g7
ag34
as((I2
I4
I9
I14
tp5321
(I2
I4
I9
I13
tp5322
tp5323
(lp5324
g7
ag6
as((I2
I9
I9
I21
tp5325
(I2
I9
I9
I20
tp5326
tp5327
(lp5328
g7
ag6
as(g2913
(I0
I15
I15
I19
tp5329
tp5330
(lp5331
g7
ag6
as(g2984
(I0
I4
I9
I24
tp5332
tp5333
(lp5334
g7
ag6
as((I1
I6
I9
I20
tp5335
(I1
I6
I9
I19
tp5336
tp5337
(lp5338
g7
ag6
as((I1
I8
I9
I12
tp5339
(I1
I9
I9
I12
tp5340
tp5341
(lp5342
g25
ag7
as((I0
I7
I9
I17
tp5343
(I0
I8
I9
I17
tp5344
tp5345
(lp5346
g6
ag7
as((I1
I5
I9
I16
tp5347
(I1
I5
I9
I15
tp5348
tp5349
(lp5350
g7
ag6
as(g1212
(I6
I8
I9
I14
tp5351
tp5352
(lp5353
g7
ag6
as(g780
(I2
I5
I9
I27
tp5354
tp5355
(lp5356
g7
ag6
as(g415
(I0
I2
I9
I16
tp5357
tp5358
(lp5359
g7
ag34
as(g1488
(I0
I2
I9
I19
tp5360
tp5361
(lp5362
g6
ag7
as(g4291
(I0
I9
I9
I12
tp5363
tp5364
(lp5365
g25
ag7
as(g1748
(I0
I11
I11
I26
tp5366
tp5367
(lp5368
g7
ag6
as((I4
I7
I9
I10
tp5369
(I3
I7
I9
I10
tp5370
tp5371
(lp5372
g7
ag6
as(g2287
(I1
I5
I9
I21
tp5373
tp5374
(lp5375
g7
ag6
as(g4454
(I4
I9
I9
I16
tp5376
tp5377
(lp5378
g7
ag6
as((I0
I9
I9
I20
tp5379
(I0
I9
I10
I20
tp5380
tp5381
(lp5382
g83
ag7
as(g1681
(I5
I7
I9
I23
tp5383
tp5384
(lp5385
g7
ag6
as(g3733
(I2
I6
I9
I27
tp5386
tp5387
(lp5388
g6
ag7
as((I1
I9
I9
I18
tp5389
(I1
I9
I9
I17
tp5390
tp5391
(lp5392
g7
ag6
as(g1453
(I2
I5
I9
I29
tp5393
tp5394
(lp5395
g7
ag6
as(g5314
(I1
I6
I9
I22
tp5396
tp5397
(lp5398
g6
ag7
as((I4
I9
I9
I25
tp5399
(I3
I9
I9
I25
tp5400
tp5401
(lp5402
g7
ag6
as((I0
I12
I12
I16
tp5403
(I0
I12
I13
I16
tp5404
tp5405
(lp5406
g25
ag7
as((I0
I16
I16
I27
tp5407
(I0
I16
I16
I26
tp5408
tp5409
(lp5410
g7
ag6
as(g4911
(I7
I9
I9
I14
tp5411
tp5412
(lp5413
g7
ag6
as(g1875
(I3
I8
I9
I24
tp5414
tp5415
(lp5416
g7
ag6
as((I2
I4
I9
I20
tp5417
(I2
I4
I9
I19
tp5418
tp5419
(lp5420
g7
ag6
as((I3
I9
I9
I15
tp5421
(I2
I9
I9
I15
tp5422
tp5423
(lp5424
g7
ag6
as(g3017
(I1
I5
I9
I16
tp5425
tp5426
(lp5427
g7
ag6
as(g266
(I2
I6
I9
I22
tp5428
tp5429
(lp5430
g6
ag7
as(g2463
(I0
I0
I9
I15
tp5431
tp5432
(lp5433
g6
ag6
as((I0
I5
I9
I25
tp5434
(I0
I5
I9
I24
tp5435
tp5436
(lp5437
g7
ag6
as(g3426
(I0
I9
I9
I15
tp5438
tp5439
(lp5440
g7
ag34
as(g2049
(I0
I2
I9
I17
tp5441
tp5442
(lp5443
g7
ag34
as(g3089
(I7
I9
I9
I25
tp5444
tp5445
(lp5446
g25
ag7
as((I0
I1
I9
I18
tp5447
(I0
I0
I9
I18
tp5448
tp5449
(lp5450
g6
ag34
as(g1321
(I3
I9
I9
I11
tp5451
tp5452
(lp5453
g7
ag6
as(g4058
(I0
I24
I24
I27
tp5454
tp5455
(lp5456
g7
ag6
as(g2127
(I0
I16
I16
I20
tp5457
tp5458
(lp5459
g7
ag6
as(g446
(I1
I5
I9
I19
tp5460
tp5461
(lp5462
g6
ag7
as(g286
(I3
I4
I9
I26
tp5463
tp5464
(lp5465
g7
ag6
as((I4
I6
I9
I23
tp5466
(I3
I6
I9
I23
tp5467
tp5468
(lp5469
g7
ag6
as((I0
I25
I25
I29
tp5470
(I0
I25
I25
I28
tp5471
tp5472
(lp5473
g7
ag12
as((I0
I1
I9
I24
tp5474
(I0
I2
I9
I24
tp5475
tp5476
(lp5477
g6
ag7
as(g1689
(I0
I24
I24
I25
tp5478
tp5479
(lp5480
g7
ag6
as(g4808
(I3
I4
I9
I28
tp5481
tp5482
(lp5483
g7
ag12
as(g4596
(I0
I0
I9
I14
tp5484
tp5485
(lp5486
g25
ag6
as(g216
(I7
I8
I9
I22
tp5487
tp5488
(lp5489
g7
ag6
as(g621
(I6
I8
I9
I21
tp5490
tp5491
(lp5492
g7
ag6
as(g913
(I0
I9
I9
I24
tp5493
tp5494
(lp5495
g25
ag7
as((I0
I20
I20
I24
tp5496
(I0
I20
I20
I23
tp5497
tp5498
(lp5499
g7
ag6
as(g3471
(I6
I8
I9
I24
tp5500
tp5501
(lp5502
g7
ag6
as(g2929
(I0
I8
I9
I27
tp5503
tp5504
(lp5505
g7
ag34
as(g1131
(I1
I7
I9
I17
tp5506
tp5507
(lp5508
g6
ag7
as(g4073
(I2
I7
I9
I24
tp5509
tp5510
(lp5511
g7
ag6
as(g961
(I0
I2
I9
I20
tp5512
tp5513
(lp5514
g7
ag34
as(g1949
(I2
I8
I9
I13
tp5515
tp5516
(lp5517
g7
ag6
as(g92
(I1
I7
I9
I27
tp5518
tp5519
(lp5520
g7
ag6
as(g4635
(I0
I22
I22
I25
tp5521
tp5522
(lp5523
g25
ag7
as(g4606
(I0
I0
I9
I24
tp5524
tp5525
(lp5526
g6
ag6
as(g2199
(I3
I7
I9
I23
tp5527
tp5528
(lp5529
g7
ag6
as(g3515
(I0
I6
I9
I29
tp5530
tp5531
(lp5532
g6
ag7
as(g3527
(I0
I0
I9
I20
tp5533
tp5534
(lp5535
g6
ag6
as(g240
(I3
I7
I9
I21
tp5536
tp5537
(lp5538
g6
ag7
as(g846
(I0
I11
I12
I16
tp5539
tp5540
(lp5541
g7
ag6
as(g3458
(I0
I18
I18
I22
tp5542
tp5543
(lp5544
g25
ag7
as(g220
(I1
I2
I9
I29
tp5545
tp5546
(lp5547
g6
ag6
as(g4050
(I6
I9
I9
I19
tp5548
tp5549
(lp5550
g7
ag6
as((I1
I4
I9
I15
tp5551
(I1
I5
I9
I15
tp5552
tp5553
(lp5554
g6
ag7
as((I3
I4
I9
I11
tp5555
(I2
I4
I9
I11
tp5556
tp5557
(lp5558
g7
ag6
as(g43
(I6
I8
I9
I16
tp5559
tp5560
(lp5561
g7
ag6
as(g3301
(I1
I7
I9
I13
tp5562
tp5563
(lp5564
g7
ag6
as(g3601
(I0
I9
I10
I24
tp5565
tp5566
(lp5567
g83
ag7
as(g4969
(I0
I7
I9
I22
tp5568
tp5569
(lp5570
g7
ag34
as(g2681
(I0
I7
I9
I14
tp5571
tp5572
(lp5573
g6
ag7
as(g1426
(I2
I7
I9
I28
tp5574
tp5575
(lp5576
g6
ag7
as(g3210
(I0
I15
I15
I28
tp5577
tp5578
(lp5579
g7
ag12
as(g4708
(I0
I8
I9
I22
tp5580
tp5581
(lp5582
g7
ag34
as(g885
(I0
I3
I9
I27
tp5583
tp5584
(lp5585
g6
ag7
as((I1
I8
I9
I16
tp5586
(I0
I8
I9
I16
tp5587
tp5588
(lp5589
g7
ag34
as((I1
I6
I9
I12
tp5590
(I1
I6
I9
I11
tp5591
tp5592
(lp5593
g7
ag6
as(g3740
(I5
I7
I9
I21
tp5594
tp5595
(lp5596
g7
ag6
as(g4755
(I0
I18
I19
I25
tp5597
tp5598
(lp5599
g25
ag7
as((I0
I12
I13
I21
tp5600
(I0
I12
I13
I20
tp5601
tp5602
(lp5603
g7
ag6
as((I0
I2
I9
I28
tp5604
(I0
I3
I9
I28
tp5605
tp5606
(lp5607
g6
ag7
as(g2251
(I3
I7
I9
I21
tp5608
tp5609
(lp5610
g7
ag6
as(g1065
(I4
I8
I9
I25
tp5611
tp5612
(lp5613
g6
ag7
as((I8
I9
I9
I11
tp5614
(I8
I9
I9
I10
tp5615
tp5616
(lp5617
g7
ag6
as((I0
I20
I21
I26
tp5618
(I0
I20
I21
I25
tp5619
tp5620
(lp5621
g7
ag6
as(g625
(I6
I7
I9
I16
tp5622
tp5623
(lp5624
g7
ag6
as(g2139
(I4
I6
I9
I27
tp5625
tp5626
(lp5627
g7
ag6
as(g839
(I0
I5
I9
I28
tp5628
tp5629
(lp5630
g6
ag7
as(g4001
(I0
I19
I20
I24
tp5631
tp5632
(lp5633
g7
ag6
as(g2004
(I7
I9
I9
I25
tp5634
tp5635
(lp5636
g7
ag6
as((I0
I13
I14
I22
tp5637
(I0
I13
I14
I21
tp5638
tp5639
(lp5640
g7
ag6
as(g419
(I0
I21
I21
I28
tp5641
tp5642
(lp5643
g7
ag12
as(g1155
(I0
I16
I16
I20
tp5644
tp5645
(lp5646
g25
ag7
as(g1103
(I0
I12
I12
I20
tp5647
tp5648
(lp5649
g25
ag7
as(g5417
(I1
I4
I9
I20
tp5650
tp5651
(lp5652
g7
ag6
as(g4973
(I1
I2
I9
I26
tp5653
tp5654
(lp5655
g7
ag6
as(g2883
(I1
I7
I9
I26
tp5656
tp5657
(lp5658
g7
ag6
as(g2273
(I1
I3
I9
I11
tp5659
tp5660
(lp5661
g6
ag7
as(g2996
(I1
I9
I9
I27
tp5662
tp5663
(lp5664
g7
ag6
as((I1
I6
I9
I19
tp5665
(I0
I6
I9
I19
tp5666
tp5667
(lp5668
g7
ag34
as(g1107
(I3
I9
I9
I10
tp5669
tp5670
(lp5671
g7
ag6
as(g2941
(I1
I5
I9
I13
tp5672
tp5673
(lp5674
g7
ag6
as((I0
I8
I9
I26
tp5675
(I0
I8
I9
I25
tp5676
tp5677
(lp5678
g7
ag6
as((I3
I8
I9
I22
tp5679
(I3
I9
I9
I22
tp5680
tp5681
(lp5682
g25
ag7
as((I0
I10
I11
I16
tp5683
(I0
I10
I11
I15
tp5684
tp5685
(lp5686
g7
ag6
as((I0
I9
I10
I16
tp5687
(I0
I10
I10
I16
tp5688
tp5689
(lp5690
g25
ag7
as(g1772
(I3
I7
I9
I17
tp5691
tp5692
(lp5693
g7
ag6
as(g4958
(I0
I14
I14
I20
tp5694
tp5695
(lp5696
g7
ag6
as((I1
I9
I9
I22
tp5697
(I0
I9
I9
I22
tp5698
tp5699
(lp5700
g7
ag34
as(g811
(I4
I7
I9
I12
tp5701
tp5702
(lp5703
g6
ag7
as((I0
I10
I10
I22
tp5704
(I0
I10
I11
I22
tp5705
tp5706
(lp5707
g25
ag7
as((I2
I4
I9
I12
tp5708
(I1
I4
I9
I12
tp5709
tp5710
(lp5711
g7
ag6
as(g4447
(I2
I5
I9
I18
tp5712
tp5713
(lp5714
g6
ag7
as((I0
I5
I9
I13
tp5715
(I0
I6
I9
I13
tp5716
tp5717
(lp5718
g6
ag7
as((I0
I9
I10
I12
tp5719
(I0
I9
I10
I11
tp5720
tp5721
(lp5722
g7
ag6
as(g5239
(I2
I7
I9
I24
tp5723
tp5724
(lp5725
g6
ag7
as((I0
I16
I17
I26
tp5726
(I0
I16
I17
I25
tp5727
tp5728
(lp5729
g7
ag6
as(g3318
(I0
I19
I19
I20
tp5730
tp5731
(lp5732
g7
ag6
as(g1274
(I4
I6
I9
I19
tp5733
tp5734
(lp5735
g6
ag7
as(g5181
(I0
I25
I26
I28
tp5736
tp5737
(lp5738
g25
ag7
as(g4731
(I0
I3
I9
I21
tp5739
tp5740
(lp5741
g6
ag7
as((I0
I13
I14
I15
tp5742
(I0
I14
I14
I15
tp5743
tp5744
(lp5745
g25
ag7
as((I1
I9
I9
I17
tp5746
(I1
I9
I9
I16
tp5747
tp5748
(lp5749
g7
ag6
as(g3415
(I7
I9
I9
I19
tp5750
tp5751
(lp5752
g25
ag7
as((I0
I8
I9
I19
tp5753
(I0
I9
I9
I19
tp5754
tp5755
(lp5756
g25
ag7
as((I0
I9
I10
I14
tp5757
(I0
I9
I10
I13
tp5758
tp5759
(lp5760
g7
ag6
as(g5012
(I0
I7
I9
I19
tp5761
tp5762
(lp5763
g7
ag6
as((I1
I4
I9
I18
tp5764
(I1
I5
I9
I18
tp5765
tp5766
(lp5767
g6
ag7
as(g4224
(I3
I9
I9
I19
tp5768
tp5769
(lp5770
g7
ag6
as(g3783
(I5
I7
I9
I21
tp5771
tp5772
(lp5773
g7
ag6
as((I3
I5
I9
I11
tp5774
(I3
I6
I9
I11
tp5775
tp5776
(lp5777
g6
ag7
as(g2450
(I4
I8
I9
I15
tp5778
tp5779
(lp5780
g7
ag6
as((I4
I5
I9
I18
tp5781
(I4
I6
I9
I18
tp5782
tp5783
(lp5784
g6
ag7
as(g3806
(I2
I5
I9
I16
tp5785
tp5786
(lp5787
g7
ag6
as(g2847
(I0
I22
I23
I26
tp5788
tp5789
(lp5790
g25
ag7
as((I0
I11
I12
I15
tp5791
(I0
I12
I12
I15
tp5792
tp5793
(lp5794
g25
ag7
as(g5167
(I3
I7
I9
I26
tp5795
tp5796
(lp5797
g7
ag6
as(g5250
(I4
I6
I9
I24
tp5798
tp5799
(lp5800
g6
ag7
as(g3048
(I0
I9
I9
I20
tp5801
tp5802
(lp5803
g25
ag7
as((I0
I8
I9
I17
tp5804
(I0
I8
I9
I16
tp5805
tp5806
(lp5807
g7
ag6
as((I0
I24
I24
I27
tp5808
(I0
I24
I24
I26
tp5809
tp5810
(lp5811
g7
ag6
as(g356
(I7
I9
I9
I23
tp5812
tp5813
(lp5814
g7
ag6
as(g3181
(I0
I9
I10
I17
tp5815
tp5816
(lp5817
g83
ag7
as(g496
(I0
I0
I9
I19
tp5818
tp5819
(lp5820
g6
ag6
as(g606
(I0
I3
I9
I10
tp5821
tp5822
(lp5823
g7
ag6
as((I0
I16
I17
I20
tp5824
(I0
I16
I17
I19
tp5825
tp5826
(lp5827
g7
ag6
as(g1929
(I1
I7
I9
I27
tp5828
tp5829
(lp5830
g6
ag7
as((I0
I12
I13
I23
tp5831
(I0
I12
I13
I22
tp5832
tp5833
(lp5834
g7
ag6
as(g1317
(I0
I13
I13
I29
tp5835
tp5836
(lp5837
g25
ag7
as(g4683
(I5
I8
I9
I23
tp5838
tp5839
(lp5840
g6
ag7
as(g2407
(I2
I5
I9
I16
tp5841
tp5842
(lp5843
g7
ag6
as((I0
I23
I24
I25
tp5844
(I0
I24
I24
I25
tp5845
tp5846
(lp5847
g25
ag7
as((I5
I7
I9
I13
tp5848
(I5
I7
I9
I12
tp5849
tp5850
(lp5851
g7
ag6
as((I7
I9
I9
I18
tp5852
(I7
I9
I9
I17
tp5853
tp5854
(lp5855
g7
ag6
as(g1496
(I1
I4
I9
I26
tp5856
tp5857
(lp5858
g7
ag6
as(g43
(I7
I9
I9
I16
tp5859
tp5860
(lp5861
g25
ag7
as(g3755
(I5
I7
I9
I23
tp5862
tp5863
(lp5864
g6
ag7
as(g752
(I5
I8
I9
I20
tp5865
tp5866
(lp5867
g7
ag6
as(g5045
(I5
I9
I9
I15
tp5868
tp5869
(lp5870
g7
ag6
as((I0
I7
I9
I27
tp5871
(I0
I7
I9
I26
tp5872
tp5873
(lp5874
g7
ag6
as(g4575
(I0
I18
I19
I26
tp5875
tp5876
(lp5877
g7
ag6
as((I0
I22
I23
I28
tp5878
(I0
I23
I23
I28
tp5879
tp5880
(lp5881
g25
ag7
as((I0
I6
I9
I22
tp5882
(I0
I7
I9
I22
tp5883
tp5884
(lp5885
g6
ag7
as(g2555
(I0
I0
I9
I15
tp5886
tp5887
(lp5888
g6
ag6
as(g2173
(I2
I6
I9
I23
tp5889
tp5890
(lp5891
g6
ag7
as((I0
I13
I13
I24
tp5892
(I0
I13
I14
I24
tp5893
tp5894
(lp5895
g25
ag7
as(g168
(I3
I6
I9
I14
tp5896
tp5897
(lp5898
g7
ag6
as(g2327
(I0
I7
I9
I18
tp5899
tp5900
(lp5901
g6
ag7
as(g4030
(I0
I15
I16
I22
tp5902
tp5903
(lp5904
g7
ag6
as((I0
I8
I9
I28
tp5905
(I0
I8
I9
I27
tp5906
tp5907
(lp5908
g7
ag6
as(g3840
(I0
I6
I9
I12
tp5909
tp5910
(lp5911
g7
ag6
as(g4738
(I1
I8
I9
I10
tp5912
tp5913
(lp5914
g7
ag6
as((I1
I7
I9
I15
tp5915
(I0
I7
I9
I15
tp5916
tp5917
(lp5918
g7
ag34
as(g4973
(I0
I2
I9
I27
tp5919
tp5920
(lp5921
g7
ag34
as(g645
(I1
I6
I9
I17
tp5922
tp5923
(lp5924
g7
ag6
as(g3748
(I2
I7
I9
I27
tp5925
tp5926
(lp5927
g7
ag6
as(g1332
(I3
I5
I9
I20
tp5928
tp5929
(lp5930
g6
ag7
as((I6
I8
I9
I28
tp5931
(I5
I8
I9
I28
tp5932
tp5933
(lp5934
g7
ag6
as(g2707
(I5
I7
I9
I18
tp5935
tp5936
(lp5937
g7
ag6
as((I6
I9
I9
I16
tp5938
(I6
I9
I9
I15
tp5939
tp5940
(lp5941
g7
ag6
as((I5
I9
I9
I18
tp5942
(I4
I9
I9
I18
tp5943
tp5944
(lp5945
g7
ag6
as(g5294
(I3
I8
I9
I10
tp5946
tp5947
(lp5948
g7
ag6
as(g977
(I4
I7
I9
I16
tp5949
tp5950
(lp5951
g7
ag6
as(g5417
(I2
I5
I9
I20
tp5952
tp5953
(lp5954
g6
ag7
as((I0
I8
I9
I15
tp5955
(I0
I8
I9
I14
tp5956
tp5957
(lp5958
g7
ag6
as(g2973
(I4
I7
I9
I17
tp5959
tp5960
(lp5961
g6
ag7
as(g4627
(I1
I9
I9
I29
tp5962
tp5963
(lp5964
g7
ag6
as(g4186
(I2
I6
I9
I12
tp5965
tp5966
(lp5967
g7
ag6
as(g286
(I2
I4
I9
I27
tp5968
tp5969
(lp5970
g7
ag6
as((I5
I9
I9
I15
tp5971
(I4
I9
I9
I15
tp5972
tp5973
(lp5974
g7
ag6
as(g1115
(I1
I8
I9
I11
tp5975
tp5976
(lp5977
g7
ag6
as((I5
I8
I9
I11
tp5978
(I4
I8
I9
I11
tp5979
tp5980
(lp5981
g7
ag6
as((I0
I9
I10
I28
tp5982
(I0
I10
I10
I28
tp5983
tp5984
(lp5985
g25
ag7
as(g1960
(I0
I10
I10
I20
tp5986
tp5987
(lp5988
g25
ag7
as((I4
I5
I9
I11
tp5989
(I3
I5
I9
I11
tp5990
tp5991
(lp5992
g7
ag6
as(g423
(I0
I21
I21
I26
tp5993
tp5994
(lp5995
g7
ag6
as(g713
(I2
I4
I9
I27
tp5996
tp5997
(lp5998
g7
ag6
as(g961
(I1
I2
I9
I19
tp5999
tp6000
(lp6001
g7
ag6
as((I1
I5
I9
I24
tp6002
(I0
I5
I9
I24
tp6003
tp6004
(lp6005
g7
ag34
as(g484
(I5
I7
I9
I29
tp6006
tp6007
(lp6008
g7
ag6
as((I1
I2
I9
I22
tp6009
(I1
I3
I9
I22
tp6010
tp6011
(lp6012
g6
ag7
as(g4092
(I2
I9
I9
I23
tp6013
tp6014
(lp6015
g7
ag6
as(g3003
(I7
I9
I9
I27
tp6016
tp6017
(lp6018
g25
ag7
as(g3223
(I1
I6
I9
I10
tp6019
tp6020
(lp6021
g7
ag6
as((I0
I18
I18
I27
tp6022
(I0
I18
I18
I26
tp6023
tp6024
(lp6025
g7
ag6
as(g893
(I8
I9
I9
I27
tp6026
tp6027
(lp6028
g7
ag6
as(g2659
(I5
I7
I9
I11
tp6029
tp6030
(lp6031
g6
ag7
as((I2
I6
I9
I20
tp6032
(I2
I6
I9
I19
tp6033
tp6034
(lp6035
g7
ag6
as((I1
I9
I9
I20
tp6036
(I0
I9
I9
I20
tp6037
tp6038
(lp6039
g7
ag34
as(g364
(I5
I6
I9
I21
tp6040
tp6041
(lp6042
g7
ag6
as((I0
I14
I15
I16
tp6043
(I0
I15
I15
I16
tp6044
tp6045
(lp6046
g25
ag7
as(g1360
(I3
I5
I9
I13
tp6047
tp6048
(lp6049
g7
ag6
as(g4759
(I1
I3
I9
I20
tp6050
tp6051
(lp6052
g7
ag6
as(g6002
(I1
I5
I9
I23
tp6053
tp6054
(lp6055
g7
ag6
as(g677
(I4
I7
I9
I19
tp6056
tp6057
(lp6058
g7
ag6
as(g5082
(I0
I9
I9
I19
tp6059
tp6060
(lp6061
g7
ag34
as(g3946
(I0
I0
I9
I12
tp6062
tp6063
(lp6064
g25
ag6
as((I4
I9
I9
I27
tp6065
(I3
I9
I9
I27
tp6066
tp6067
(lp6068
g7
ag6
as(g5403
(I0
I12
I12
I15
tp6069
tp6070
(lp6071
g7
ag6
as((I0
I21
I21
I25
tp6072
(I0
I21
I22
I25
tp6073
tp6074
(lp6075
g25
ag7
as((I3
I6
I9
I17
tp6076
(I3
I6
I9
I16
tp6077
tp6078
(lp6079
g7
ag6
as(g2024
(I0
I5
I9
I26
tp6080
tp6081
(lp6082
g7
ag34
as(g752
(I4
I8
I9
I21
tp6083
tp6084
(lp6085
g7
ag6
as(g705
(I6
I8
I9
I12
tp6086
tp6087
(lp6088
g7
ag6
as(g3500
(I2
I4
I9
I18
tp6089
tp6090
(lp6091
g7
ag6
as(g2214
(I0
I12
I13
I19
tp6092
tp6093
(lp6094
g7
ag6
as(g3089
(I0
I0
I9
I25
tp6095
tp6096
(lp6097
g6
ag6
as((I0
I16
I17
I29
tp6098
(I0
I17
I17
I29
tp6099
tp6100
(lp6101
g25
ag7
as(g3877
(I1
I6
I9
I17
tp6102
tp6103
(lp6104
g7
ag6
as(g2831
(I2
I3
I9
I13
tp6105
tp6106
(lp6107
g7
ag6
as(g216
(I7
I9
I9
I23
tp6108
tp6109
(lp6110
g25
ag7
as(g298
(I1
I5
I9
I28
tp6111
tp6112
(lp6113
g7
ag12
as((I2
I5
I9
I16
tp6114
(I2
I5
I9
I15
tp6115
tp6116
(lp6117
g7
ag6
as(g4557
(I0
I0
I9
I28
tp6118
tp6119
(lp6120
g6
ag6
as(g4298
(I1
I7
I9
I10
tp6121
tp6122
(lp6123
g7
ag6
as(g3127
(I0
I7
I9
I12
tp6124
tp6125
(lp6126
g7
ag34
as((I0
I19
I20
I24
tp6127
(I0
I20
I20
I24
tp6128
tp6129
(lp6130
g25
ag7
as(g4589
(I0
I22
I23
I29
tp6131
tp6132
(lp6133
g25
ag7
as((I0
I9
I10
I25
tp6134
(I0
I10
I10
I25
tp6135
tp6136
(lp6137
g25
ag7
as((I0
I17
I18
I20
tp6138
(I0
I17
I18
I19
tp6139
tp6140
(lp6141
g7
ag6
as(g3597
(I0
I27
I27
I29
tp6142
tp6143
(lp6144
g25
ag7
as(g415
(I1
I2
I9
I15
tp6145
tp6146
(lp6147
g7
ag6
as((I0
I5
I9
I24
tp6148
(I0
I6
I9
I24
tp6149
tp6150
(lp6151
g6
ag7
as(g484
(I6
I8
I9
I29
tp6152
tp6153
(lp6154
g6
ag7
as((I0
I9
I9
I12
tp6155
(I0
I9
I10
I12
tp6156
tp6157
(lp6158
g83
ag7
as((I1
I7
I9
I10
tp6159
(I0
I7
I9
I10
tp6160
tp6161
(lp6162
g7
ag34
as((I3
I8
I9
I25
tp6163
(I3
I9
I9
I25
tp6164
tp6165
(lp6166
g25
ag7
as(g677
(I3
I7
I9
I20
tp6167
tp6168
(lp6169
g7
ag6
as(g1921
(I0
I10
I11
I21
tp6170
tp6171
(lp6172
g7
ag6
as((I0
I13
I14
I28
tp6173
(I0
I14
I14
I28
tp6174
tp6175
(lp6176
g25
ag7
as(g3032
(I2
I4
I9
I12
tp6177
tp6178
(lp6179
g6
ag7
as((I0
I21
I22
I24
tp6180
(I0
I22
I22
I24
tp6181
tp6182
(lp6183
g25
ag7
as(g3997
(I4
I7
I9
I11
tp6184
tp6185
(lp6186
g6
ag7
as(g3395
(I0
I5
I9
I18
tp6187
tp6188
(lp6189
g7
ag6
as(g1540
(I0
I22
I22
I27
tp6190
tp6191
(lp6192
g25
ag7
as(g5764
(I1
I4
I9
I17
tp6193
tp6194
(lp6195
g7
ag6
as(g4099
(I2
I7
I9
I24
tp6196
tp6197
(lp6198
g7
ag6
as(g403
(I1
I3
I9
I13
tp6199
tp6200
(lp6201
g7
ag6
as(g4878
(I3
I5
I9
I26
tp6202
tp6203
(lp6204
g6
ag7
as(g71
(I6
I7
I9
I14
tp6205
tp6206
(lp6207
g7
ag6
as((I0
I24
I24
I29
tp6208
(I0
I24
I24
I28
tp6209
tp6210
(lp6211
g7
ag12
as((I3
I6
I9
I27
tp6212
(I3
I7
I9
I27
tp6213
tp6214
(lp6215
g6
ag7
as((I0
I11
I11
I23
tp6216
(I0
I11
I11
I22
tp6217
tp6218
(lp6219
g7
ag6
as(g5335
(I1
I7
I9
I20
tp6220
tp6221
(lp6222
g6
ag7
as(g4130
(I0
I17
I18
I26
tp6223
tp6224
(lp6225
g7
ag6
as(g411
(I1
I4
I9
I18
tp6226
tp6227
(lp6228
g6
ag7
as(g2739
(I4
I9
I9
I20
tp6229
tp6230
(lp6231
g7
ag6
as(g4631
(I0
I8
I9
I25
tp6232
tp6233
(lp6234
g7
ag34
as((I0
I10
I11
I28
tp6235
(I0
I11
I11
I28
tp6236
tp6237
(lp6238
g25
ag7
as(g2266
(I1
I9
I9
I15
tp6239
tp6240
(lp6241
g7
ag6
as(g705
(I6
I9
I9
I13
tp6242
tp6243
(lp6244
g25
ag7
as(g2817
(I0
I19
I19
I28
tp6245
tp6246
(lp6247
g25
ag7
as((I0
I22
I23
I24
tp6248
(I0
I23
I23
I24
tp6249
tp6250
(lp6251
g25
ag7
as(g4062
(I0
I8
I9
I14
tp6252
tp6253
(lp6254
g7
ag34
as(g3667
(I0
I17
I18
I22
tp6255
tp6256
(lp6257
g25
ag7
as(g1803
(I0
I16
I16
I28
tp6258
tp6259
(lp6260
g25
ag7
as(g4384
(I0
I4
I9
I23
tp6261
tp6262
(lp6263
g6
ag7
as(g4759
(I1
I4
I9
I21
tp6264
tp6265
(lp6266
g6
ag7
as(g4539
(I5
I7
I9
I12
tp6267
tp6268
(lp6269
g6
ag7
as(g2016
(I0
I3
I9
I19
tp6270
tp6271
(lp6272
g6
ag7
as(g164
(I1
I8
I9
I27
tp6273
tp6274
(lp6275
g6
ag7
as((I3
I9
I9
I19
tp6276
(I3
I9
I9
I18
tp6277
tp6278
(lp6279
g7
ag6
as(g6148
(I0
I5
I9
I23
tp6280
tp6281
(lp6282
g7
ag6
as(g2754
(I3
I7
I9
I26
tp6283
tp6284
(lp6285
g6
ag7
as(g4026
(I1
I5
I9
I13
tp6286
tp6287
(lp6288
g7
ag6
as((I0
I10
I10
I29
tp6289
(I0
I10
I11
I29
tp6290
tp6291
(lp6292
g25
ag7
as(g649
(I2
I5
I9
I18
tp6293
tp6294
(lp6295
g7
ag6
as(g3081
(I2
I7
I9
I19
tp6296
tp6297
(lp6298
g7
ag6
as(g1941
(I3
I6
I9
I15
tp6299
tp6300
(lp6301
g7
ag6
as(g1564
(I3
I8
I9
I20
tp6302
tp6303
(lp6304
g6
ag7
as(g5407
(I0
I16
I17
I27
tp6305
tp6306
(lp6307
g25
ag7
as(g2642
(I0
I17
I17
I26
tp6308
tp6309
(lp6310
g7
ag6
as(g1305
(I0
I11
I11
I16
tp6311
tp6312
(lp6313
g7
ag6
as(g3262
(I5
I6
I9
I23
tp6314
tp6315
(lp6316
g7
ag6
as((I3
I5
I9
I12
tp6317
(I2
I5
I9
I12
tp6318
tp6319
(lp6320
g7
ag6
as((I1
I9
I9
I24
tp6321
(I0
I9
I9
I24
tp6322
tp6323
(lp6324
g7
ag34
as((I0
I15
I15
I26
tp6325
(I0
I15
I16
I26
tp6326
tp6327
(lp6328
g25
ag7
as(g2868
(I8
I9
I9
I16
tp6329
tp6330
(lp6331
g7
ag6
as((I0
I19
I20
I22
tp6332
(I0
I20
I20
I22
tp6333
tp6334
(lp6335
g25
ag7
as(g744
(I6
I7
I9
I26
tp6336
tp6337
(lp6338
g7
ag6
as((I4
I8
I9
I13
tp6339
(I4
I8
I9
I12
tp6340
tp6341
(lp6342
g7
ag6
as(g2362
(I5
I8
I9
I29
tp6343
tp6344
(lp6345
g6
ag7
as(g2677
(I5
I6
I9
I28
tp6346
tp6347
(lp6348
g7
ag12
as(g1360
(I3
I6
I9
I14
tp6349
tp6350
(lp6351
g6
ag7
as(g721
(I2
I3
I9
I26
tp6352
tp6353
(lp6354
g7
ag6
as(g528
(I6
I8
I9
I20
tp6355
tp6356
(lp6357
g7
ag6
as((I0
I20
I20
I25
tp6358
(I0
I20
I21
I25
tp6359
tp6360
(lp6361
g25
ag7
as((I3
I8
I9
I29
tp6362
(I3
I8
I9
I28
tp6363
tp6364
(lp6365
g7
ag12
as(g1726
(I2
I9
I9
I24
tp6366
tp6367
(lp6368
g7
ag6
as((I0
I4
I9
I21
tp6369
(I0
I4
I9
I20
tp6370
tp6371
(lp6372
g7
ag6
as((I0
I6
I9
I21
tp6373
(I0
I7
I9
I21
tp6374
tp6375
(lp6376
g6
ag7
as(g1240
(I0
I10
I11
I15
tp6377
tp6378
(lp6379
g25
ag7
as((I3
I9
I9
I18
tp6380
(I3
I9
I9
I17
tp6381
tp6382
(lp6383
g7
ag6
as(g1004
(I4
I6
I9
I12
tp6384
tp6385
(lp6386
g7
ag6
as((I5
I9
I9
I12
tp6387
(I5
I9
I9
I11
tp6388
tp6389
(lp6390
g7
ag6
as(g6362
(I2
I8
I9
I29
tp6391
tp6392
(lp6393
g7
ag6
as(g2031
(I0
I12
I13
I17
tp6394
tp6395
(lp6396
g7
ag6
as(g3953
(I6
I7
I9
I15
tp6397
tp6398
(lp6399
g7
ag6
as(g4373
(I4
I6
I9
I28
tp6400
tp6401
(lp6402
g7
ag12
as((I0
I20
I21
I29
tp6403
(I0
I21
I21
I29
tp6404
tp6405
(lp6406
g25
ag7
as((I3
I6
I9
I10
tp6407
(I2
I6
I9
I10
tp6408
tp6409
(lp6410
g7
ag6
as(g3833
(I2
I5
I9
I26
tp6411
tp6412
(lp6413
g7
ag6
as(g4220
(I6
I8
I9
I14
tp6414
tp6415
(lp6416
g7
ag6
as(g5466
(I4
I6
I9
I22
tp6417
tp6418
(lp6419
g7
ag6
as(g2620
(I1
I6
I9
I12
tp6420
tp6421
(lp6422
g7
ag6
as(g1536
(I4
I7
I9
I20
tp6423
tp6424
(lp6425
g6
ag7
as((I1
I4
I9
I10
tp6426
(I1
I5
I9
I10
tp6427
tp6428
(lp6429
g6
ag7
as(g3718
(I2
I8
I9
I18
tp6430
tp6431
(lp6432
g6
ag7
as(g5848
(I4
I7
I9
I13
tp6433
tp6434
(lp6435
g7
ag6
as(g5665
(I1
I7
I9
I19
tp6436
tp6437
(lp6438
g6
ag7
as(g5600
(I0
I13
I13
I21
tp6439
tp6440
(lp6441
g25
ag7
as((I5
I8
I9
I17
tp6442
(I5
I8
I9
I16
tp6443
tp6444
(lp6445
g7
ag6
as(g2131
(I3
I9
I9
I24
tp6446
tp6447
(lp6448
g7
ag6
as(g2843
(I5
I9
I9
I13
tp6449
tp6450
(lp6451
g25
ag7
as((I8
I9
I9
I26
tp6452
(I0
I0
I9
I26
tp6453
tp6454
(lp6455
g25
ag6
as(g2876
(I8
I9
I9
I26
tp6456
tp6457
(lp6458
g7
ag6
as(g3403
(I0
I5
I9
I23
tp6459
tp6460
(lp6461
g7
ag34
as(g1846
(I7
I9
I9
I22
tp6462
tp6463
(lp6464
g25
ag7
as((I2
I3
I9
I15
tp6465
(I1
I3
I9
I15
tp6466
tp6467
(lp6468
g7
ag6
as(g4571
(I1
I8
I9
I16
tp6469
tp6470
(lp6471
g6
ag7
as(g2980
(I0
I10
I11
I22
tp6472
tp6473
(lp6474
g7
ag6
as(g2573
(I0
I4
I9
I28
tp6475
tp6476
(lp6477
g6
ag7
as(g850
(I3
I9
I9
I19
tp6478
tp6479
(lp6480
g25
ag7
as(g4885
(I0
I11
I12
I22
tp6481
tp6482
(lp6483
g7
ag6
as((I6
I9
I9
I28
tp6484
(I6
I9
I9
I27
tp6485
tp6486
(lp6487
g7
ag6
as(g6442
(I4
I8
I9
I17
tp6488
tp6489
(lp6490
g7
ag6
as(g1933
(I6
I8
I9
I26
tp6491
tp6492
(lp6493
g7
ag6
as(g2087
(I2
I6
I9
I25
tp6494
tp6495
(lp6496
g7
ag6
as(g5719
(I0
I10
I10
I12
tp6497
tp6498
(lp6499
g25
ag7
as((I4
I6
I9
I26
tp6500
(I3
I6
I9
I26
tp6501
tp6502
(lp6503
g7
ag6
as(g5708
(I2
I4
I9
I11
tp6504
tp6505
(lp6506
g7
ag6
as(g6127
(I0
I19
I20
I23
tp6507
tp6508
(lp6509
g7
ag6
as(g5989
(I4
I5
I9
I10
tp6510
tp6511
(lp6512
g7
ag6
as(g5551
(I1
I4
I9
I14
tp6513
tp6514
(lp6515
g7
ag6
as(g3085
(I8
I9
I9
I20
tp6516
tp6517
(lp6518
g7
ag6
as(g2851
(I0
I14
I15
I22
tp6519
tp6520
(lp6521
g7
ag6
as((I0
I10
I11
I19
tp6522
(I0
I10
I11
I18
tp6523
tp6524
(lp6525
g7
ag6
as(g2876
(I7
I9
I9
I27
tp6526
tp6527
(lp6528
g7
ag6
as(g1147
(I1
I3
I9
I28
tp6529
tp6530
(lp6531
g7
ag6
as(g1973
(I3
I5
I9
I23
tp6532
tp6533
(lp6534
g6
ag7
as(g5347
(I0
I5
I9
I16
tp6535
tp6536
(lp6537
g7
ag34
as(g925
(I0
I0
I9
I20
tp6538
tp6539
(lp6540
g6
ag6
as(g3544
(I0
I3
I9
I23
tp6541
tp6542
(lp6543
g6
ag7
as(g5878
(I0
I22
I23
I27
tp6544
tp6545
(lp6546
g7
ag6
as(g5905
(I0
I9
I9
I28
tp6547
tp6548
(lp6549
g25
ag7
as(g4011
(I1
I8
I9
I19
tp6550
tp6551
(lp6552
g7
ag6
as(g2717
(I0
I4
I9
I19
tp6553
tp6554
(lp6555
g6
ag7
as(g5167
(I4
I8
I9
I26
tp6556
tp6557
(lp6558
g6
ag7
as(g740
(I4
I6
I9
I12
tp6559
tp6560
(lp6561
g6
ag7
as(g3873
(I5
I8
I9
I20
tp6562
tp6563
(lp6564
g7
ag6
as(g579
(I3
I5
I9
I13
tp6565
tp6566
(lp6567
g7
ag6
as(g945
(I2
I5
I9
I10
tp6568
tp6569
(lp6570
g7
ag6
as(g3583
(I0
I19
I20
I29
tp6571
tp6572
(lp6573
g25
ag7
as((I5
I8
I9
I22
tp6574
(I5
I8
I9
I21
tp6575
tp6576
(lp6577
g7
ag6
as((I6
I7
I9
I28
tp6578
(I0
I0
I9
I28
tp6579
tp6580
(lp6581
g6
ag6
as(g488
(I4
I6
I9
I10
tp6582
tp6583
(lp6584
g7
ag6
as((I1
I5
I9
I20
tp6585
(I1
I5
I9
I19
tp6586
tp6587
(lp6588
g7
ag6
as(g4721
(I2
I3
I9
I22
tp6589
tp6590
(lp6591
g7
ag6
as(g2218
(I2
I7
I9
I10
tp6592
tp6593
(lp6594
g6
ag7
as((I2
I6
I9
I21
tp6595
(I2
I6
I9
I20
tp6596
tp6597
(lp6598
g7
ag6
as((I0
I13
I13
I21
tp6599
(I0
I13
I13
I20
tp6600
tp6601
(lp6602
g7
ag6
as(g1560
(I3
I6
I9
I23
tp6603
tp6604
(lp6605
g7
ag6
as(g645
(I2
I7
I9
I17
tp6606
tp6607
(lp6608
g6
ag7
as(g4918
(I2
I8
I9
I21
tp6609
tp6610
(lp6611
g7
ag6
as(g1020
(I5
I7
I9
I19
tp6612
tp6613
(lp6614
g7
ag6
as(g462
(I0
I0
I9
I15
tp6615
tp6616
(lp6617
g6
ag6
as(g6036
(I1
I9
I9
I19
tp6618
tp6619
(lp6620
g7
ag6
as(g4511
(I2
I8
I9
I22
tp6621
tp6622
(lp6623
g7
ag6
as((I0
I13
I13
I20
tp6624
(I0
I13
I14
I20
tp6625
tp6626
(lp6627
g25
ag7
as(g4643
(I2
I8
I9
I28
tp6628
tp6629
(lp6630
g7
ag6
as(g5753
(I0
I8
I9
I18
tp6631
tp6632
(lp6633
g7
ag6
as((I1
I7
I9
I13
tp6634
(I0
I7
I9
I13
tp6635
tp6636
(lp6637
g7
ag34
as((I0
I12
I12
I19
tp6638
(I0
I12
I12
I18
tp6639
tp6640
(lp6641
g7
ag6
as(g941
(I2
I6
I9
I20
tp6642
tp6643
(lp6644
g7
ag6
as(g3131
(I2
I7
I9
I22
tp6645
tp6646
(lp6647
g7
ag6
as((I0
I9
I9
I15
tp6648
(I0
I9
I9
I14
tp6649
tp6650
(lp6651
g7
ag6
as((I0
I28
I29
I29
tp6652
(I0
I29
I29
I29
tp6653
tp6654
(lp6655
g34
ag7
as((I0
I7
I9
I23
tp6656
(I0
I7
I9
I22
tp6657
tp6658
(lp6659
g7
ag6
as(g815
(I0
I10
I10
I25
tp6660
tp6661
(lp6662
g7
ag6
as(g1336
(I0
I6
I9
I16
tp6663
tp6664
(lp6665
g7
ag34
as(g5774
(I3
I5
I9
I10
tp6666
tp6667
(lp6668
g7
ag6
as((I7
I9
I9
I24
tp6669
(I6
I9
I9
I24
tp6670
tp6671
(lp6672
g7
ag6
as(g792
(I0
I12
I12
I22
tp6673
tp6674
(lp6675
g7
ag6
as((I1
I8
I9
I17
tp6676
(I1
I8
I9
I16
tp6677
tp6678
(lp6679
g7
ag6
as(g2392
(I5
I8
I9
I18
tp6680
tp6681
(lp6682
g6
ag7
as(g6339
(I4
I9
I9
I13
tp6683
tp6684
(lp6685
g25
ag7
as((I4
I5
I9
I22
tp6686
(I0
I0
I9
I22
tp6687
tp6688
(lp6689
g6
ag6
as(g4535
(I0
I14
I14
I16
tp6690
tp6691
(lp6692
g7
ag6
as(g3081
(I2
I8
I9
I20
tp6693
tp6694
(lp6695
g6
ag7
as(g2354
(I0
I12
I12
I24
tp6696
tp6697
(lp6698
g25
ag7
as(g4321
(I3
I4
I9
I23
tp6699
tp6700
(lp6701
g7
ag6
as(g1707
(I3
I8
I9
I15
tp6702
tp6703
(lp6704
g7
ag6
as(g5781
(I0
I0
I9
I18
tp6705
tp6706
(lp6707
g6
ag6
as(g3036
(I3
I5
I9
I20
tp6708
tp6709
(lp6710
g7
ag6
as(g5590
(I1
I7
I9
I12
tp6711
tp6712
(lp6713
g6
ag7
as(g2577
(I4
I8
I9
I18
tp6714
tp6715
(lp6716
g7
ag6
as(g1418
(I3
I8
I9
I25
tp6717
tp6718
(lp6719
g7
ag6
as((I1
I3
I9
I24
tp6720
(I1
I3
I9
I23
tp6721
tp6722
(lp6723
g7
ag6
as((I1
I8
I9
I10
tp6724
(I1
I9
I9
I10
tp6725
tp6726
(lp6727
g25
ag7
as((I4
I7
I9
I13
tp6728
(I4
I7
I9
I12
tp6729
tp6730
(lp6731
g7
ag6
as(g2099
(I0
I16
I16
I25
tp6732
tp6733
(lp6734
g7
ag6
as(g3714
(I0
I2
I9
I13
tp6735
tp6736
(lp6737
g6
ag7
as(g4167
(I7
I8
I9
I27
tp6738
tp6739
(lp6740
g7
ag6
as(g5321
(I1
I4
I9
I14
tp6741
tp6742
(lp6743
g7
ag6
as(g5347
(I1
I6
I9
I16
tp6744
tp6745
(lp6746
g6
ag7
as(g5708
(I2
I5
I9
I12
tp6747
tp6748
(lp6749
g6
ag7
as(g4704
(I4
I8
I9
I16
tp6750
tp6751
(lp6752
g6
ag7
as(g6442
(I5
I9
I9
I17
tp6753
tp6754
(lp6755
g25
ag7
as(g6452
(I7
I9
I9
I26
tp6756
tp6757
(lp6758
g7
ag6
as(g823
(I0
I18
I19
I24
tp6759
tp6760
(lp6761
g7
ag6
as((I0
I1
I9
I28
tp6762
(I0
I2
I9
I28
tp6763
tp6764
(lp6765
g6
ag7
as(g6163
(I2
I8
I9
I25
tp6766
tp6767
(lp6768
g7
ag6
as((I0
I8
I9
I22
tp6769
(I0
I9
I9
I22
tp6770
tp6771
(lp6772
g25
ag7
as((I0
I13
I14
I16
tp6773
(I0
I13
I14
I15
tp6774
tp6775
(lp6776
g7
ag6
as((I0
I13
I13
I27
tp6777
(I0
I13
I14
I27
tp6778
tp6779
(lp6780
g25
ag7
as(g6595
(I1
I6
I9
I21
tp6781
tp6782
(lp6783
g7
ag6
as(g2663
(I4
I9
I9
I26
tp6784
tp6785
(lp6786
g25
ag7
as(g2555
(I0
I2
I9
I15
tp6787
tp6788
(lp6789
g7
ag34
as((I4
I9
I9
I12
tp6790
(I4
I9
I9
I11
tp6791
tp6792
(lp6793
g7
ag6
as(g3399
(I0
I0
I9
I18
tp6794
tp6795
(lp6796
g6
ag6
as((I0
I13
I14
I20
tp6797
(I0
I13
I14
I19
tp6798
tp6799
(lp6800
g7
ag6
as(g4483
(I1
I4
I9
I21
tp6801
tp6802
(lp6803
g7
ag6
as((I1
I9
I9
I13
tp6804
(I0
I9
I9
I13
tp6805
tp6806
(lp6807
g7
ag34
as(g3935
(I2
I5
I9
I11
tp6808
tp6809
(lp6810
g6
ag7
as(g2319
(I0
I4
I9
I20
tp6811
tp6812
(lp6813
g7
ag34
as((I0
I6
I9
I27
tp6814
(I0
I6
I9
I26
tp6815
tp6816
(lp6817
g7
ag6
as(g3044
(I0
I23
I23
I27
tp6818
tp6819
(lp6820
g7
ag6
as((I3
I7
I9
I16
tp6821
(I2
I7
I9
I16
tp6822
tp6823
(lp6824
g7
ag6
as(g1232
(I0
I9
I10
I14
tp6825
tp6826
(lp6827
g7
ag6
as(g3244
(I0
I0
I9
I25
tp6828
tp6829
(lp6830
g6
ag6
as(g3798
(I1
I4
I9
I28
tp6831
tp6832
(lp6833
g6
ag7
as(g2331
(I4
I7
I9
I26
tp6834
tp6835
(lp6836
g7
ag6
as(g4639
(I1
I4
I9
I29
tp6837
tp6838
(lp6839
g7
ag6
as(g1850
(I1
I9
I9
I14
tp6840
tp6841
(lp6842
g7
ag6
as(g6522
(I0
I11
I11
I19
tp6843
tp6844
(lp6845
g25
ag7
as((I8
I9
I9
I19
tp6846
(I7
I9
I9
I19
tp6847
tp6848
(lp6849
g7
ag6
as(g6574
(I4
I8
I9
I22
tp6850
tp6851
(lp6852
g7
ag6
as(g2
(I2
I6
I9
I11
tp6853
tp6854
(lp6855
g7
ag6
as((I3
I8
I9
I18
tp6856
(I3
I9
I9
I18
tp6857
tp6858
(lp6859
g25
ag7
as(g6777
(I0
I13
I13
I26
tp6860
tp6861
(lp6862
g7
ag6
as((I3
I9
I9
I21
tp6863
(I3
I9
I9
I20
tp6864
tp6865
(lp6866
g7
ag6
as((I3
I8
I9
I14
tp6867
(I2
I8
I9
I14
tp6868
tp6869
(lp6870
g7
ag6
as(g356
(I8
I9
I9
I22
tp6871
tp6872
(lp6873
g7
ag6
as(g2555
(I1
I2
I9
I14
tp6874
tp6875
(lp6876
g7
ag6
as(g5124
(I5
I8
I9
I23
tp6877
tp6878
(lp6879
g7
ag6
as(g1512
(I6
I9
I9
I13
tp6880
tp6881
(lp6882
g7
ag6
as(g1278
(I0
I2
I9
I25
tp6883
tp6884
(lp6885
g6
ag7
as(g67
(I1
I2
I9
I24
tp6886
tp6887
(lp6888
g7
ag6
as(g2091
(I0
I10
I11
I16
tp6889
tp6890
(lp6891
g7
ag6
as((I3
I7
I9
I23
tp6892
(I2
I7
I9
I23
tp6893
tp6894
(lp6895
g7
ag6
as(g6892
(I3
I7
I9
I22
tp6896
tp6897
(lp6898
g7
ag6
as(g4639
(I2
I5
I9
I29
tp6899
tp6900
(lp6901
g6
ag7
as(g1504
(I0
I15
I15
I28
tp6902
tp6903
(lp6904
g25
ag7
as(g819
(I1
I8
I9
I16
tp6905
tp6906
(lp6907
g7
ag6
as(g532
(I2
I7
I9
I28
tp6908
tp6909
(lp6910
g7
ag12
as(g2115
(I4
I6
I9
I15
tp6911
tp6912
(lp6913
g6
ag7
as(g4697
(I1
I6
I9
I16
tp6914
tp6915
(lp6916
g7
ag6
as((I0
I3
I9
I26
tp6917
(I0
I3
I9
I25
tp6918
tp6919
(lp6920
g7
ag6
as(g5955
(I0
I9
I9
I15
tp6921
tp6922
(lp6923
g25
ag7
as(g5831
(I0
I13
I13
I23
tp6924
tp6925
(lp6926
g25
ag7
as(g1042
(I1
I4
I9
I25
tp6927
tp6928
(lp6929
g7
ag6
as(g4339
(I1
I5
I9
I12
tp6930
tp6931
(lp6932
g7
ag6
as(g4257
(I3
I6
I9
I22
tp6933
tp6934
(lp6935
g7
ag6
as(g3892
(I6
I9
I9
I25
tp6936
tp6937
(lp6938
g7
ag6
as((I0
I10
I10
I19
tp6939
(I0
I10
I10
I18
tp6940
tp6941
(lp6942
g7
ag6
as(g957
(I3
I5
I9
I23
tp6943
tp6944
(lp6945
g7
ag6
as(g5848
(I5
I8
I9
I13
tp6946
tp6947
(lp6948
g6
ag7
as((I0
I12
I13
I26
tp6949
(I0
I12
I13
I25
tp6950
tp6951
(lp6952
g7
ag6
as((I0
I23
I24
I27
tp6953
(I0
I24
I24
I27
tp6954
tp6955
(lp6956
g25
ag7
as((I4
I8
I9
I29
tp6957
(I3
I8
I9
I29
tp6958
tp6959
(lp6960
g7
ag6
as(g854
(I0
I0
I9
I26
tp6961
tp6962
(lp6963
g6
ag34
as(g3155
(I0
I1
I9
I28
tp6964
tp6965
(lp6966
g7
ag12
as(g2700
(I7
I9
I9
I11
tp6967
tp6968
(lp6969
g25
ag7
as(g3197
(I1
I3
I9
I15
tp6970
tp6971
(lp6972
g7
ag6
as(g1289
(I4
I9
I9
I19
tp6973
tp6974
(lp6975
g25
ag7
as((I0
I12
I12
I29
tp6976
(I0
I12
I13
I29
tp6977
tp6978
(lp6979
g25
ag7
as(g1135
(I0
I7
I9
I28
tp6980
tp6981
(lp6982
g7
ag34
as((I2
I3
I9
I29
tp6983
(I1
I3
I9
I29
tp6984
tp6985
(lp6986
g7
ag6
as(g1622
(I4
I7
I9
I28
tp6987
tp6988
(lp6989
g7
ag6
as(g6022
(I0
I18
I19
I27
tp6990
tp6991
(lp6992
g25
ag7
as((I2
I9
I9
I13
tp6993
(I1
I9
I9
I13
tp6994
tp6995
(lp6996
g7
ag6
as(g1552
(I1
I3
I9
I26
tp6997
tp6998
(lp6999
g7
ag6
as(g1776
(I3
I6
I9
I23
tp7000
tp7001
(lp7002
g6
ag7
as((I2
I9
I9
I10
tp7003
(I1
I9
I9
I10
tp7004
tp7005
(lp7006
g7
ag6
as(g6076
(I3
I7
I9
I17
tp7007
tp7008
(lp7009
g6
ag7
as(g732
(I4
I5
I9
I24
tp7010
tp7011
(lp7012
g7
ag6
as(g2407
(I2
I6
I9
I17
tp7013
tp7014
(lp7015
g6
ag7
as((I0
I20
I21
I28
tp7016
(I0
I20
I21
I27
tp7017
tp7018
(lp7019
g7
ag6
as(g4073
(I3
I8
I9
I24
tp7020
tp7021
(lp7022
g6
ag7
as(g4466
(I0
I3
I9
I13
tp7023
tp7024
(lp7025
g6
ag7
as(g220
(I7
I8
I9
I29
tp7026
tp7027
(lp7028
g6
ag6
as(g1030
(I8
I9
I9
I28
tp7029
tp7030
(lp7031
g7
ag12
as(g5474
(I0
I0
I9
I24
tp7032
tp7033
(lp7034
g6
ag34
as(g2056
(I2
I4
I9
I14
tp7035
tp7036
(lp7037
g7
ag6
as(g104
(I3
I7
I9
I14
tp7038
tp7039
(lp7040
g7
ag6
as(g1615
(I0
I9
I9
I11
tp7041
tp7042
(lp7043
g7
ag34
as((I1
I6
I9
I15
tp7044
(I0
I6
I9
I15
tp7045
tp7046
(lp7047
g7
ag34
as(g5421
(I3
I9
I9
I14
tp7048
tp7049
(lp7050
g7
ag6
as((I0
I8
I9
I27
tp7051
(I0
I8
I9
I26
tp7052
tp7053
(lp7054
g7
ag6
as((I1
I9
I9
I23
tp7055
(I0
I9
I9
I23
tp7056
tp7057
(lp7058
g7
ag34
as(g4117
(I4
I9
I9
I17
tp7059
tp7060
(lp7061
g7
ag6
as(g2079
(I1
I3
I9
I14
tp7062
tp7063
(lp7064
g6
ag7
as(g1883
(I2
I7
I9
I18
tp7065
tp7066
(lp7067
g7
ag6
as(g116
(I6
I8
I9
I12
tp7068
tp7069
(lp7070
g6
ag7
as(g3403
(I1
I6
I9
I23
tp7071
tp7072
(lp7073
g6
ag7
as(g2169
(I2
I7
I9
I27
tp7074
tp7075
(lp7076
g6
ag7
as((I6
I9
I9
I25
tp7077
(I5
I9
I9
I25
tp7078
tp7079
(lp7080
g7
ag6
as((I0
I4
I9
I19
tp7081
(I0
I4
I9
I18
tp7082
tp7083
(lp7084
g7
ag6
as(g6276
(I2
I9
I9
I19
tp7085
tp7086
(lp7087
g7
ag6
as(g442
(I0
I11
I11
I24
tp7088
tp7089
(lp7090
g7
ag6
as(g3913
(I0
I0
I9
I22
tp7091
tp7092
(lp7093
g6
ag6
as(g2652
(I2
I6
I9
I14
tp7094
tp7095
(lp7096
g7
ag6
as(g2958
(I1
I6
I9
I12
tp7097
tp7098
(lp7099
g6
ag7
as(g1480
(I0
I24
I25
I26
tp7100
tp7101
(lp7102
g7
ag6
as(g3496
(I4
I8
I9
I28
tp7103
tp7104
(lp7105
g6
ag7
as(g7044
(I1
I6
I9
I14
tp7106
tp7107
(lp7108
g7
ag6
as(g6216
(I0
I11
I12
I23
tp7109
tp7110
(lp7111
g25
ag7
as(g2788
(I1
I6
I9
I22
tp7112
tp7113
(lp7114
g7
ag6
as((I0
I4
I9
I10
tp7115
(I0
I5
I9
I10
tp7116
tp7117
(lp7118
g6
ag7
as(g379
(I6
I8
I9
I22
tp7119
tp7120
(lp7121
g7
ag6
as((I0
I20
I21
I22
tp7122
(I0
I21
I21
I22
tp7123
tp7124
(lp7125
g25
ag7
as(g2273
(I0
I2
I9
I11
tp7126
tp7127
(lp7128
g7
ag34
as(g1151
(I6
I7
I9
I18
tp7129
tp7130
(lp7131
g7
ag6
as(g1151
(I5
I7
I9
I19
tp7132
tp7133
(lp7134
g7
ag6
as((I5
I7
I9
I25
tp7135
(I4
I7
I9
I25
tp7136
tp7137
(lp7138
g7
ag6
as(g3707
(I2
I4
I9
I17
tp7139
tp7140
(lp7141
g6
ag7
as(g2929
(I1
I9
I9
I27
tp7142
tp7143
(lp7144
g25
ag7
as((I0
I13
I14
I17
tp7145
(I0
I14
I14
I17
tp7146
tp7147
(lp7148
g25
ag7
as(g5715
(I0
I5
I9
I12
tp7149
tp7150
(lp7151
g7
ag6
as(g2425
(I0
I0
I9
I26
tp7152
tp7153
(lp7154
g6
ag6
as((I0
I5
I9
I27
tp7155
(I0
I5
I9
I26
tp7156
tp7157
(lp7158
g7
ag6
as(g274
(I3
I6
I9
I13
tp7159
tp7160
(lp7161
g7
ag6
as(g3722
(I0
I14
I15
I23
tp7162
tp7163
(lp7164
g25
ag7
as(g1653
(I3
I6
I9
I18
tp7165
tp7166
(lp7167
g7
ag6
as(g3740
(I5
I8
I9
I22
tp7168
tp7169
(lp7170
g6
ag7
as(g1293
(I4
I9
I9
I16
tp7171
tp7172
(lp7173
g25
ag7
as(g3021
(I0
I5
I9
I12
tp7174
tp7175
(lp7176
g6
ag7
as(g1673
(I1
I6
I9
I19
tp7177
tp7178
(lp7179
g7
ag6
as((I0
I1
I9
I10
tp7180
(I0
I2
I9
I10
tp7181
tp7182
(lp7183
g6
ag7
as((I2
I8
I9
I18
tp7184
(I2
I8
I9
I17
tp7185
tp7186
(lp7187
g7
ag6
as(g3645
(I1
I4
I9
I13
tp7188
tp7189
(lp7190
g7
ag6
as((I4
I5
I9
I21
tp7191
(I3
I5
I9
I21
tp7192
tp7193
(lp7194
g7
ag6
as((I0
I10
I11
I14
tp7195
(I0
I10
I11
I13
tp7196
tp7197
(lp7198
g7
ag6
as(g2958
(I0
I5
I9
I12
tp7199
tp7200
(lp7201
g7
ag34
as(g1875
(I4
I9
I9
I24
tp7202
tp7203
(lp7204
g25
ag7
as((I0
I14
I15
I24
tp7205
(I0
I15
I15
I24
tp7206
tp7207
(lp7208
g25
ag7
as(g709
(I4
I6
I9
I20
tp7209
tp7210
(lp7211
g7
ag6
as((I1
I7
I9
I23
tp7212
(I1
I7
I9
I22
tp7213
tp7214
(lp7215
g7
ag6
as(g3718
(I2
I7
I9
I17
tp7216
tp7217
(lp7218
g7
ag6
as((I5
I6
I9
I21
tp7219
(I5
I6
I9
I20
tp7220
tp7221
(lp7222
g7
ag6
as(g5555
(I3
I4
I9
I10
tp7223
tp7224
(lp7225
g7
ag6
as(g4432
(I0
I2
I9
I29
tp7226
tp7227
(lp7228
g7
ag34
as((I5
I9
I9
I14
tp7229
(I5
I9
I9
I13
tp7230
tp7231
(lp7232
g7
ag6
as(g969
(I4
I8
I9
I19
tp7233
tp7234
(lp7235
g6
ag7
as(g2115
(I0
I0
I9
I15
tp7236
tp7237
(lp7238
g6
ag6
as(g3997
(I4
I6
I9
I10
tp7239
tp7240
(lp7241
g7
ag6
as(g6957
(I4
I9
I9
I29
tp7242
tp7243
(lp7244
g25
ag7
as(g3174
(I0
I0
I9
I11
tp7245
tp7246
(lp7247
g6
ag6
as(g6317
(I3
I6
I9
I12
tp7248
tp7249
(lp7250
g6
ag7
as(g854
(I0
I1
I9
I25
tp7251
tp7252
(lp7253
g7
ag6
as(g2392
(I4
I7
I9
I18
tp7254
tp7255
(lp7256
g7
ag6
as(g6676
(I1
I9
I9
I17
tp7257
tp7258
(lp7259
g25
ag7
as((I0
I17
I17
I24
tp7260
(I0
I17
I17
I23
tp7261
tp7262
(lp7263
g7
ag6
as(g5931
(I6
I8
I9
I27
tp7264
tp7265
(lp7266
g7
ag6
as((I0
I6
I9
I10
tp7267
(I0
I7
I9
I10
tp7268
tp7269
(lp7270
g6
ag7
as(g4404
(I5
I9
I9
I16
tp7271
tp7272
(lp7273
g7
ag6
as(g1053
(I0
I3
I9
I15
tp7274
tp7275
(lp7276
g7
ag34
as((I0
I13
I14
I25
tp7277
(I0
I14
I14
I25
tp7278
tp7279
(lp7280
g25
ag7
as(g4490
(I3
I5
I9
I12
tp7281
tp7282
(lp7283
g6
ag7
as(g6500
(I4
I7
I9
I26
tp7284
tp7285
(lp7286
g6
ag7
as((I0
I5
I9
I11
tp7287
(I0
I5
I9
I10
tp7288
tp7289
(lp7290
g7
ag6
as((I0
I10
I11
I20
tp7291
(I0
I10
I11
I19
tp7292
tp7293
(lp7294
g7
ag6
as(g3791
(I1
I7
I9
I23
tp7295
tp7296
(lp7297
g7
ag6
as(g4411
(I0
I27
I28
I29
tp7298
tp7299
(lp7300
g25
ag7
as((I0
I14
I14
I26
tp7301
(I0
I14
I14
I25
tp7302
tp7303
(lp7304
g7
ag6
as((I3
I9
I9
I17
tp7305
(I3
I9
I9
I16
tp7306
tp7307
(lp7308
g7
ag6
as(g5989
(I4
I6
I9
I11
tp7309
tp7310
(lp7311
g6
ag7
as(g2287
(I2
I6
I9
I21
tp7312
tp7313
(lp7314
g6
ag7
as(g2772
(I0
I15
I15
I17
tp7315
tp7316
(lp7317
g7
ag6
as(g4490
(I3
I4
I9
I11
tp7318
tp7319
(lp7320
g7
ag6
as(g13
(I3
I8
I9
I22
tp7321
tp7322
(lp7323
g7
ag6
as(g1756
(I1
I4
I9
I22
tp7324
tp7325
(lp7326
g7
ag6
as(g6773
(I0
I14
I14
I16
tp7327
tp7328
(lp7329
g25
ag7
as(g1115
(I2
I9
I9
I11
tp7330
tp7331
(lp7332
g25
ag7
as(g1611
(I1
I6
I9
I28
tp7333
tp7334
(lp7335
g7
ag12
as((I0
I19
I20
I27
tp7336
(I0
I20
I20
I27
tp7337
tp7338
(lp7339
g25
ag7
as(g6009
(I0
I2
I9
I22
tp7340
tp7341
(lp7342
g7
ag34
as(g4867
(I4
I9
I9
I12
tp7343
tp7344
(lp7345
g7
ag6
as((I0
I9
I9
I21
tp7346
(I0
I9
I9
I20
tp7347
tp7348
(lp7349
g7
ag6
as(g4623
(I0
I5
I9
I27
tp7350
tp7351
(lp7352
g7
ag34
as(g1910
(I0
I23
I24
I25
tp7353
tp7354
(lp7355
g7
ag6
as(g6465
(I2
I3
I9
I14
tp7356
tp7357
(lp7358
g7
ag6
as((I5
I9
I9
I11
tp7359
(I4
I9
I9
I11
tp7360
tp7361
(lp7362
g7
ag6
as((I3
I9
I9
I29
tp7363
(I3
I9
I9
I28
tp7364
tp7365
(lp7366
g7
ag12
as(g1143
(I0
I4
I9
I27
tp7367
tp7368
(lp7369
g7
ag34
as(g1274
(I0
I0
I9
I19
tp7370
tp7371
(lp7372
g6
ag6
as(g6821
(I3
I7
I9
I15
tp7373
tp7374
(lp7375
g7
ag6
as(g3787
(I0
I9
I9
I16
tp7376
tp7377
(lp7378
g25
ag7
as(g5339
(I0
I8
I9
I12
tp7379
tp7380
(lp7381
g7
ag34
as((I0
I5
I9
I22
tp7382
(I0
I6
I9
I22
tp7383
tp7384
(lp7385
g6
ag7
as(g6387
(I4
I9
I9
I12
tp7386
tp7387
(lp7388
g7
ag6
as(g1649
(I5
I9
I9
I19
tp7389
tp7390
(lp7391
g7
ag6
as(g1707
(I4
I9
I9
I15
tp7392
tp7393
(lp7394
g25
ag7
as(g633
(I5
I7
I9
I18
tp7395
tp7396
(lp7397
g7
ag6
as((I2
I5
I9
I19
tp7398
(I1
I5
I9
I19
tp7399
tp7400
(lp7401
g7
ag6
as(g4490
(I0
I0
I9
I12
tp7402
tp7403
(lp7404
g6
ag6
as(g5982
(I0
I9
I10
I27
tp7405
tp7406
(lp7407
g7
ag6
as(g236
(I5
I7
I9
I14
tp7408
tp7409
(lp7410
g7
ag6
as(g5072
(I0
I4
I9
I12
tp7411
tp7412
(lp7413
g6
ag7
as(g5915
(I1
I7
I9
I14
tp7414
tp7415
(lp7416
g7
ag6
as(g6407
(I3
I7
I9
I10
tp7417
tp7418
(lp7419
g6
ag7
as((I0
I9
I10
I27
tp7420
(I0
I9
I10
I26
tp7421
tp7422
(lp7423
g7
ag6
as(g5447
(I0
I2
I9
I18
tp7424
tp7425
(lp7426
g6
ag7
as(g4954
(I0
I4
I9
I13
tp7427
tp7428
(lp7429
g7
ag34
as(g3341
(I0
I14
I14
I27
tp7430
tp7431
(lp7432
g7
ag6
as(g1826
(I1
I8
I9
I29
tp7433
tp7434
(lp7435
g7
ag6
as(g244
(I7
I9
I9
I29
tp7436
tp7437
(lp7438
g25
ag7
as((I6
I8
I9
I27
tp7439
(I5
I8
I9
I27
tp7440
tp7441
(lp7442
g7
ag6
as(g4308
(I0
I10
I11
I28
tp7443
tp7444
(lp7445
g25
ag7
as((I0
I3
I9
I14
tp7446
(I0
I3
I9
I13
tp7447
tp7448
(lp7449
g7
ag6
as(g3511
(I0
I14
I14
I24
tp7450
tp7451
(lp7452
g7
ag6
as(g2192
(I2
I7
I9
I16
tp7453
tp7454
(lp7455
g7
ag6
as(g858
(I0
I6
I9
I10
tp7456
tp7457
(lp7458
g7
ag6
as(g4606
(I6
I8
I9
I24
tp7459
tp7460
(lp7461
g6
ag7
as((I0
I5
I9
I15
tp7462
(I0
I5
I9
I14
tp7463
tp7464
(lp7465
g7
ag6
as((I0
I16
I17
I25
tp7466
(I0
I16
I17
I24
tp7467
tp7468
(lp7469
g7
ag6
as(g3138
(I1
I9
I9
I23
tp7470
tp7471
(lp7472
g7
ag6
as((I4
I7
I9
I22
tp7473
(I4
I8
I9
I22
tp7474
tp7475
(lp7476
g6
ag7
as((I0
I24
I25
I28
tp7477
(I0
I24
I25
I27
tp7478
tp7479
(lp7480
g7
ag6
as(g3873
(I6
I9
I9
I20
tp7481
tp7482
(lp7483
g25
ag7
as(g1590
(I6
I8
I9
I13
tp7484
tp7485
(lp7486
g6
ag7
as(g2696
(I0
I14
I15
I24
tp7487
tp7488
(lp7489
g7
ag6
as(g1669
(I0
I9
I9
I13
tp7490
tp7491
(lp7492
g7
ag6
as(g1123
(I3
I7
I9
I13
tp7493
tp7494
(lp7495
g7
ag6
as(g7473
(I4
I7
I9
I21
tp7496
tp7497
(lp7498
g7
ag6
as(g5808
(I0
I24
I25
I27
tp7499
tp7500
(lp7501
g25
ag7
as(g67
(I0
I2
I9
I25
tp7502
tp7503
(lp7504
g7
ag34
as(g63
(I4
I6
I9
I18
tp7505
tp7506
(lp7507
g7
ag6
as((I0
I20
I20
I22
tp7508
(I0
I20
I21
I22
tp7509
tp7510
(lp7511
g25
ag7
as(g5726
(I0
I17
I17
I26
tp7512
tp7513
(lp7514
g25
ag7
as(g1368
(I5
I7
I9
I17
tp7515
tp7516
(lp7517
g6
ag7
as(g949
(I1
I8
I9
I26
tp7518
tp7519
(lp7520
g7
ag6
as(g3810
(I0
I16
I17
I20
tp7521
tp7522
(lp7523
g7
ag6
as(g3073
(I0
I8
I9
I11
tp7524
tp7525
(lp7526
g6
ag7
as(g5095
(I3
I9
I9
I28
tp7527
tp7528
(lp7529
g7
ag6
as(g878
(I0
I10
I11
I23
tp7530
tp7531
(lp7532
g25
ag7
as(g6426
(I0
I4
I9
I10
tp7533
tp7534
(lp7535
g7
ag34
as((I4
I8
I9
I21
tp7536
(I3
I8
I9
I21
tp7537
tp7538
(lp7539
g7
ag6
as(g6585
(I1
I6
I9
I20
tp7540
tp7541
(lp7542
g6
ag7
as(g212
(I3
I4
I9
I21
tp7543
tp7544
(lp7545
g7
ag6
as(g1703
(I1
I4
I9
I15
tp7546
tp7547
(lp7548
g7
ag6
as(g784
(I0
I9
I9
I26
tp7549
tp7550
(lp7551
g7
ag6
as(g3166
(I0
I15
I16
I18
tp7552
tp7553
(lp7554
g7
ag6
as(g772
(I1
I8
I9
I14
tp7555
tp7556
(lp7557
g7
ag6
as(g6686
(I3
I5
I9
I22
tp7558
tp7559
(lp7560
g7
ag6
as((I0
I4
I9
I18
tp7561
(I0
I4
I9
I17
tp7562
tp7563
(lp7564
g7
ag6
as(g3007
(I0
I14
I14
I27
tp7565
tp7566
(lp7567
g25
ag7
as(g1496
(I2
I4
I9
I25
tp7568
tp7569
(lp7570
g7
ag6
as(g591
(I6
I9
I9
I26
tp7571
tp7572
(lp7573
g7
ag6
as(g1472
(I1
I4
I9
I25
tp7574
tp7575
(lp7576
g7
ag6
as((I0
I10
I10
I14
tp7577
(I0
I10
I11
I14
tp7578
tp7579
(lp7580
g25
ag7
as(g5978
(I5
I9
I9
I11
tp7581
tp7582
(lp7583
g25
ag7
as(g30
(I1
I3
I9
I24
tp7584
tp7585
(lp7586
g7
ag6
as(g2343
(I7
I9
I9
I15
tp7587
tp7588
(lp7589
g25
ag7
as((I0
I3
I9
I10
tp7590
(I0
I4
I9
I10
tp7591
tp7592
(lp7593
g6
ag7
as(g5942
(I5
I9
I9
I17
tp7594
tp7595
(lp7596
g7
ag6
as((I3
I7
I9
I13
tp7597
(I3
I8
I9
I13
tp7598
tp7599
(lp7600
g6
ag7
as((I4
I6
I9
I27
tp7601
(I3
I6
I9
I27
tp7602
tp7603
(lp7604
g7
ag6
as(g3504
(I3
I8
I9
I12
tp7605
tp7606
(lp7607
g7
ag6
as((I0
I15
I16
I21
tp7608
(I0
I15
I16
I20
tp7609
tp7610
(lp7611
g7
ag6
as(g2335
(I0
I0
I9
I14
tp7612
tp7613
(lp7614
g6
ag6
as(g2425
(I5
I7
I9
I26
tp7615
tp7616
(lp7617
g6
ag7
as(g5824
(I0
I17
I17
I20
tp7618
tp7619
(lp7620
g25
ag7
as(g2535
(I0
I5
I9
I20
tp7621
tp7622
(lp7623
g7
ag6
as((I7
I9
I9
I20
tp7624
(I7
I9
I9
I19
tp7625
tp7626
(lp7627
g7
ag6
as((I7
I9
I9
I28
tp7628
(I6
I9
I9
I28
tp7629
tp7630
(lp7631
g7
ag6
as(g5679
(I3
I8
I9
I21
tp7632
tp7633
(lp7634
g7
ag6
as(g6669
(I7
I9
I9
I23
tp7635
tp7636
(lp7637
g7
ag6
as(g1574
(I0
I17
I18
I26
tp7638
tp7639
(lp7640
g25
ag7
as(g669
(I0
I3
I9
I10
tp7641
tp7642
(lp7643
g7
ag34
as(g4494
(I2
I5
I9
I10
tp7644
tp7645
(lp7646
g6
ag7
as(g2362
(I5
I7
I9
I28
tp7647
tp7648
(lp7649
g7
ag12
as(g4721
(I1
I3
I9
I23
tp7650
tp7651
(lp7652
g7
ag6
as(g2604
(I0
I9
I9
I14
tp7653
tp7654
(lp7655
g7
ag34
as(g1715
(I1
I3
I9
I26
tp7656
tp7657
(lp7658
g6
ag7
as(g4773
(I2
I5
I9
I19
tp7659
tp7660
(lp7661
g7
ag6
as(g3077
(I2
I7
I9
I14
tp7662
tp7663
(lp7664
g6
ag7
as(g5604
(I0
I2
I9
I27
tp7665
tp7666
(lp7667
g7
ag6
as(g1871
(I0
I4
I9
I13
tp7668
tp7669
(lp7670
g6
ag7
as(g258
(I0
I0
I9
I14
tp7671
tp7672
(lp7673
g6
ag6
as((I0
I9
I10
I18
tp7674
(I0
I10
I10
I18
tp7675
tp7676
(lp7677
g25
ag7
as(g492
(I0
I2
I9
I22
tp7678
tp7679
(lp7680
g6
ag7
as(g5339
(I1
I8
I9
I11
tp7681
tp7682
(lp7683
g7
ag6
as((I7
I9
I9
I27
tp7684
(I6
I9
I9
I27
tp7685
tp7686
(lp7687
g7
ag6
as(g5551
(I0
I4
I9
I15
tp7688
tp7689
(lp7690
g7
ag34
as(g3085
(I7
I9
I9
I21
tp7691
tp7692
(lp7693
g7
ag6
as(g403
(I2
I3
I9
I12
tp7694
tp7695
(lp7696
g7
ag6
as(g2563
(I3
I8
I9
I25
tp7697
tp7698
(lp7699
g6
ag7
as(g969
(I4
I7
I9
I18
tp7700
tp7701
(lp7702
g7
ag6
as(g3659
(I1
I3
I9
I21
tp7703
tp7704
(lp7705
g7
ag6
as(g7277
(I0
I13
I14
I24
tp7706
tp7707
(lp7708
g7
ag6
as(g6578
(I6
I7
I9
I27
tp7709
tp7710
(lp7711
g7
ag6
as(g721
(I2
I4
I9
I27
tp7712
tp7713
(lp7714
g6
ag7
as(g4721
(I0
I0
I9
I23
tp7715
tp7716
(lp7717
g6
ag6
as(g7684
(I7
I9
I9
I26
tp7718
tp7719
(lp7720
g7
ag6
as(g2000
(I2
I7
I9
I26
tp7721
tp7722
(lp7723
g6
ag7
as(g957
(I2
I5
I9
I24
tp7724
tp7725
(lp7726
g7
ag6
as((I0
I18
I18
I26
tp7727
(I0
I18
I19
I26
tp7728
tp7729
(lp7730
g25
ag7
as(g2343
(I0
I0
I9
I15
tp7731
tp7732
(lp7733
g6
ag6
as(g3301
(I2
I7
I9
I12
tp7734
tp7735
(lp7736
g7
ag6
as(g2415
(I7
I9
I9
I20
tp7737
tp7738
(lp7739
g7
ag6
as(g3587
(I4
I8
I9
I26
tp7740
tp7741
(lp7742
g7
ag6
as(g7601
(I4
I6
I9
I26
tp7743
tp7744
(lp7745
g7
ag6
as(g6676
(I0
I8
I9
I17
tp7746
tp7747
(lp7748
g7
ag34
as(g4543
(I0
I15
I16
I21
tp7749
tp7750
(lp7751
g25
ag7
as(g30
(I1
I4
I9
I25
tp7752
tp7753
(lp7754
g6
ag7
as((I0
I12
I12
I18
tp7755
(I0
I12
I12
I17
tp7756
tp7757
(lp7758
g7
ag6
as(g3649
(I3
I5
I9
I23
tp7759
tp7760
(lp7761
g7
ag6
as(g1891
(I1
I4
I9
I11
tp7762
tp7763
(lp7764
g6
ag7
as(g3776
(I0
I7
I9
I20
tp7765
tp7766
(lp7767
g7
ag34
as(g2063
(I0
I11
I12
I21
tp7768
tp7769
(lp7770
g7
ag6
as(g3649
(I4
I5
I9
I22
tp7771
tp7772
(lp7773
g7
ag6
as(g6578
(I5
I7
I9
I28
tp7774
tp7775
(lp7776
g7
ag6
as(g5120
(I1
I3
I9
I10
tp7777
tp7778
(lp7779
g7
ag6
as(g3861
(I0
I3
I9
I17
tp7780
tp7781
(lp7782
g6
ag7
as(g4596
(I7
I9
I9
I14
tp7783
tp7784
(lp7785
g7
ag6
as(g552
(I2
I7
I9
I26
tp7786
tp7787
(lp7788
g7
ag6
as((I0
I5
I9
I14
tp7789
(I0
I5
I9
I13
tp7790
tp7791
(lp7792
g7
ag6
as(g2831
(I1
I3
I9
I14
tp7793
tp7794
(lp7795
g7
ag6
as(g2937
(I0
I0
I9
I24
tp7796
tp7797
(lp7798
g6
ag6
as(g6098
(I0
I16
I17
I28
tp7799
tp7800
(lp7801
g7
ag12
as(g1842
(I2
I5
I9
I17
tp7802
tp7803
(lp7804
g7
ag6
as(g992
(I5
I7
I9
I13
tp7805
tp7806
(lp7807
g7
ag6
as(g2750
(I3
I6
I9
I17
tp7808
tp7809
(lp7810
g6
ag7
as(g7674
(I0
I9
I10
I17
tp7811
tp7812
(lp7813
g7
ag6
as(g480
(I1
I6
I9
I13
tp7814
tp7815
(lp7816
g7
ag6
as(g2813
(I0
I3
I9
I18
tp7817
tp7818
(lp7819
g6
ag7
as(g4298
(I0
I7
I9
I11
tp7820
tp7821
(lp7822
g7
ag34
as(g3791
(I0
I7
I9
I24
tp7823
tp7824
(lp7825
g7
ag34
as(g92
(I2
I8
I9
I27
tp7826
tp7827
(lp7828
g6
ag7
as(g3848
(I0
I13
I13
I15
tp7829
tp7830
(lp7831
g7
ag6
as(g5697
(I1
I9
I9
I21
tp7832
tp7833
(lp7834
g7
ag6
as(g3248
(I1
I3
I9
I11
tp7835
tp7836
(lp7837
g7
ag6
as(g800
(I1
I8
I9
I22
tp7838
tp7839
(lp7840
g7
ag6
as(g1711
(I4
I8
I9
I29
tp7841
tp7842
(lp7843
g6
ag7
as(g3077
(I2
I6
I9
I13
tp7844
tp7845
(lp7846
g7
ag6
as(g6634
(I1
I8
I9
I13
tp7847
tp7848
(lp7849
g6
ag7
as(g1484
(I0
I21
I21
I27
tp7850
tp7851
(lp7852
g25
ag7
as(g3127
(I1
I7
I9
I11
tp7853
tp7854
(lp7855
g7
ag6
as(g1673
(I2
I6
I9
I18
tp7856
tp7857
(lp7858
g7
ag6
as(g71
(I0
I0
I9
I15
tp7859
tp7860
(lp7861
g6
ag6
as(g4693
(I1
I8
I9
I13
tp7862
tp7863
(lp7864
g7
ag6
as(g59
(I1
I7
I9
I10
tp7865
tp7866
(lp7867
g6
ag7
as(g3707
(I1
I3
I9
I17
tp7868
tp7869
(lp7870
g7
ag6
as(g7439
(I6
I9
I9
I27
tp7871
tp7872
(lp7873
g25
ag7
as(g160
(I0
I11
I12
I26
tp7874
tp7875
(lp7876
g7
ag6
as((I0
I10
I10
I20
tp7877
(I0
I10
I10
I19
tp7878
tp7879
(lp7880
g7
ag6
as((I0
I9
I10
I24
tp7881
(I0
I10
I10
I24
tp7882
tp7883
(lp7884
g25
ag7
as(g4483
(I1
I5
I9
I22
tp7885
tp7886
(lp7887
g6
ag7
as(g6114
(I2
I6
I9
I16
tp7888
tp7889
(lp7890
g6
ag7
as(g6917
(I0
I4
I9
I26
tp7891
tp7892
(lp7893
g6
ag7
as(g1348
(I1
I4
I9
I19
tp7894
tp7895
(lp7896
g7
ag6
as(g1197
(I4
I6
I9
I15
tp7897
tp7898
(lp7899
g7
ag6
as(g3174
(I6
I7
I9
I10
tp7900
tp7901
(lp7902
g7
ag6
as(g6797
(I0
I14
I14
I20
tp7903
tp7904
(lp7905
g25
ag7
as(g1449
(I2
I8
I9
I17
tp7906
tp7907
(lp7908
g7
ag6
as((I2
I3
I9
I22
tp7909
(I2
I3
I9
I21
tp7910
tp7911
(lp7912
g7
ag6
as((I0
I11
I12
I29
tp7913
(I0
I11
I12
I28
tp7914
tp7915
(lp7916
g7
ag12
as((I7
I9
I9
I10
tp7917
(I6
I9
I9
I10
tp7918
tp7919
(lp7920
g7
ag6
as(g7184
(I2
I9
I9
I18
tp7921
tp7922
(lp7923
g25
ag7
as(g164
(I1
I7
I9
I26
tp7924
tp7925
(lp7926
g7
ag6
as(g4447
(I2
I4
I9
I17
tp7927
tp7928
(lp7929
g7
ag6
as(g4697
(I2
I7
I9
I16
tp7930
tp7931
(lp7932
g6
ag7
as(g3783
(I6
I7
I9
I20
tp7933
tp7934
(lp7935
g7
ag6
as(g3297
(I0
I12
I12
I13
tp7936
tp7937
(lp7938
g7
ag6
as(g4676
(I2
I8
I9
I15
tp7939
tp7940
(lp7941
g7
ag6
as(g3707
(I0
I0
I9
I17
tp7942
tp7943
(lp7944
g6
ag6
as(g1069
(I4
I7
I9
I26
tp7945
tp7946
(lp7947
g7
ag6
as(g1715
(I1
I2
I9
I25
tp7948
tp7949
(lp7950
g7
ag6
as((I3
I7
I9
I11
tp7951
(I3
I7
I9
I10
tp7952
tp7953
(lp7954
g7
ag6
as(g5871
(I0
I8
I9
I27
tp7955
tp7956
(lp7957
g6
ag7
as(g6339
(I3
I8
I9
I13
tp7958
tp7959
(lp7960
g7
ag6
as((I0
I7
I9
I28
tp7961
(I0
I7
I9
I27
tp7962
tp7963
(lp7964
g7
ag6
as(g6648
(I0
I9
I10
I15
tp7965
tp7966
(lp7967
g83
ag7
as(g3993
(I0
I12
I12
I20
tp7968
tp7969
(lp7970
g7
ag6
as(g6380
(I2
I9
I9
I18
tp7971
tp7972
(lp7973
g7
ag6
as(g1582
(I3
I5
I9
I27
tp7974
tp7975
(lp7976
g7
ag6
as(g2008
(I3
I5
I9
I26
tp7977
tp7978
(lp7979
g7
ag6
as(g961
(I0
I0
I9
I20
tp7980
tp7981
(lp7982
g6
ag6
as(g1883
(I3
I7
I9
I17
tp7983
tp7984
(lp7985
g7
ag6
as(g1163
(I7
I9
I9
I10
tp7986
tp7987
(lp7988
g25
ag7
as(g6762
(I0
I0
I9
I28
tp7989
tp7990
(lp7991
g6
ag34
as(g6317
(I3
I5
I9
I11
tp7992
tp7993
(lp7994
g7
ag6
as(g1590
(I6
I7
I9
I12
tp7995
tp7996
(lp7997
g7
ag6
as(g4763
(I0
I3
I9
I27
tp7998
tp7999
(lp8000
g7
ag34
as(g6076
(I2
I6
I9
I17
tp8001
tp8002
(lp8003
g7
ag6
as(g1182
(I4
I9
I9
I20
tp8004
tp8005
(lp8006
g7
ag6
as(g965
(I6
I8
I9
I16
tp8007
tp8008
(lp8009
g7
ag6
as(g6065
(I4
I9
I9
I26
tp8010
tp8011
(lp8012
g7
ag6
as(g4504
(I0
I14
I15
I22
tp8013
tp8014
(lp8015
g25
ag7
as((I1
I5
I9
I10
tp8016
(I1
I6
I9
I10
tp8017
tp8018
(lp8019
g6
ag7
as(g7055
(I1
I9
I9
I22
tp8020
tp8021
(lp8022
g7
ag6
as((I0
I1
I9
I14
tp8023
(I0
I0
I9
I14
tp8024
tp8025
(lp8026
g6
ag34
as(g1685
(I5
I8
I9
I16
tp8027
tp8028
(lp8029
g7
ag6
as(g7229
(I4
I9
I9
I14
tp8030
tp8031
(lp8032
g7
ag6
as(g6574
(I5
I9
I9
I22
tp8033
tp8034
(lp8035
g25
ag7
as(g1430
(I5
I8
I9
I12
tp8036
tp8037
(lp8038
g7
ag6
as(g132
(I0
I10
I11
I26
tp8039
tp8040
(lp8041
g7
ag6
as(g1099
(I4
I8
I9
I28
tp8042
tp8043
(lp8044
g7
ag6
as(g7155
(I0
I6
I9
I27
tp8045
tp8046
(lp8047
g6
ag7
as(g1143
(I1
I5
I9
I27
tp8048
tp8049
(lp8050
g6
ag7
as(g5310
(I0
I15
I15
I20
tp8051
tp8052
(lp8053
g25
ag7
as(g5246
(I0
I15
I16
I27
tp8054
tp8055
(lp8056
g25
ag7
as(g5447
(I0
I1
I9
I17
tp8057
tp8058
(lp8059
g7
ag6
as(g6009
(I0
I0
I9
I22
tp8060
tp8061
(lp8062
g6
ag6
as(g2103
(I1
I4
I9
I24
tp8063
tp8064
(lp8065
g7
ag6
as(g4606
(I5
I7
I9
I24
tp8066
tp8067
(lp8068
g7
ag6
as(g3337
(I3
I6
I9
I15
tp8069
tp8070
(lp8071
g6
ag7
as(g3638
(I4
I9
I9
I17
tp8072
tp8073
(lp8074
g25
ag7
as(g3112
(I2
I5
I9
I13
tp8075
tp8076
(lp8077
g7
ag6
as(g244
(I7
I8
I9
I28
tp8078
tp8079
(lp8080
g7
ag12
as((I1
I4
I9
I17
tp8081
(I0
I4
I9
I17
tp8082
tp8083
(lp8084
g7
ag34
as(g3913
(I6
I8
I9
I22
tp8085
tp8086
(lp8087
g6
ag7
as(g17
(I1
I8
I9
I26
tp8088
tp8089
(lp8090
g6
ag7
as((I4
I9
I9
I17
tp8091
(I3
I9
I9
I17
tp8092
tp8093
(lp8094
g7
ag6
as(g3896
(I4
I9
I9
I24
tp8095
tp8096
(lp8097
g7
ag6
as(g6846
(I8
I9
I9
I18
tp8098
tp8099
(lp8100
g7
ag6
as(g7191
(I4
I6
I9
I21
tp8101
tp8102
(lp8103
g6
ag7
as(g657
(I0
I14
I15
I27
tp8104
tp8105
(lp8106
g25
ag7
as(g6953
(I0
I23
I24
I26
tp8107
tp8108
(lp8109
g7
ag6
as(g1077
(I3
I8
I9
I28
tp8110
tp8111
(lp8112
g7
ag6
as(g3935
(I2
I4
I9
I10
tp8113
tp8114
(lp8115
g7
ag6
as(g4564
(I0
I22
I23
I28
tp8116
tp8117
(lp8118
g25
ag7
as((I0
I10
I10
I25
tp8119
(I0
I10
I11
I25
tp8120
tp8121
(lp8122
g25
ag7
as(g1582
(I0
I0
I9
I27
tp8123
tp8124
(lp8125
g6
ag6
as((I3
I6
I9
I28
tp8126
(I3
I7
I9
I28
tp8127
tp8128
(lp8129
g6
ag7
as(g5250
(I4
I5
I9
I23
tp8130
tp8131
(lp8132
g7
ag6
as(g2000
(I1
I6
I9
I26
tp8133
tp8134
(lp8135
g7
ag6
as(g2119
(I5
I9
I9
I20
tp8136
tp8137
(lp8138
g7
ag6
as((I0
I12
I13
I24
tp8139
(I0
I13
I13
I24
tp8140
tp8141
(lp8142
g25
ag7
as(g4175
(I2
I4
I9
I26
tp8143
tp8144
(lp8145
g7
ag6
as(g1524
(I1
I6
I9
I19
tp8146
tp8147
(lp8148
g6
ag7
as(g1895
(I3
I5
I9
I10
tp8149
tp8150
(lp8151
g6
ag7
as(g3287
(I6
I7
I9
I13
tp8152
tp8153
(lp8154
g7
ag6
as(g7909
(I1
I3
I9
I22
tp8155
tp8156
(lp8157
g7
ag6
as(g2331
(I3
I7
I9
I27
tp8158
tp8159
(lp8160
g7
ag6
as(g6403
(I0
I20
I21
I28
tp8161
tp8162
(lp8163
g7
ag12
as((I0
I2
I9
I24
tp8164
(I0
I2
I9
I23
tp8165
tp8166
(lp8167
g7
ag6
as(g2115
(I4
I5
I9
I14
tp8168
tp8169
(lp8170
g7
ag6
as(g7420
(I0
I10
I10
I27
tp8171
tp8172
(lp8173
g25
ag7
as((I3
I8
I9
I10
tp8174
(I3
I9
I9
I10
tp8175
tp8176
(lp8177
g25
ag7
as((I4
I7
I9
I11
tp8178
(I4
I8
I9
I11
tp8179
tp8180
(lp8181
g6
ag7
as(g3003
(I6
I8
I9
I27
tp8182
tp8183
(lp8184
g7
ag6
as(g6983
(I2
I3
I9
I28
tp8185
tp8186
(lp8187
g7
ag12
as((I3
I9
I9
I16
tp8188
(I3
I9
I9
I15
tp8189
tp8190
(lp8191
g7
ag6
as(g2527
(I2
I5
I9
I23
tp8192
tp8193
(lp8194
g6
ag7
as(g1012
(I0
I0
I9
I26
tp8195
tp8196
(lp8197
g6
ag6
as((I1
I6
I9
I28
tp8198
(I0
I6
I9
I28
tp8199
tp8200
(lp8201
g7
ag34
as((I0
I2
I9
I29
tp8202
(I0
I3
I9
I29
tp8203
tp8204
(lp8205
g6
ag7
as(g7016
(I0
I21
I21
I28
tp8206
tp8207
(lp8208
g25
ag7
as((I0
I4
I9
I14
tp8209
(I0
I4
I9
I13
tp8210
tp8211
(lp8212
g7
ag6
as(g4585
(I0
I6
I9
I24
tp8213
tp8214
(lp8215
g7
ag34
as(g1020
(I4
I7
I9
I20
tp8216
tp8217
(lp8218
g7
ag6
as(g2226
(I0
I17
I17
I24
tp8219
tp8220
(lp8221
g7
ag6
as(g6867
(I3
I8
I9
I13
tp8222
tp8223
(lp8224
g7
ag6
as(g929
(I0
I11
I12
I24
tp8225
tp8226
(lp8227
g7
ag6
as(g6332
(I0
I19
I20
I21
tp8228
tp8229
(lp8230
g7
ag6
as((I3
I6
I9
I15
tp8231
(I2
I6
I9
I15
tp8232
tp8233
(lp8234
g7
ag6
as(g1372
(I2
I9
I9
I12
tp8235
tp8236
(lp8237
g25
ag7
as(g4527
(I0
I4
I9
I23
tp8238
tp8239
(lp8240
g7
ag6
as(g7951
(I2
I7
I9
I11
tp8241
tp8242
(lp8243
g7
ag6
as(g7382
(I0
I5
I9
I21
tp8244
tp8245
(lp8246
g7
ag6
as((I2
I7
I9
I16
tp8247
(I2
I7
I9
I15
tp8248
tp8249
(lp8250
g7
ag6
as(g6599
(I0
I13
I14
I21
tp8251
tp8252
(lp8253
g25
ag7
as(g1224
(I5
I9
I9
I22
tp8254
tp8255
(lp8256
g7
ag6
as(g1336
(I1
I7
I9
I16
tp8257
tp8258
(lp8259
g6
ag7
as(g5113
(I0
I1
I9
I22
tp8260
tp8261
(lp8262
g7
ag6
as(g4349
(I0
I11
I11
I15
tp8263
tp8264
(lp8265
g25
ag7
as(g941
(I3
I6
I9
I19
tp8266
tp8267
(lp8268
g7
ag6
as(g6976
(I0
I12
I12
I28
tp8269
tp8270
(lp8271
g7
ag12
as(g120
(I0
I8
I9
I28
tp8272
tp8273
(lp8274
g7
ag34
as(g403
(I0
I0
I9
I13
tp8275
tp8276
(lp8277
g6
ag6
as(g977
(I5
I8
I9
I16
tp8278
tp8279
(lp8280
g6
ag7
as(g7951
(I3
I8
I9
I11
tp8281
tp8282
(lp8283
g6
ag7
as(g6325
(I0
I15
I15
I25
tp8284
tp8285
(lp8286
g7
ag6
as(g5335
(I0
I6
I9
I20
tp8287
tp8288
(lp8289
g7
ag34
as(g116
(I6
I7
I9
I11
tp8290
tp8291
(lp8292
g7
ag6
as(g2921
(I1
I6
I9
I22
tp8293
tp8294
(lp8295
g7
ag6
as(g1297
(I2
I8
I9
I16
tp8296
tp8297
(lp8298
g7
ag6
as(g136
(I0
I16
I16
I26
tp8299
tp8300
(lp8301
g25
ag7
as((I2
I9
I9
I15
tp8302
(I2
I9
I9
I14
tp8303
tp8304
(lp8305
g7
ag6
as(g6358
(I0
I20
I20
I24
tp8306
tp8307
(lp8308
g7
ag6
as((I0
I17
I17
I20
tp8309
(I0
I17
I17
I19
tp8310
tp8311
(lp8312
g7
ag6
as(g8081
(I1
I5
I9
I17
tp8313
tp8314
(lp8315
g6
ag7
as(g2765
(I0
I4
I9
I11
tp8316
tp8317
(lp8318
g7
ag34
as(g4171
(I0
I0
I9
I17
tp8319
tp8320
(lp8321
g6
ag6
as(g8
(I0
I9
I9
I29
tp8322
tp8323
(lp8324
g7
ag34
as(g4798
(I0
I14
I15
I16
tp8325
tp8326
(lp8327
g25
ag7
as((I4
I9
I9
I23
tp8328
(I4
I9
I9
I22
tp8329
tp8330
(lp8331
g7
ag6
as(g387
(I1
I4
I9
I11
tp8332
tp8333
(lp8334
g7
ag6
as(g5294
(I3
I9
I9
I11
tp8335
tp8336
(lp8337
g25
ag7
as(g1004
(I3
I6
I9
I13
tp8338
tp8339
(lp8340
g7
ag6
as(g4553
(I2
I9
I9
I25
tp8341
tp8342
(lp8343
g25
ag7
as(g1368
(I0
I0
I9
I17
tp8344
tp8345
(lp8346
g6
ag6
as(g3645
(I2
I4
I9
I12
tp8347
tp8348
(lp8349
g7
ag6
as((I4
I7
I9
I15
tp8350
(I3
I7
I9
I15
tp8351
tp8352
(lp8353
g7
ag6
as(g438
(I3
I8
I9
I22
tp8354
tp8355
(lp8356
g7
ag6
as(g4473
(I0
I3
I9
I21
tp8357
tp8358
(lp8359
g7
ag6
as(g116
(I0
I0
I9
I12
tp8360
tp8361
(lp8362
g6
ag6
as(g5144
(I2
I7
I9
I10
tp8363
tp8364
(lp8365
g7
ag6
as(g7363
(I2
I9
I9
I29
tp8366
tp8367
(lp8368
g7
ag6
as(g3755
(I5
I6
I9
I22
tp8369
tp8370
(lp8371
g7
ag6
as(g7191
(I0
I0
I9
I21
tp8372
tp8373
(lp8374
g6
ag6
as(g2724
(I0
I9
I9
I21
tp8375
tp8376
(lp8377
g7
ag34
as(g1123
(I3
I8
I9
I14
tp8378
tp8379
(lp8380
g6
ag7
as(g3744
(I4
I9
I9
I14
tp8381
tp8382
(lp8383
g7
ag6
as(g434
(I1
I3
I9
I13
tp8384
tp8385
(lp8386
g6
ag7
as(g6790
(I3
I9
I9
I12
tp8387
tp8388
(lp8389
g7
ag6
as(g693
(I7
I9
I9
I21
tp8390
tp8391
(lp8392
g25
ag7
as((I3
I9
I9
I27
tp8393
(I2
I9
I9
I27
tp8394
tp8395
(lp8396
g7
ag6
as((I0
I3
I9
I29
tp8397
(I0
I4
I9
I29
tp8398
tp8399
(lp8400
g6
ag7
as((I0
I23
I23
I29
tp8401
(I0
I23
I24
I29
tp8402
tp8403
(lp8404
g25
ag7
as((I5
I8
I9
I29
tp8405
(I5
I8
I9
I28
tp8406
tp8407
(lp8408
g7
ag12
as(g8023
(I0
I1
I9
I13
tp8409
tp8410
(lp8411
g7
ag6
as(g2527
(I1
I4
I9
I23
tp8412
tp8413
(lp8414
g7
ag6
as(g1364
(I0
I20
I21
I29
tp8415
tp8416
(lp8417
g25
ag7
as(g6212
(I3
I6
I9
I26
tp8418
tp8419
(lp8420
g7
ag6
as(g4938
(I0
I5
I9
I22
tp8421
tp8422
(lp8423
g6
ag7
as(g933
(I0
I9
I9
I21
tp8424
tp8425
(lp8426
g25
ag7
as(g579
(I0
I0
I9
I13
tp8427
tp8428
(lp8429
g6
ag6
as(g1084
(I3
I6
I9
I24
tp8430
tp8431
(lp8432
g7
ag6
as((I0
I13
I13
I28
tp8433
(I0
I13
I13
I27
tp8434
tp8435
(lp8436
g7
ag6
as(g740
(I4
I5
I9
I11
tp8437
tp8438
(lp8439
g7
ag6
as(g4335
(I3
I8
I9
I15
tp8440
tp8441
(lp8442
g6
ag7
as(g901
(I3
I6
I9
I28
tp8443
tp8444
(lp8445
g7
ag12
as(g905
(I1
I9
I9
I19
tp8446
tp8447
(lp8448
g7
ag6
as(g4085
(I0
I9
I9
I12
tp8449
tp8450
(lp8451
g7
ag34
as(g831
(I2
I5
I9
I14
tp8452
tp8453
(lp8454
g7
ag6
as(g827
(I6
I9
I9
I12
tp8455
tp8456
(lp8457
g7
ag6
as(g4054
(I3
I9
I9
I24
tp8458
tp8459
(lp8460
g25
ag7
as(g7212
(I1
I8
I9
I23
tp8461
tp8462
(lp8463
g6
ag7
as(g2255
(I0
I12
I13
I21
tp8464
tp8465
(lp8466
g7
ag6
as(g3151
(I7
I9
I9
I11
tp8467
tp8468
(lp8469
g7
ag6
as(g4040
(I1
I8
I9
I12
tp8470
tp8471
(lp8472
g7
ag6
as(g1468
(I3
I7
I9
I16
tp8473
tp8474
(lp8475
g7
ag6
as(g4011
(I2
I8
I9
I18
tp8476
tp8477
(lp8478
g7
ag6
as(g7359
(I5
I9
I9
I10
tp8479
tp8480
(lp8481
g7
ag6
as(g5791
(I0
I11
I12
I14
tp8482
tp8483
(lp8484
g7
ag6
as(g2933
(I3
I4
I9
I18
tp8485
tp8486
(lp8487
g7
ag6
as(g1262
(I2
I4
I9
I13
tp8488
tp8489
(lp8490
g7
ag6
as(g563
(I0
I17
I17
I20
tp8491
tp8492
(lp8493
g7
ag6
as(g5470
(I0
I25
I26
I29
tp8494
tp8495
(lp8496
g25
ag7
as(g496
(I2
I3
I9
I18
tp8497
tp8498
(lp8499
g7
ag6
as(g6762
(I0
I1
I9
I27
tp8500
tp8501
(lp8502
g7
ag6
as(g5177
(I2
I9
I9
I15
tp8503
tp8504
(lp8505
g25
ag7
as(g528
(I5
I8
I9
I21
tp8506
tp8507
(lp8508
g7
ag6
as(g224
(I3
I8
I9
I19
tp8509
tp8510
(lp8511
g7
ag6
as(g1941
(I3
I7
I9
I16
tp8512
tp8513
(lp8514
g6
ag7
as(g6578
(I6
I8
I9
I28
tp8515
tp8516
(lp8517
g6
ag7
as(g8302
(I1
I9
I9
I15
tp8518
tp8519
(lp8520
g7
ag6
as(g1552
(I2
I4
I9
I26
tp8521
tp8522
(lp8523
g6
ag7
as(g4708
(I1
I8
I9
I21
tp8524
tp8525
(lp8526
g7
ag6
as(g1657
(I0
I10
I11
I17
tp8527
tp8528
(lp8529
g7
ag6
as(g2323
(I0
I3
I9
I22
tp8530
tp8531
(lp8532
g7
ag34
as(g7577
(I0
I10
I10
I13
tp8533
tp8534
(lp8535
g7
ag6
as(g3374
(I2
I4
I9
I28
tp8536
tp8537
(lp8538
g7
ag6
as(g1838
(I0
I18
I18
I28
tp8539
tp8540
(lp8541
g25
ag7
as(g4827
(I5
I9
I9
I25
tp8542
tp8543
(lp8544
g7
ag6
as(g897
(I1
I3
I9
I21
tp8545
tp8546
(lp8547
g6
ag7
as(g4676
(I3
I9
I9
I15
tp8548
tp8549
(lp8550
g25
ag7
as((I5
I9
I9
I23
tp8551
(I4
I9
I9
I23
tp8552
tp8553
(lp8554
g7
ag6
as(g4965
(I0
I2
I9
I27
tp8555
tp8556
(lp8557
g6
ag7
as(g4458
(I1
I7
I9
I15
tp8558
tp8559
(lp8560
g7
ag6
as(g2868
(I7
I9
I9
I17
tp8561
tp8562
(lp8563
g7
ag6
as(g469
(I0
I13
I13
I17
tp8564
tp8565
(lp8566
g25
ag7
as(g2523
(I6
I8
I9
I24
tp8567
tp8568
(lp8569
g7
ag6
as(g5746
(I0
I9
I9
I17
tp8570
tp8571
(lp8572
g7
ag34
as(g3345
(I3
I5
I9
I29
tp8573
tp8574
(lp8575
g7
ag6
as(g1582
(I4
I6
I9
I27
tp8576
tp8577
(lp8578
g6
ag7
as(g6159
(I1
I8
I9
I10
tp8579
tp8580
(lp8581
g6
ag7
as(g3040
(I0
I12
I12
I27
tp8582
tp8583
(lp8584
g7
ag6
as(g1426
(I1
I6
I9
I28
tp8585
tp8586
(lp8587
g7
ag6
as(g196
(I2
I7
I9
I12
tp8588
tp8589
(lp8590
g7
ag6
as(g1790
(I2
I5
I9
I25
tp8591
tp8592
(lp8593
g7
ag6
as(g4539
(I4
I6
I9
I12
tp8594
tp8595
(lp8596
g7
ag6
as(g4175
(I2
I5
I9
I27
tp8597
tp8598
(lp8599
g6
ag7
as(g3699
(I0
I5
I9
I17
tp8600
tp8601
(lp8602
g6
ag7
as(g2154
(I1
I7
I9
I19
tp8603
tp8604
(lp8605
g7
ag6
as(g2035
(I0
I10
I10
I23
tp8606
tp8607
(lp8608
g25
ag7
as(g7727
(I0
I18
I18
I25
tp8609
tp8610
(lp8611
g7
ag6
as(g5343
(I0
I7
I9
I16
tp8612
tp8613
(lp8614
g7
ag6
as(g8126
(I3
I6
I9
I27
tp8615
tp8616
(lp8617
g7
ag6
as(g3262
(I5
I7
I9
I24
tp8618
tp8619
(lp8620
g6
ag7
as(g5781
(I4
I5
I9
I17
tp8621
tp8622
(lp8623
g7
ag6
as(g1842
(I2
I6
I9
I18
tp8624
tp8625
(lp8626
g6
ag7
as(g5757
(I0
I10
I10
I14
tp8627
tp8628
(lp8629
g25
ag7
as(g6656
(I0
I8
I9
I23
tp8630
tp8631
(lp8632
g6
ag7
as((I0
I5
I9
I26
tp8633
(I0
I5
I9
I25
tp8634
tp8635
(lp8636
g7
ag6
as(g3865
(I6
I8
I9
I28
tp8637
tp8638
(lp8639
g7
ag12
as(g901
(I3
I7
I9
I29
tp8640
tp8641
(lp8642
g6
ag7
as((I1
I9
I9
I26
tp8643
(I1
I9
I9
I25
tp8644
tp8645
(lp8646
g7
ag6
as(g1328
(I2
I3
I9
I24
tp8647
tp8648
(lp8649
g7
ag6
as(g6373
(I0
I6
I9
I20
tp8650
tp8651
(lp8652
g7
ag6
as(g383
(I0
I0
I9
I19
tp8653
tp8654
(lp8655
g6
ag6
as(g88
(I3
I8
I9
I18
tp8656
tp8657
(lp8658
g7
ag6
as(g8164
(I0
I3
I9
I24
tp8659
tp8660
(lp8661
g6
ag7
as(g1285
(I0
I22
I23
I26
tp8662
tp8663
(lp8664
g7
ag6
as((I4
I9
I9
I22
tp8665
(I4
I9
I9
I21
tp8666
tp8667
(lp8668
g7
ag6
as((I0
I16
I16
I18
tp8669
(I0
I16
I16
I17
tp8670
tp8671
(lp8672
g7
ag6
as(g4167
(I0
I0
I9
I28
tp8673
tp8674
(lp8675
g6
ag6
as(g7789
(I0
I6
I9
I14
tp8676
tp8677
(lp8678
g6
ag7
as((I2
I9
I9
I20
tp8679
(I2
I9
I9
I19
tp8680
tp8681
(lp8682
g7
ag6
as(g4693
(I2
I9
I9
I13
tp8683
tp8684
(lp8685
g25
ag7
as(g312
(I0
I18
I19
I28
tp8686
tp8687
(lp8688
g25
ag7
as(g4062
(I1
I8
I9
I13
tp8689
tp8690
(lp8691
g7
ag6
as(g8119
(I0
I10
I10
I24
tp8692
tp8693
(lp8694
g7
ag6
as(g4339
(I2
I6
I9
I12
tp8695
tp8696
(lp8697
g6
ag7
as(g3279
(I0
I25
I25
I29
tp8698
tp8699
(lp8700
g25
ag7
as(g4353
(I8
I9
I9
I21
tp8701
tp8702
(lp8703
g7
ag6
as(g5781
(I3
I5
I9
I18
tp8704
tp8705
(lp8706
g7
ag6
as(g270
(I0
I14
I15
I24
tp8707
tp8708
(lp8709
g25
ag7
as(g988
(I0
I6
I9
I19
tp8710
tp8711
(lp8712
g7
ag6
as(g2883
(I2
I7
I9
I25
tp8713
tp8714
(lp8715
g7
ag6
as(g4373
(I3
I6
I9
I29
tp8716
tp8717
(lp8718
g7
ag6
as((I1
I8
I9
I24
tp8719
(I1
I9
I9
I24
tp8720
tp8721
(lp8722
g25
ag7
as(g3504
(I3
I9
I9
I13
tp8723
tp8724
(lp8725
g25
ag7
as(g6163
(I3
I8
I9
I24
tp8726
tp8727
(lp8728
g7
ag6
as(g6114
(I1
I5
I9
I16
tp8729
tp8730
(lp8731
g7
ag6
as(g4220
(I7
I9
I9
I14
tp8732
tp8733
(lp8734
g25
ag7
as(g8231
(I3
I7
I9
I15
tp8735
tp8736
(lp8737
g6
ag7
as(g862
(I0
I0
I9
I16
tp8738
tp8739
(lp8740
g6
ag6
as(g4973
(I1
I3
I9
I27
tp8741
tp8742
(lp8743
g6
ag7
as(g625
(I6
I8
I9
I17
tp8744
tp8745
(lp8746
g6
ag7
as(g1760
(I3
I7
I9
I27
tp8747
tp8748
(lp8749
g7
ag6
as(g3496
(I4
I7
I9
I27
tp8750
tp8751
(lp8752
g7
ag6
as(g2941
(I1
I6
I9
I14
tp8753
tp8754
(lp8755
g6
ag7
as(g4280
(I0
I12
I12
I18
tp8756
tp8757
(lp8758
g25
ag7
as(g1864
(I1
I8
I9
I17
tp8759
tp8760
(lp8761
g6
ag7
as(g3567
(I0
I4
I9
I18
tp8762
tp8763
(lp8764
g6
ag7
as((I6
I9
I9
I20
tp8765
(I5
I9
I9
I20
tp8766
tp8767
(lp8768
g7
ag6
as(g2358
(I4
I9
I9
I13
tp8769
tp8770
(lp8771
g7
ag6
as(g621
(I5
I8
I9
I22
tp8772
tp8773
(lp8774
g7
ag6
as(g7909
(I0
I0
I9
I22
tp8775
tp8776
(lp8777
g6
ag6
as(g4511
(I2
I9
I9
I23
tp8778
tp8779
(lp8780
g25
ag7
as(g2531
(I1
I8
I9
I28
tp8781
tp8782
(lp8783
g7
ag6
as(g3806
(I3
I6
I9
I16
tp8784
tp8785
(lp8786
g6
ag7
as(g352
(I0
I12
I12
I23
tp8787
tp8788
(lp8789
g7
ag6
as(g5059
(I5
I9
I9
I14
tp8790
tp8791
(lp8792
g25
ag7
as(g3159
(I0
I12
I13
I26
tp8793
tp8794
(lp8795
g25
ag7
as(g454
(I6
I8
I9
I20
tp8796
tp8797
(lp8798
g6
ag7
as(g1992
(I1
I7
I9
I22
tp8799
tp8800
(lp8801
g7
ag6
as(g8231
(I3
I6
I9
I14
tp8802
tp8803
(lp8804
g7
ag6
as(g1685
(I6
I8
I9
I15
tp8805
tp8806
(lp8807
g7
ag6
as(g3953
(I6
I8
I9
I16
tp8808
tp8809
(lp8810
g6
ag7
as(g5683
(I0
I11
I11
I16
tp8811
tp8812
(lp8813
g25
ag7
as(g5971
(I5
I9
I9
I14
tp8814
tp8815
(lp8816
g7
ag6
as(g1372
(I2
I8
I9
I11
tp8817
tp8818
(lp8819
g7
ag6
as(g5989
(I0
I0
I9
I11
tp8820
tp8821
(lp8822
g6
ag6
as(g6892
(I3
I8
I9
I23
tp8823
tp8824
(lp8825
g6
ag7
as(g8719
(I0
I8
I9
I24
tp8826
tp8827
(lp8828
g7
ag34
as(g1147
(I2
I3
I9
I27
tp8829
tp8830
(lp8831
g7
ag6
as(g965
(I6
I9
I9
I17
tp8832
tp8833
(lp8834
g25
ag7
as(g47
(I4
I7
I9
I17
tp8835
tp8836
(lp8837
g7
ag6
as(g5369
(I4
I8
I9
I10
tp8838
tp8839
(lp8840
g6
ag7
as(g1783
(I2
I7
I9
I18
tp8841
tp8842
(lp8843
g6
ag7
as((I0
I20
I21
I23
tp8844
(I0
I21
I21
I23
tp8845
tp8846
(lp8847
g25
ag7
as(g3619
(I4
I8
I9
I24
tp8848
tp8849
(lp8850
g6
ag7
as(g1949
(I1
I8
I9
I14
tp8851
tp8852
(lp8853
g7
ag6
as(g893
(I7
I9
I9
I28
tp8854
tp8855
(lp8856
g7
ag6
as((I5
I9
I9
I10
tp8857
(I4
I9
I9
I10
tp8858
tp8859
(lp8860
g7
ag6
as((I5
I9
I9
I22
tp8861
(I4
I9
I9
I22
tp8862
tp8863
(lp8864
g7
ag6
as(g709
(I5
I7
I9
I20
tp8865
tp8866
(lp8867
g6
ag7
as((I0
I9
I9
I13
tp8868
(I0
I9
I9
I12
tp8869
tp8870
(lp8871
g7
ag6
as(g2335
(I4
I6
I9
I14
tp8872
tp8873
(lp8874
g7
ag6
as(g5379
(I0
I9
I9
I19
tp8875
tp8876
(lp8877
g7
ag6
as(g1402
(I0
I3
I9
I22
tp8878
tp8879
(lp8880
g6
ag7
as(g5555
(I3
I5
I9
I11
tp8881
tp8882
(lp8883
g6
ag7
as((I0
I18
I18
I22
tp8884
(I0
I18
I19
I22
tp8885
tp8886
(lp8887
g25
ag7
as(g7608
(I0
I16
I16
I21
tp8888
tp8889
(lp8890
g25
ag7
as(g7561
(I0
I5
I9
I18
tp8891
tp8892
(lp8893
g6
ag7
as(g1270
(I0
I0
I9
I16
tp8894
tp8895
(lp8896
g6
ag34
as((I0
I8
I9
I25
tp8897
(I0
I9
I9
I25
tp8898
tp8899
(lp8900
g25
ag7
as(g1193
(I3
I7
I9
I12
tp8901
tp8902
(lp8903
g7
ag6
as(g6624
(I0
I13
I13
I19
tp8904
tp8905
(lp8906
g7
ag6
as(g6720
(I1
I4
I9
I24
tp8907
tp8908
(lp8909
g6
ag7
as(g1057
(I4
I7
I9
I22
tp8910
tp8911
(lp8912
g6
ag7
as(g395
(I5
I6
I9
I24
tp8913
tp8914
(lp8915
g7
ag6
as((I0
I23
I23
I27
tp8916
(I0
I23
I24
I27
tp8917
tp8918
(lp8919
g25
ag7
as(g4284
(I0
I12
I12
I28
tp8920
tp8921
(lp8922
g25
ag7
as(g1000
(I0
I17
I18
I28
tp8923
tp8924
(lp8925
g7
ag12
as((I5
I9
I9
I13
tp8926
(I4
I9
I9
I13
tp8927
tp8928
(lp8929
g7
ag6
as((I0
I5
I9
I12
tp8930
(I0
I5
I9
I11
tp8931
tp8932
(lp8933
g7
ag6
as(g6173
(I0
I13
I14
I27
tp8934
tp8935
(lp8936
g7
ag6
as(g1383
(I1
I2
I9
I27
tp8937
tp8938
(lp8939
g7
ag6
as(g653
(I7
I9
I9
I12
tp8940
tp8941
(lp8942
g25
ag7
as(g1984
(I1
I4
I9
I24
tp8943
tp8944
(lp8945
g7
ag6
as((I0
I3
I9
I25
tp8946
(I0
I4
I9
I25
tp8947
tp8948
(lp8949
g6
ag7
as(g7191
(I4
I5
I9
I20
tp8950
tp8951
(lp8952
g7
ag6
as(g909
(I1
I5
I9
I29
tp8953
tp8954
(lp8955
g7
ag6
as(g5434
(I0
I6
I9
I25
tp8956
tp8957
(lp8958
g6
ag7
as(g5196
(I0
I21
I22
I28
tp8959
tp8960
(lp8961
g7
ag12
as(g5675
(I0
I9
I9
I26
tp8962
tp8963
(lp8964
g25
ag7
as(g4440
(I1
I9
I9
I18
tp8965
tp8966
(lp8967
g7
ag6
as(g8198
(I1
I6
I9
I27
tp8968
tp8969
(lp8970
g7
ag6
as(g3615
(I1
I8
I9
I14
tp8971
tp8972
(lp8973
g6
ag7
as(g7536
(I4
I9
I9
I21
tp8974
tp8975
(lp8976
g25
ag7
as(g3817
(I0
I11
I12
I28
tp8977
tp8978
(lp8979
g25
ag7
as(g7291
(I0
I11
I11
I20
tp8980
tp8981
(lp8982
g25
ag7
as(g8209
(I0
I5
I9
I14
tp8983
tp8984
(lp8985
g6
ag7
as((I0
I10
I11
I29
tp8986
(I0
I11
I11
I29
tp8987
tp8988
(lp8989
g25
ag7
as(g4246
(I0
I15
I15
I26
tp8990
tp8991
(lp8992
g25
ag7
as((I0
I4
I9
I13
tp8993
(I0
I4
I9
I12
tp8994
tp8995
(lp8996
g7
ag6
as(g4918
(I3
I9
I9
I21
tp8997
tp8998
(lp8999
g25
ag7
as(g571
(I0
I0
I9
I23
tp9000
tp9001
(lp9002
g6
ag6
as((I7
I9
I9
I17
tp9003
(I7
I9
I9
I16
tp9004
tp9005
(lp9006
g7
ag6
as(g3252
(I0
I0
I9
I18
tp9007
tp9008
(lp9009
g6
ag6
as(g2139
(I3
I6
I9
I28
tp9010
tp9011
(lp9012
g7
ag6
as(g1147
(I0
I0
I9
I28
tp9013
tp9014
(lp9015
g6
ag6
as(g571
(I1
I3
I9
I23
tp9016
tp9017
(lp9018
g6
ag7
as(g8868
(I0
I9
I10
I13
tp9019
tp9020
(lp9021
g83
ag7
as(g8247
(I1
I7
I9
I16
tp9022
tp9023
(lp9024
g7
ag6
as((I0
I18
I19
I26
tp9025
(I0
I19
I19
I26
tp9026
tp9027
(lp9028
g25
ag7
as(g6867
(I3
I9
I9
I14
tp9029
tp9030
(lp9031
g25
ag7
as(g725
(I0
I4
I9
I29
tp9032
tp9033
(lp9034
g7
ag34
as((I0
I15
I15
I19
tp9035
(I0
I15
I15
I18
tp9036
tp9037
(lp9038
g7
ag6
as((I0
I21
I22
I23
tp9039
(I0
I22
I22
I23
tp9040
tp9041
(lp9042
g25
ag7
as(g5764
(I0
I4
I9
I18
tp9043
tp9044
(lp9045
g7
ag34
as((I7
I9
I9
I29
tp9046
(I6
I9
I9
I29
tp9047
tp9048
(lp9049
g7
ag6
as(g7219
(I0
I0
I9
I21
tp9050
tp9051
(lp9052
g6
ag6
as(g6769
(I0
I8
I9
I21
tp9053
tp9054
(lp9055
g7
ag6
as((I0
I4
I9
I26
tp9056
(I0
I5
I9
I26
tp9057
tp9058
(lp9059
g6
ag7
as(g1383
(I1
I3
I9
I28
tp9060
tp9061
(lp9062
g6
ag7
as(g1038
(I4
I9
I9
I12
tp9063
tp9064
(lp9065
g25
ag7
as((I0
I21
I21
I24
tp9066
(I0
I21
I22
I24
tp9067
tp9068
(lp9069
g25
ag7
as(g5272
(I6
I9
I9
I10
tp9070
tp9071
(lp9072
g7
ag6
as(g3415
(I7
I8
I9
I18
tp9073
tp9074
(lp9075
g7
ag6
as(g2385
(I3
I8
I9
I11
tp9076
tp9077
(lp9078
g7
ag6
as(g3391
(I0
I21
I21
I24
tp9079
tp9080
(lp9081
g25
ag7
as(g1622
(I5
I7
I9
I27
tp9082
tp9083
(lp9084
g7
ag6
as(g3326
(I0
I11
I11
I12
tp9085
tp9086
(lp9087
g7
ag6
as(g1992
(I2
I8
I9
I22
tp9088
tp9089
(lp9090
g6
ag7
as(g953
(I0
I0
I9
I13
tp9091
tp9092
(lp9093
g6
ag6
as((I0
I16
I17
I24
tp9094
(I0
I16
I17
I23
tp9095
tp9096
(lp9097
g7
ag6
as((I0
I18
I19
I21
tp9098
(I0
I18
I19
I20
tp9099
tp9100
(lp9101
g7
ag6
as(g764
(I3
I8
I9
I11
tp9102
tp9103
(lp9104
g7
ag6
as(g1768
(I0
I15
I16
I17
tp9105
tp9106
(lp9107
g25
ag7
as(g1139
(I6
I9
I9
I18
tp9108
tp9109
(lp9110
g25
ag7
as(g1953
(I3
I5
I9
I24
tp9111
tp9112
(lp9113
g7
ag6
as(g3489
(I2
I9
I9
I20
tp9114
tp9115
(lp9116
g25
ag7
as(g204
(I2
I6
I9
I24
tp9117
tp9118
(lp9119
g7
ag6
as((I0
I7
I9
I12
tp9120
(I0
I7
I9
I11
tp9121
tp9122
(lp9123
g7
ag6
as(g8350
(I4
I8
I9
I15
tp9124
tp9125
(lp9126
g6
ag7
as(g7477
(I0
I25
I25
I28
tp9127
tp9128
(lp9129
g25
ag7
as(g7597
(I2
I7
I9
I13
tp9130
tp9131
(lp9132
g7
ag6
as((I3
I9
I9
I26
tp9133
(I2
I9
I9
I26
tp9134
tp9135
(lp9136
g7
ag6
as(g6814
(I0
I7
I9
I27
tp9137
tp9138
(lp9139
g6
ag7
as(g7260
(I0
I17
I18
I24
tp9140
tp9141
(lp9142
g25
ag7
as(g496
(I2
I4
I9
I19
tp9143
tp9144
(lp9145
g6
ag7
as(g2222
(I0
I7
I9
I21
tp9146
tp9147
(lp9148
g7
ag34
as(g5804
(I0
I9
I9
I17
tp9149
tp9150
(lp9151
g25
ag7
as(g2559
(I1
I6
I9
I13
tp9152
tp9153
(lp9154
g6
ag7
as(g7212
(I0
I7
I9
I23
tp9155
tp9156
(lp9157
g7
ag34
as(g3534
(I5
I9
I9
I16
tp9158
tp9159
(lp9160
g25
ag7
as(g736
(I0
I4
I9
I19
tp9161
tp9162
(lp9163
g7
ag6
as(g9066
(I0
I21
I21
I23
tp9164
tp9165
(lp9166
g7
ag6
as(g1790
(I1
I5
I9
I26
tp9167
tp9168
(lp9169
g7
ag6
as(g2933
(I0
I0
I9
I19
tp9170
tp9171
(lp9172
g6
ag6
as((I0
I20
I20
I27
tp9173
(I0
I20
I20
I26
tp9174
tp9175
(lp9176
g7
ag6
as(g5892
(I0
I13
I13
I23
tp9177
tp9178
(lp9179
g7
ag6
as(g5314
(I1
I5
I9
I21
tp9180
tp9181
(lp9182
g7
ag6
as(g1661
(I2
I7
I9
I20
tp9183
tp9184
(lp9185
g7
ag6
as(g1414
(I0
I15
I16
I23
tp9186
tp9187
(lp9188
g25
ag7
as(g4998
(I1
I8
I9
I19
tp9189
tp9190
(lp9191
g7
ag6
as(g4194
(I1
I7
I9
I28
tp9192
tp9193
(lp9194
g7
ag12
as(g2377
(I0
I11
I11
I21
tp9195
tp9196
(lp9197
g25
ag7
as(g5555
(I0
I0
I9
I11
tp9198
tp9199
(lp9200
g6
ag6
as(g1376
(I1
I4
I9
I23
tp9201
tp9202
(lp9203
g6
ag7
as((I0
I16
I16
I28
tp9204
(I0
I16
I16
I27
tp9205
tp9206
(lp9207
g7
ag6
as((I0
I7
I9
I19
tp9208
(I0
I8
I9
I19
tp9209
tp9210
(lp9211
g6
ag7
as(g583
(I1
I5
I9
I27
tp9212
tp9213
(lp9214
g7
ag6
as(g7398
(I2
I6
I9
I19
tp9215
tp9216
(lp9217
g6
ag7
as(g1262
(I0
I0
I9
I13
tp9218
tp9219
(lp9220
g6
ag6
as(g344
(I0
I8
I9
I19
tp9221
tp9222
(lp9223
g7
ag34
as(g2909
(I7
I9
I9
I13
tp9224
tp9225
(lp9226
g25
ag7
as(g5177
(I1
I8
I9
I15
tp9227
tp9228
(lp9229
g7
ag6
as(g681
(I0
I12
I13
I20
tp9230
tp9231
(lp9232
g25
ag7
as(g540
(I0
I13
I13
I16
tp9233
tp9234
(lp9235
g25
ag7
as(g3223
(I1
I7
I9
I11
tp9236
tp9237
(lp9238
g6
ag7
as(g4683
(I5
I7
I9
I22
tp9239
tp9240
(lp9241
g7
ag6
as(g1864
(I0
I7
I9
I17
tp9242
tp9243
(lp9244
g7
ag34
as(g996
(I2
I8
I9
I23
tp9245
tp9246
(lp9247
g6
ag7
as(g5915
(I1
I8
I9
I15
tp9248
tp9249
(lp9250
g6
ag7
as(g4267
(I0
I18
I19
I22
tp9251
tp9252
(lp9253
g7
ag6
as(g4623
(I1
I5
I9
I26
tp9254
tp9255
(lp9256
g7
ag6
as((I0
I13
I13
I18
tp9257
(I0
I13
I14
I18
tp9258
tp9259
(lp9260
g25
ag7
as((I0
I7
I9
I21
tp9261
(I0
I7
I9
I20
tp9262
tp9263
(lp9264
g7
ag6
as(g7195
(I0
I11
I11
I14
tp9265
tp9266
(lp9267
g25
ag7
as(g2754
(I3
I6
I9
I25
tp9268
tp9269
(lp9270
g7
ag6
as((I0
I18
I19
I20
tp9271
(I0
I19
I19
I20
tp9272
tp9273
(lp9274
g25
ag7
as(g6821
(I3
I8
I9
I16
tp9275
tp9276
(lp9277
g6
ag7
as(g8405
(I5
I9
I9
I29
tp9278
tp9279
(lp9280
g25
ag7
as(g1012
(I6
I8
I9
I26
tp9281
tp9282
(lp9283
g6
ag7
as(g3370
(I5
I7
I9
I10
tp9284
tp9285
(lp9286
g7
ag6
as(g3244
(I6
I7
I9
I24
tp9287
tp9288
(lp9289
g7
ag6
as(g5466
(I4
I7
I9
I23
tp9290
tp9291
(lp9292
g6
ag7
as(g4220
(I7
I8
I9
I13
tp9293
tp9294
(lp9295
g7
ag6
as(g6863
(I2
I9
I9
I21
tp9296
tp9297
(lp9298
g7
ag6
as(g387
(I0
I4
I9
I12
tp9299
tp9300
(lp9301
g7
ag34
as(g8643
(I0
I9
I9
I26
tp9302
tp9303
(lp9304
g7
ag34
as(g4257
(I2
I6
I9
I23
tp9305
tp9306
(lp9307
g7
ag6
as((I0
I9
I9
I19
tp9308
(I0
I9
I9
I18
tp9309
tp9310
(lp9311
g7
ag6
as(g5687
(I0
I9
I10
I15
tp9312
tp9313
(lp9314
g7
ag6
as(g637
(I2
I5
I9
I20
tp9315
tp9316
(lp9317
g7
ag6
as(g8946
(I0
I3
I9
I24
tp9318
tp9319
(lp9320
g7
ag6
as(g2624
(I0
I2
I9
I17
tp9321
tp9322
(lp9323
g6
ag7
as(g3634
(I0
I14
I15
I18
tp9324
tp9325
(lp9326
g7
ag6
as(g2761
(I5
I8
I9
I19
tp9327
tp9328
(lp9329
g7
ag6
as(g625
(I0
I0
I9
I17
tp9330
tp9331
(lp9332
g6
ag6
as(g1500
(I1
I4
I9
I20
tp9333
tp9334
(lp9335
g6
ag7
as(g1860
(I0
I26
I27
I29
tp9336
tp9337
(lp9338
g25
ag7
as(g9173
(I0
I20
I21
I27
tp9339
tp9340
(lp9341
g25
ag7
as(g4585
(I1
I6
I9
I23
tp9342
tp9343
(lp9344
g7
ag6
as(g1711
(I4
I7
I9
I28
tp9345
tp9346
(lp9347
g7
ag12
as(g874
(I3
I9
I9
I23
tp9348
tp9349
(lp9350
g7
ag6
as(g788
(I0
I13
I13
I15
tp9351
tp9352
(lp9353
g25
ag7
as((I0
I24
I25
I26
tp9354
(I0
I25
I25
I26
tp9355
tp9356
(lp9357
g25
ag7
as(g7755
(I0
I12
I13
I18
tp9358
tp9359
(lp9360
g25
ag7
as(g8126
(I2
I6
I9
I28
tp9361
tp9362
(lp9363
g7
ag6
as(g2750
(I2
I5
I9
I17
tp9364
tp9365
(lp9366
g7
ag6
as(g7473
(I3
I7
I9
I22
tp9367
tp9368
(lp9369
g7
ag6
as(g1973
(I0
I0
I9
I23
tp9370
tp9371
(lp9372
g6
ag6
as(g7398
(I2
I5
I9
I18
tp9373
tp9374
(lp9375
g7
ag6
as(g4878
(I0
I0
I9
I26
tp9376
tp9377
(lp9378
g6
ag6
as(g2335
(I5
I6
I9
I13
tp9379
tp9380
(lp9381
g7
ag6
as(g6856
(I2
I8
I9
I18
tp9382
tp9383
(lp9384
g7
ag6
as(g2933
(I2
I4
I9
I19
tp9385
tp9386
(lp9387
g7
ag6
as((I0
I18
I19
I29
tp9388
(I0
I18
I19
I28
tp9389
tp9390
(lp9391
g7
ag12
as(g8405
(I4
I8
I9
I29
tp9392
tp9393
(lp9394
g7
ag6
as(g673
(I6
I9
I9
I24
tp9395
tp9396
(lp9397
g25
ag7
as(g653
(I0
I0
I9
I12
tp9398
tp9399
(lp9400
g6
ag6
as(g3407
(I2
I4
I9
I14
tp9401
tp9402
(lp9403
g7
ag6
as(g8397
(I0
I3
I9
I28
tp9404
tp9405
(lp9406
g7
ag12
as((I0
I25
I26
I27
tp9407
(I0
I26
I26
I27
tp9408
tp9409
(lp9410
g25
ag7
as(g4250
(I0
I18
I19
I21
tp9411
tp9412
(lp9413
g25
ag7
as(g3888
(I0
I2
I9
I15
tp9414
tp9415
(lp9416
g6
ag7
as(g5774
(I2
I5
I9
I11
tp9417
tp9418
(lp9419
g7
ag6
as(g6724
(I0
I8
I9
I10
tp9420
tp9421
(lp9422
g7
ag34
as(g200
(I5
I7
I9
I19
tp9423
tp9424
(lp9425
g6
ag7
as(g2222
(I1
I7
I9
I20
tp9426
tp9427
(lp9428
g7
ag6
as(g1111
(I2
I4
I9
I21
tp9429
tp9430
(lp9431
g7
ag6
as(g3884
(I0
I10
I11
I13
tp9432
tp9433
(lp9434
g25
ag7
as(g4190
(I0
I10
I10
I11
tp9435
tp9436
(lp9437
g7
ag6
as(g1560
(I3
I7
I9
I24
tp9438
tp9439
(lp9440
g6
ag7
as(g4462
(I6
I9
I9
I26
tp9441
tp9442
(lp9443
g25
ag7
as((I0
I5
I9
I28
tp9444
(I0
I5
I9
I27
tp9445
tp9446
(lp9447
g7
ag6
as(g5232
(I0
I11
I12
I18
tp9448
tp9449
(lp9450
g25
ag7
as(g5704
(I0
I10
I10
I21
tp9451
tp9452
(lp9453
g7
ag6
as((I0
I5
I9
I18
tp9454
(I0
I6
I9
I18
tp9455
tp9456
(lp9457
g6
ag7
as(g96
(I1
I5
I9
I24
tp9458
tp9459
(lp9460
g6
ag7
as(g5148
(I0
I13
I14
I25
tp9461
tp9462
(lp9463
g7
ag6
as(g3649
(I0
I0
I9
I23
tp9464
tp9465
(lp9466
g6
ag6
as(g649
(I3
I5
I9
I17
tp9467
tp9468
(lp9469
g7
ag6
as(g4808
(I2
I4
I9
I29
tp9470
tp9471
(lp9472
g7
ag6
as(g4081
(I0
I21
I22
I25
tp9473
tp9474
(lp9475
g7
ag6
as(g9035
(I0
I15
I16
I19
tp9476
tp9477
(lp9478
g25
ag7
as(g348
(I0
I11
I11
I24
tp9479
tp9480
(lp9481
g25
ag7
as(g1590
(I0
I0
I9
I13
tp9482
tp9483
(lp9484
g6
ag6
as(g75
(I3
I9
I9
I24
tp9485
tp9486
(lp9487
g7
ag6
as(g7184
(I1
I8
I9
I18
tp9488
tp9489
(lp9490
g7
ag6
as(g6720
(I0
I3
I9
I24
tp9491
tp9492
(lp9493
g7
ag34
as(g6369
(I0
I5
I9
I21
tp9494
tp9495
(lp9496
g6
ag7
as(g4571
(I1
I7
I9
I15
tp9497
tp9498
(lp9499
g7
ag6
as(g7336
(I0
I19
I20
I26
tp9500
tp9501
(lp9502
g7
ag6
as(g9261
(I0
I8
I9
I21
tp9503
tp9504
(lp9505
g6
ag7
as((I6
I9
I9
I24
tp9506
(I6
I9
I9
I23
tp9507
tp9508
(lp9509
g7
ag6
as(g5614
(I7
I9
I9
I11
tp9510
tp9511
(lp9512
g7
ag6
as(g3682
(I1
I8
I9
I24
tp9513
tp9514
(lp9515
g7
ag6
as(g5209
(I0
I6
I9
I25
tp9516
tp9517
(lp9518
g7
ag34
as((I5
I9
I9
I27
tp9519
(I4
I9
I9
I27
tp9520
tp9521
(lp9522
g7
ag6
as(g921
(I0
I17
I18
I23
tp9523
tp9524
(lp9525
g7
ag6
as((I0
I12
I13
I25
tp9526
(I0
I13
I13
I25
tp9527
tp9528
(lp9529
g25
ag7
as(g4539
(I0
I0
I9
I12
tp9530
tp9531
(lp9532
g6
ag6
as(g84
(I2
I7
I9
I19
tp9533
tp9534
(lp9535
g7
ag6
as(g4321
(I0
I0
I9
I24
tp9536
tp9537
(lp9538
g6
ag6
as(g4157
(I0
I9
I10
I28
tp9539
tp9540
(lp9541
g83
ag7
as(g3197
(I1
I4
I9
I16
tp9542
tp9543
(lp9544
g6
ag7
as(g4462
(I6
I8
I9
I25
tp9545
tp9546
(lp9547
g7
ag6
as(g9003
(I6
I9
I9
I17
tp9548
tp9549
(lp9550
g7
ag6
as(g3478
(I1
I3
I9
I28
tp9551
tp9552
(lp9553
g7
ag12
as(g320
(I0
I19
I20
I22
tp9554
tp9555
(lp9556
g7
ag6
as(g701
(I2
I6
I9
I28
tp9557
tp9558
(lp9559
g6
ag7
as(g7051
(I0
I9
I9
I27
tp9560
tp9561
(lp9562
g25
ag7
as(g1953
(I2
I5
I9
I25
tp9563
tp9564
(lp9565
g7
ag6
as(g7135
(I5
I7
I9
I24
tp9566
tp9567
(lp9568
g7
ag6
as(g278
(I1
I9
I9
I11
tp9569
tp9570
(lp9571
g7
ag6
as(g6983
(I2
I4
I9
I29
tp9572
tp9573
(lp9574
g6
ag7
as(g383
(I1
I2
I9
I18
tp9575
tp9576
(lp9577
g7
ag6
as(g617
(I0
I2
I9
I10
tp9578
tp9579
(lp9580
g7
ag34
as(g925
(I7
I8
I9
I19
tp9581
tp9582
(lp9583
g7
ag6
as(g6134
(I0
I9
I10
I24
tp9584
tp9585
(lp9586
g7
ag6
as(g2937
(I1
I3
I9
I24
tp9587
tp9588
(lp9589
g6
ag7
as(g4167
(I6
I8
I9
I28
tp9590
tp9591
(lp9592
g7
ag6
as(g5586
(I1
I8
I9
I15
tp9593
tp9594
(lp9595
g7
ag6
as(g7466
(I0
I17
I17
I25
tp9596
tp9597
(lp9598
g25
ag7
as(g2415
(I0
I0
I9
I20
tp9599
tp9600
(lp9601
g25
ag6
as(g2442
(I0
I8
I9
I24
tp9602
tp9603
(lp9604
g6
ag7
as(g1394
(I3
I9
I9
I27
tp9605
tp9606
(lp9607
g25
ag7
as(g3714
(I0
I1
I9
I12
tp9608
tp9609
(lp9610
g7
ag6
as(g8765
(I6
I9
I9
I19
tp9611
tp9612
(lp9613
g7
ag6
as(g1453
(I3
I5
I9
I28
tp9614
tp9615
(lp9616
g7
ag12
as(g1376
(I0
I3
I9
I23
tp9617
tp9618
(lp9619
g7
ag34
as(g1084
(I4
I6
I9
I23
tp9620
tp9621
(lp9622
g7
ag6
as(g6002
(I1
I6
I9
I24
tp9623
tp9624
(lp9625
g6
ag7
as((I0
I19
I19
I28
tp9626
(I0
I19
I19
I27
tp9627
tp9628
(lp9629
g7
ag6
as(g3374
(I0
I0
I9
I28
tp9630
tp9631
(lp9632
g6
ag6
as(g9120
(I0
I8
I9
I12
tp9633
tp9634
(lp9635
g6
ag7
as(g9308
(I0
I9
I10
I19
tp9636
tp9637
(lp9638
g83
ag7
as(g1552
(I0
I0
I9
I26
tp9639
tp9640
(lp9641
g6
ag6
as(g3783
(I0
I0
I9
I21
tp9642
tp9643
(lp9644
g6
ag6
as(g3283
(I0
I12
I12
I26
tp9645
tp9646
(lp9647
g7
ag6
as(g220
(I4
I5
I9
I29
tp9648
tp9649
(lp9650
g6
ag6
as(g1077
(I4
I8
I9
I27
tp9651
tp9652
(lp9653
g7
ag6
as((I0
I16
I16
I24
tp9654
(I0
I16
I17
I24
tp9655
tp9656
(lp9657
g25
ag7
as(g3036
(I4
I6
I9
I20
tp9658
tp9659
(lp9660
g6
ag7
as(g228
(I0
I0
I9
I21
tp9661
tp9662
(lp9663
g6
ag34
as(g8986
(I0
I10
I11
I28
tp9664
tp9665
(lp9666
g7
ag12
as(g5106
(I0
I9
I9
I17
tp9667
tp9668
(lp9669
g7
ag6
as(g973
(I5
I8
I9
I24
tp9670
tp9671
(lp9672
g6
ag7
as(g571
(I1
I2
I9
I22
tp9673
tp9674
(lp9675
g7
ag6
as(g3729
(I0
I0
I9
I12
tp9676
tp9677
(lp9678
g6
ag34
as(g3471
(I6
I9
I9
I25
tp9679
tp9680
(lp9681
g25
ag7
as(g9208
(I0
I7
I9
I18
tp9682
tp9683
(lp9684
g7
ag6
as(g5102
(I1
I6
I9
I25
tp9685
tp9686
(lp9687
g6
ag7
as(g3108
(I6
I9
I9
I28
tp9688
tp9689
(lp9690
g7
ag12
as(g8719
(I1
I8
I9
I23
tp9691
tp9692
(lp9693
g7
ag6
as(g7536
(I4
I8
I9
I20
tp9694
tp9695
(lp9696
g7
ag6
as(g9444
(I0
I6
I9
I28
tp9697
tp9698
(lp9699
g6
ag7
as(g721
(I1
I3
I9
I27
tp9700
tp9701
(lp9702
g7
ag6
as((I0
I13
I13
I26
tp9703
(I0
I13
I14
I26
tp9704
tp9705
(lp9706
g25
ag7
as(g1171
(I3
I4
I9
I16
tp9707
tp9708
(lp9709
g7
ag6
as(g4863
(I3
I9
I9
I11
tp9710
tp9711
(lp9712
g7
ag6
as(g4763
(I1
I4
I9
I27
tp9713
tp9714
(lp9715
g6
ag7
as(g3337
(I2
I5
I9
I15
tp9716
tp9717
(lp9718
g7
ag6
as(g7462
(I0
I6
I9
I15
tp9719
tp9720
(lp9721
g6
ag7
as(g4015
(I5
I7
I9
I26
tp9722
tp9723
(lp9724
g7
ag6
as(g2743
(I0
I3
I9
I19
tp9725
tp9726
(lp9727
g7
ag6
as(g8926
(I5
I9
I9
I12
tp9728
tp9729
(lp9730
g7
ag6
as(g4422
(I0
I26
I26
I28
tp9731
tp9732
(lp9733
g25
ag7
as(g3422
(I0
I9
I9
I22
tp9734
tp9735
(lp9736
g7
ag6
as(g462
(I5
I7
I9
I15
tp9737
tp9738
(lp9739
g6
ag7
as(g2206
(I6
I9
I9
I11
tp9740
tp9741
(lp9742
g25
ag7
as(g360
(I2
I4
I9
I16
tp9743
tp9744
(lp9745
g7
ag6
as(g7145
(I0
I13
I14
I16
tp9746
tp9747
(lp9748
g7
ag6
as(g1492
(I3
I4
I9
I15
tp9749
tp9750
(lp9751
g7
ag6
as(g3123
(I0
I15
I16
I28
tp9752
tp9753
(lp9754
g7
ag12
as(g5665
(I1
I6
I9
I18
tp9755
tp9756
(lp9757
g7
ag6
as(g8139
(I0
I12
I13
I23
tp9758
tp9759
(lp9760
g7
ag6
as((I6
I9
I9
I10
tp9761
(I5
I9
I9
I10
tp9762
tp9763
(lp9764
g7
ag6
as(g5250
(I0
I0
I9
I24
tp9765
tp9766
(lp9767
g6
ag6
as(g248
(I0
I2
I9
I25
tp9768
tp9769
(lp9770
g7
ag6
as(g3981
(I4
I7
I9
I18
tp9771
tp9772
(lp9773
g6
ag7
as(g450
(I5
I7
I9
I16
tp9774
tp9775
(lp9776
g7
ag6
as(g180
(I1
I6
I9
I21
tp9777
tp9778
(lp9779
g7
ag6
as(g3534
(I4
I8
I9
I16
tp9780
tp9781
(lp9782
g7
ag6
as(g3638
(I3
I8
I9
I17
tp9783
tp9784
(lp9785
g7
ag6
as(g3772
(I3
I9
I9
I12
tp9786
tp9787
(lp9788
g7
ag6
as(g200
(I4
I6
I9
I19
tp9789
tp9790
(lp9791
g7
ag6
as(g3112
(I1
I5
I9
I14
tp9792
tp9793
(lp9794
g7
ag6
as(g2315
(I0
I5
I9
I15
tp9795
tp9796
(lp9797
g6
ag7
as(g2143
(I2
I7
I9
I23
tp9798
tp9799
(lp9800
g6
ag7
as(g2577
(I5
I8
I9
I17
tp9801
tp9802
(lp9803
g7
ag6
as(g1258
(I1
I7
I9
I24
tp9804
tp9805
(lp9806
g7
ag6
as(g4077
(I0
I18
I19
I29
tp9807
tp9808
(lp9809
g25
ag7
as(g8188
(I2
I9
I9
I16
tp9810
tp9811
(lp9812
g7
ag6
as(g6957
(I4
I8
I9
I28
tp9813
tp9814
(lp9815
g7
ag12
as(g1756
(I2
I4
I9
I21
tp9816
tp9817
(lp9818
g7
ag6
as((I0
I19
I20
I21
tp9819
(I0
I20
I20
I21
tp9820
tp9821
(lp9822
g25
ag7
as(g1641
(I1
I6
I9
I13
tp9823
tp9824
(lp9825
g7
ag6
as(g6138
(I0
I18
I18
I20
tp9826
tp9827
(lp9828
g25
ag7
as(g8081
(I1
I4
I9
I16
tp9829
tp9830
(lp9831
g7
ag6
as(g2012
(I0
I15
I15
I23
tp9832
tp9833
(lp9834
g7
ag6
as(g3989
(I0
I11
I12
I13
tp9835
tp9836
(lp9837
g7
ag6
as(g1661
(I1
I7
I9
I21
tp9838
tp9839
(lp9840
g7
ag6
as(g665
(I4
I8
I9
I19
tp9841
tp9842
(lp9843
g7
ag6
as(g2905
(I2
I4
I9
I15
tp9844
tp9845
(lp9846
g7
ag6
as(g909
(I2
I6
I9
I29
tp9847
tp9848
(lp9849
g6
ag7
as(g2135
(I0
I11
I11
I25
tp9850
tp9851
(lp9852
g7
ag6
as(g1783
(I2
I6
I9
I17
tp9853
tp9854
(lp9855
g7
ag6
as(g6728
(I4
I8
I9
I13
tp9856
tp9857
(lp9858
g6
ag7
as(g508
(I6
I8
I9
I18
tp9859
tp9860
(lp9861
g7
ag6
as(g6484
(I5
I9
I9
I28
tp9862
tp9863
(lp9864
g7
ag6
as(g7877
(I0
I10
I11
I20
tp9865
tp9866
(lp9867
g25
ag7
as(g6500
(I4
I6
I9
I25
tp9868
tp9869
(lp9870
g7
ag6
as(g274
(I2
I6
I9
I14
tp9871
tp9872
(lp9873
g7
ag6
as(g286
(I3
I5
I9
I27
tp9874
tp9875
(lp9876
g6
ag7
as(g2087
(I3
I7
I9
I25
tp9877
tp9878
(lp9879
g6
ag7
as(g3308
(I0
I9
I10
I16
tp9880
tp9881
(lp9882
g7
ag6
as(g2616
(I4
I5
I9
I15
tp9883
tp9884
(lp9885
g7
ag6
as(g2509
(I0
I6
I9
I11
tp9886
tp9887
(lp9888
g7
ag6
as(g4773
(I3
I6
I9
I19
tp9889
tp9890
(lp9891
g6
ag7
as(g4171
(I3
I5
I9
I17
tp9892
tp9893
(lp9894
g7
ag6
as(g2481
(I2
I9
I9
I22
tp9895
tp9896
(lp9897
g7
ag6
as(g5637
(I0
I14
I14
I22
tp9898
tp9899
(lp9900
g25
ag7
as(g4613
(I7
I9
I9
I16
tp9901
tp9902
(lp9903
g7
ag6
as(g524
(I0
I2
I9
I12
tp9904
tp9905
(lp9906
g7
ag34
as(g8198
(I1
I7
I9
I28
tp9907
tp9908
(lp9909
g6
ag7
as(g2616
(I3
I5
I9
I16
tp9910
tp9911
(lp9912
g7
ag6
as(g1216
(I0
I21
I21
I22
tp9913
tp9914
(lp9915
g7
ag6
as(g7081
(I0
I5
I9
I19
tp9916
tp9917
(lp9918
g6
ag7
as(g7961
(I0
I8
I9
I28
tp9919
tp9920
(lp9921
g6
ag7
as(g7439
(I6
I8
I9
I26
tp9922
tp9923
(lp9924
g7
ag6
as(g6155
(I0
I9
I9
I11
tp9925
tp9926
(lp9927
g7
ag6
as(g4531
(I6
I9
I9
I14
tp9928
tp9929
(lp9930
g25
ag7
as(g6289
(I0
I10
I10
I28
tp9931
tp9932
(lp9933
g7
ag12
as(g379
(I6
I9
I9
I23
tp9934
tp9935
(lp9936
g25
ag7
as(g3802
(I5
I8
I9
I24
tp9937
tp9938
(lp9939
g7
ag6
as((I5
I9
I9
I25
tp9940
(I5
I9
I9
I24
tp9941
tp9942
(lp9943
g7
ag6
as(g7180
(I0
I0
I9
I10
tp9944
tp9945
(lp9946
g6
ag34
as(g8844
(I0
I20
I21
I22
tp9947
tp9948
(lp9949
g7
ag6
as(g3370
(I0
I0
I9
I10
tp9950
tp9951
(lp9952
g6
ag6
as(g316
(I0
I13
I13
I24
tp9953
tp9954
(lp9955
g7
ag6
as(g6804
(I1
I9
I9
I12
tp9956
tp9957
(lp9958
g7
ag6
as(g6212
(I2
I6
I9
I27
tp9959
tp9960
(lp9961
g7
ag6
as(g2498
(I0
I13
I13
I18
tp9962
tp9963
(lp9964
g7
ag6
as(g2169
(I1
I6
I9
I27
tp9965
tp9966
(lp9967
g7
ag6
as(g5496
(I0
I20
I21
I24
tp9968
tp9969
(lp9970
g25
ag7
as(g8916
(I0
I23
I23
I26
tp9971
tp9972
(lp9973
g7
ag6
as(g1061
(I0
I16
I16
I18
tp9974
tp9975
(lp9976
g25
ag7
as(g7628
(I7
I9
I9
I27
tp9977
tp9978
(lp9979
g7
ag6
as(g3939
(I0
I8
I9
I18
tp9980
tp9981
(lp9982
g7
ag34
as(g9454
(I0
I5
I9
I17
tp9983
tp9984
(lp9985
g7
ag6
as(g6180
(I0
I21
I22
I23
tp9986
tp9987
(lp9988
g7
ag6
as(g8178
(I4
I7
I9
I10
tp9989
tp9990
(lp9991
g7
ag6
as(g1626
(I0
I10
I11
I24
tp9992
tp9993
(lp9994
g7
ag6
as(g2446
(I0
I15
I15
I18
tp9995
tp9996
(lp9997
g25
ag7
as(g4878
(I3
I4
I9
I25
tp9998
tp9999
(lp10000
g7
ag6
as(g1398
(I0
I8
I9
I14
tp10001
tp10002
(lp10003
g6
ag7
as(g184
(I0
I0
I9
I15
tp10004
tp10005
(lp10006
g25
ag6
as(g5586
(I1
I9
I9
I16
tp10007
tp10008
(lp10009
g25
ag7
as(g5590
(I0
I6
I9
I12
tp10010
tp10011
(lp10012
g7
ag34
as(g1500
(I0
I3
I9
I20
tp10013
tp10014
(lp10015
g7
ag34
as(g6993
(I2
I9
I9
I12
tp10016
tp10017
(lp10018
g7
ag6
as(g3682
(I2
I9
I9
I24
tp10019
tp10020
(lp10021
g25
ag7
as((I0
I2
I9
I25
tp10022
(I0
I2
I9
I24
tp10023
tp10024
(lp10025
g7
ag6
as(g1449
(I3
I8
I9
I16
tp10026
tp10027
(lp10028
g7
ag6
as(g4934
(I0
I18
I19
I21
tp10029
tp10030
(lp10031
g7
ag6
as(g10022
(I0
I3
I9
I25
tp10032
tp10033
(lp10034
g6
ag7
as(g3287
(I6
I8
I9
I14
tp10035
tp10036
(lp10037
g6
ag7
as(g9094
(I0
I17
I17
I24
tp10038
tp10039
(lp10040
g25
ag7
as(g6939
(I0
I10
I11
I19
tp10041
tp10042
(lp10043
g25
ag7
as(g7909
(I2
I4
I9
I22
tp10044
tp10045
(lp10046
g6
ag7
as(g5938
(I5
I9
I9
I16
tp10047
tp10048
(lp10049
g7
ag6
as(g1597
(I5
I8
I9
I26
tp10050
tp10051
(lp10052
g7
ag6
as(g3003
(I7
I8
I9
I26
tp10053
tp10054
(lp10055
g7
ag6
as(g188
(I2
I6
I9
I24
tp10056
tp10057
(lp10058
g6
ag7
as(g8861
(I5
I9
I9
I21
tp10059
tp10060
(lp10061
g7
ag6
as(g4954
(I1
I4
I9
I12
tp10062
tp10063
(lp10064
g7
ag6
as(g4969
(I1
I7
I9
I21
tp10065
tp10066
(lp10067
g7
ag6
as(g9940
(I4
I9
I9
I25
tp10068
tp10069
(lp10070
g7
ag6
as(g583
(I0
I5
I9
I28
tp10071
tp10072
(lp10073
g7
ag34
as(g1460
(I4
I5
I9
I27
tp10074
tp10075
(lp10076
g7
ag6
as(g3659
(I2
I4
I9
I21
tp10077
tp10078
(lp10079
g6
ag7
as(g344
(I1
I9
I9
I19
tp10080
tp10081
(lp10082
g25
ag7
as(g504
(I1
I4
I9
I26
tp10083
tp10084
(lp10085
g6
ag7
as(g8091
(I4
I9
I9
I16
tp10086
tp10087
(lp10088
g7
ag6
as(g3227
(I0
I11
I12
I18
tp10089
tp10090
(lp10091
g7
ag6
as(g7881
(I0
I9
I10
I23
tp10092
tp10093
(lp10094
g7
ag6
as(g6465
(I0
I0
I9
I15
tp10095
tp10096
(lp10097
g6
ag6
as(g13
(I3
I9
I9
I23
tp10098
tp10099
(lp10100
g25
ag7
as(g3244
(I5
I7
I9
I25
tp10101
tp10102
(lp10103
g7
ag6
as(g897
(I0
I2
I9
I21
tp10104
tp10105
(lp10106
g7
ag34
as(g6686
(I4
I5
I9
I21
tp10107
tp10108
(lp10109
g7
ag6
as(g598
(I3
I6
I9
I21
tp10110
tp10111
(lp10112
g6
ag7
as(g6585
(I0
I5
I9
I20
tp10113
tp10114
(lp10115
g7
ag34
as(g2049
(I0
I0
I9
I17
tp10116
tp10117
(lp10118
g6
ag6
as(g7205
(I0
I14
I15
I23
tp10119
tp10120
(lp10121
g7
ag6
as(g1328
(I0
I0
I9
I25
tp10122
tp10123
(lp10124
g6
ag6
as(g340
(I0
I13
I13
I19
tp10125
tp10126
(lp10127
g25
ag7
as((I0
I2
I9
I10
tp10128
(I0
I3
I9
I10
tp10129
tp10130
(lp10131
g6
ag7
as(g8679
(I1
I9
I9
I20
tp10132
tp10133
(lp10134
g7
ag6
as(g8178
(I3
I7
I9
I11
tp10135
tp10136
(lp10137
g7
ag6
as(g7346
(I0
I9
I10
I21
tp10138
tp10139
(lp10140
g83
ag7
as(g5120
(I0
I0
I9
I10
tp10141
tp10142
(lp10143
g6
ag6
as(g2396
(I0
I15
I15
I17
tp10144
tp10145
(lp10146
g25
ag7
as(g8023
(I0
I2
I9
I14
tp10147
tp10148
(lp10149
g6
ag7
as(g1996
(I7
I9
I9
I18
tp10150
tp10151
(lp10152
g7
ag6
as(g1488
(I0
I0
I9
I19
tp10153
tp10154
(lp10155
g6
ag34
as(g3985
(I0
I14
I15
I29
tp10156
tp10157
(lp10158
g25
ag7
as(g2909
(I6
I8
I9
I13
tp10159
tp10160
(lp10161
g7
ag6
as(g7077
(I6
I9
I9
I24
tp10162
tp10163
(lp10164
g7
ag6
as(g5049
(I0
I3
I9
I16
tp10165
tp10166
(lp10167
g6
ag7
as(g2302
(I0
I4
I9
I17
tp10168
tp10169
(lp10170
g6
ag7
as(g6846
(I0
I0
I9
I19
tp10171
tp10172
(lp10173
g25
ag6
as(g3439
(I0
I6
I9
I17
tp10174
tp10175
(lp10176
g6
ag7
as(g8433
(I0
I13
I14
I28
tp10177
tp10178
(lp10179
g25
ag7
as((I0
I15
I16
I22
tp10180
(I0
I16
I16
I22
tp10181
tp10182
(lp10183
g25
ag7
as(g4432
(I1
I3
I9
I29
tp10184
tp10185
(lp10186
g6
ag7
as(g2784
(I0
I3
I9
I26
tp10187
tp10188
(lp10189
g7
ag6
as(g1830
(I5
I7
I9
I10
tp10190
tp10191
(lp10192
g7
ag6
as(g2638
(I0
I16
I16
I22
tp10193
tp10194
(lp10195
g7
ag6
as(g2516
(I0
I13
I14
I18
tp10196
tp10197
(lp10198
g7
ag6
as(g8930
(I0
I6
I9
I12
tp10199
tp10200
(lp10201
g6
ag7
as(g4391
(I0
I7
I9
I25
tp10202
tp10203
(lp10204
g6
ag7
as(g3776
(I1
I8
I9
I20
tp10205
tp10206
(lp10207
g6
ag7
as(g6452
(I8
I9
I9
I25
tp10208
tp10209
(lp10210
g7
ag6
as(g1332
(I3
I4
I9
I19
tp10211
tp10212
(lp10213
g7
ag6
as(g2831
(I0
I0
I9
I14
tp10214
tp10215
(lp10216
g6
ag6
as(g8328
(I3
I9
I9
I23
tp10217
tp10218
(lp10219
g7
ag6
as(g2071
(I4
I7
I9
I21
tp10220
tp10221
(lp10222
g6
ag7
as((I0
I13
I14
I18
tp10223
(I0
I13
I14
I17
tp10224
tp10225
(lp10226
g7
ag6
as(g6686
(I4
I6
I9
I22
tp10227
tp10228
(lp10229
g6
ag7
as(g124
(I6
I9
I9
I16
tp10230
tp10231
(lp10232
g7
ag6
as(g2707
(I6
I7
I9
I17
tp10233
tp10234
(lp10235
g7
ag6
as(g9046
(I7
I9
I9
I28
tp10236
tp10237
(lp10238
g7
ag12
as(g6032
(I1
I6
I9
I20
tp10239
tp10240
(lp10241
g7
ag6
as(g2531
(I2
I8
I9
I27
tp10242
tp10243
(lp10244
g7
ag6
as(g1730
(I0
I25
I26
I28
tp10245
tp10246
(lp10247
g7
ag12
as(g4066
(I0
I16
I16
I24
tp10248
tp10249
(lp10250
g7
ag6
as(g2158
(I0
I11
I12
I24
tp10251
tp10252
(lp10253
g25
ag7
as(g9526
(I0
I12
I13
I24
tp10254
tp10255
(lp10256
g7
ag6
as(g3659
(I0
I0
I9
I21
tp10257
tp10258
(lp10259
g6
ag6
as(g9257
(I0
I13
I13
I17
tp10260
tp10261
(lp10262
g7
ag6
as(g7044
(I1
I7
I9
I15
tp10263
tp10264
(lp10265
g6
ag7
as(g1119
(I2
I9
I9
I14
tp10266
tp10267
(lp10268
g7
ag6
as(g5113
(I0
I0
I9
I23
tp10269
tp10270
(lp10271
g6
ag34
as(g5852
(I6
I9
I9
I18
tp10272
tp10273
(lp10274
g7
ag6
as(g2411
(I5
I9
I9
I23
tp10275
tp10276
(lp10277
g25
ag7
as(g7913
(I0
I12
I12
I29
tp10278
tp10279
(lp10280
g25
ag7
as(g2855
(I0
I11
I11
I26
tp10281
tp10282
(lp10283
g25
ag7
as(g8669
(I0
I16
I17
I18
tp10284
tp10285
(lp10286
g25
ag7
as(g6856
(I3
I8
I9
I17
tp10287
tp10288
(lp10289
g7
ag6
as(g8350
(I4
I7
I9
I14
tp10290
tp10291
(lp10292
g7
ag6
as(g1818
(I0
I17
I18
I29
tp10293
tp10294
(lp10295
g25
ag7
as(g2620
(I2
I7
I9
I12
tp10296
tp10297
(lp10298
g6
ag7
as(g2505
(I1
I5
I9
I21
tp10299
tp10300
(lp10301
g6
ag7
as(g4643
(I3
I9
I9
I28
tp10302
tp10303
(lp10304
g25
ag7
as(g697
(I6
I9
I9
I23
tp10305
tp10306
(lp10307
g7
ag6
as(g364
(I5
I7
I9
I22
tp10308
tp10309
(lp10310
g6
ag7
as(g1772
(I4
I7
I9
I16
tp10311
tp10312
(lp10313
g7
ag6
as(g5192
(I0
I12
I12
I14
tp10314
tp10315
(lp10316
g7
ag6
as(g1193
(I4
I7
I9
I11
tp10317
tp10318
(lp10319
g7
ag6
as(g8393
(I3
I9
I9
I26
tp10320
tp10321
(lp10322
g7
ag6
as(g512
(I1
I9
I9
I24
tp10323
tp10324
(lp10325
g7
ag6
as(g5325
(I1
I9
I9
I21
tp10326
tp10327
(lp10328
g7
ag6
as(g6009
(I1
I2
I9
I21
tp10329
tp10330
(lp10331
g7
ag6
as(g63
(I3
I6
I9
I19
tp10332
tp10333
(lp10334
g7
ag6
as(g870
(I0
I0
I9
I16
tp10335
tp10336
(lp10337
g6
ag6
as(g653
(I7
I8
I9
I11
tp10338
tp10339
(lp10340
g7
ag6
as(g4704
(I4
I7
I9
I15
tp10341
tp10342
(lp10343
g7
ag6
as(g3399
(I2
I4
I9
I18
tp10344
tp10345
(lp10346
g6
ag7
as(g4553
(I1
I8
I9
I25
tp10347
tp10348
(lp10349
g7
ag6
as(g2652
(I2
I7
I9
I15
tp10350
tp10351
(lp10352
g6
ag7
as((I2
I9
I9
I16
tp10353
(I2
I9
I9
I15
tp10354
tp10355
(lp10356
g7
ag6
as(g7508
(I0
I20
I20
I21
tp10357
tp10358
(lp10359
g7
ag6
as(g6465
(I2
I4
I9
I15
tp10360
tp10361
(lp10362
g6
ag7
as(g9626
(I0
I19
I20
I28
tp10363
tp10364
(lp10365
g25
ag7
as((I3
I9
I9
I28
tp10366
(I3
I9
I9
I27
tp10367
tp10368
(lp10369
g7
ag6
as(g10366
(I2
I9
I9
I28
tp10370
tp10371
(lp10372
g7
ag6
as(g4103
(I0
I8
I9
I26
tp10373
tp10374
(lp10375
g6
ag7
as(g2004
(I0
I0
I9
I25
tp10376
tp10377
(lp10378
g25
ag6
as(g7287
(I0
I6
I9
I11
tp10379
tp10380
(lp10381
g6
ag7
as(g1737
(I2
I9
I9
I21
tp10382
tp10383
(lp10384
g25
ag7
as(g9506
(I5
I9
I9
I24
tp10385
tp10386
(lp10387
g7
ag6
as(g4186
(I3
I7
I9
I12
tp10388
tp10389
(lp10390
g6
ag7
as(g3527
(I2
I4
I9
I20
tp10391
tp10392
(lp10393
g6
ag7
as(g5882
(I0
I6
I9
I21
tp10394
tp10395
(lp10396
g7
ag6
as(g764
(I3
I9
I9
I12
tp10397
tp10398
(lp10399
g25
ag7
as(g1278
(I0
I0
I9
I25
tp10400
tp10401
(lp10402
g6
ag34
as(g3478
(I0
I3
I9
I29
tp10403
tp10404
(lp10405
g7
ag34
as(g4892
(I0
I13
I14
I23
tp10406
tp10407
(lp10408
g7
ag6
as(g10353
(I1
I9
I9
I16
tp10409
tp10410
(lp10411
g7
ag6
as(g47
(I4
I8
I9
I18
tp10412
tp10413
(lp10414
g6
ag7
as(g6072
(I0
I21
I21
I24
tp10415
tp10416
(lp10417
g7
ag6
as(g949
(I2
I8
I9
I25
tp10418
tp10419
(lp10420
g7
ag6
as(g2049
(I1
I3
I9
I17
tp10421
tp10422
(lp10423
g6
ag7
as(g5389
(I0
I9
I9
I18
tp10424
tp10425
(lp10426
g7
ag34
as(g3100
(I0
I8
I9
I26
tp10427
tp10428
(lp10429
g7
ag34
as(g4321
(I3
I5
I9
I24
tp10430
tp10431
(lp10432
g6
ag7
as(g336
(I0
I8
I9
I13
tp10433
tp10434
(lp10435
g7
ag6
as(g2612
(I4
I9
I9
I10
tp10436
tp10437
(lp10438
g25
ag7
as(g3378
(I2
I5
I9
I21
tp10439
tp10440
(lp10441
g6
ag7
as(g1830
(I4
I7
I9
I11
tp10442
tp10443
(lp10444
g7
ag6
as(g9519
(I5
I9
I9
I26
tp10445
tp10446
(lp10447
g7
ag6
as(g6638
(I0
I12
I13
I19
tp10448
tp10449
(lp10450
g25
ag7
as(g2659
(I5
I6
I9
I10
tp10451
tp10452
(lp10453
g7
ag6
as(g9098
(I0
I19
I19
I21
tp10454
tp10455
(lp10456
g25
ag7
as(g51
(I0
I8
I9
I21
tp10457
tp10458
(lp10459
g7
ag34
as(g282
(I1
I3
I9
I24
tp10460
tp10461
(lp10462
g7
ag6
as(g2071
(I4
I6
I9
I20
tp10463
tp10464
(lp10465
g7
ag6
as(g8884
(I0
I18
I18
I21
tp10466
tp10467
(lp10468
g7
ag6
as(g6362
(I3
I9
I9
I29
tp10469
tp10470
(lp10471
g25
ag7
as(g2692
(I0
I9
I10
I16
tp10472
tp10473
(lp10474
g83
ag7
as(g8993
(I0
I5
I9
I13
tp10475
tp10476
(lp10477
g6
ag7
as(g4613
(I8
I9
I9
I15
tp10478
tp10479
(lp10480
g7
ag6
as(g1665
(I1
I3
I9
I18
tp10481
tp10482
(lp10483
g6
ag7
as(g3913
(I6
I7
I9
I21
tp10484
tp10485
(lp10486
g7
ag6
as(g7597
(I3
I7
I9
I12
tp10487
tp10488
(lp10489
g7
ag6
as(g4194
(I0
I7
I9
I29
tp10490
tp10491
(lp10492
g7
ag34
as(g835
(I7
I9
I9
I17
tp10493
tp10494
(lp10495
g25
ag7
as(g6728
(I3
I7
I9
I13
tp10496
tp10497
(lp10498
g7
ag6
as(g1127
(I1
I7
I9
I18
tp10499
tp10500
(lp10501
g7
ag6
as(g3623
(I0
I19
I20
I27
tp10502
tp10503
(lp10504
g7
ag6
as(g2505
(I0
I4
I9
I21
tp10505
tp10506
(lp10507
g7
ag34
as(g3170
(I0
I0
I9
I25
tp10508
tp10509
(lp10510
g6
ag6
as(g1038
(I3
I8
I9
I12
tp10511
tp10512
(lp10513
g7
ag6
as(g748
(I0
I22
I23
I24
tp10514
tp10515
(lp10516
g25
ag7
as(g1434
(I0
I11
I11
I13
tp10517
tp10518
(lp10519
g7
ag6
as(g5134
(I0
I17
I17
I18
tp10520
tp10521
(lp10522
g7
ag6
as(g8897
(I0
I8
I9
I24
tp10523
tp10524
(lp10525
g7
ag6
as(g9388
(I0
I19
I19
I29
tp10526
tp10527
(lp10528
g25
ag7
as(g1846
(I7
I8
I9
I21
tp10529
tp10530
(lp10531
g7
ag6
as(g6235
(I0
I10
I11
I27
tp10532
tp10533
(lp10534
g7
ag6
as(g9025
(I0
I18
I19
I25
tp10535
tp10536
(lp10537
g7
ag6
as(g4742
(I0
I19
I20
I27
tp10538
tp10539
(lp10540
g25
ag7
as(g6595
(I2
I7
I9
I21
tp10541
tp10542
(lp10543
g6
ag7
as(g1902
(I6
I9
I9
I21
tp10544
tp10545
(lp10546
g7
ag6
as(g1597
(I5
I9
I9
I27
tp10547
tp10548
(lp10549
g25
ag7
as(g1186
(I0
I4
I9
I15
tp10550
tp10551
(lp10552
g7
ag6
as(g3089
(I6
I8
I9
I25
tp10553
tp10554
(lp10555
g7
ag6
as(g1171
(I0
I0
I9
I17
tp10556
tp10557
(lp10558
g6
ag6
as(g39
(I4
I9
I9
I29
tp10559
tp10560
(lp10561
g7
ag6
as(g2243
(I4
I7
I9
I10
tp10562
tp10563
(lp10564
g7
ag6
as(g4965
(I0
I0
I9
I27
tp10565
tp10566
(lp10567
g6
ag34
as(g290
(I2
I6
I9
I18
tp10568
tp10569
(lp10570
g7
ag6
as(g5059
(I5
I8
I9
I13
tp10571
tp10572
(lp10573
g7
ag6
as(g8016
(I0
I5
I9
I10
tp10574
tp10575
(lp10576
g7
ag34
as(g835
(I6
I8
I9
I17
tp10577
tp10578
(lp10579
g7
ag6
as(g4874
(I0
I11
I12
I22
tp10580
tp10581
(lp10582
g25
ag7
as(g1917
(I2
I6
I9
I20
tp10583
tp10584
(lp10585
g6
ag7
as(g5931
(I6
I9
I9
I28
tp10586
tp10587
(lp10588
g25
ag7
as(g7624
(I6
I9
I9
I20
tp10589
tp10590
(lp10591
g7
ag6
as(g7135
(I5
I8
I9
I25
tp10592
tp10593
(lp10594
g6
ag7
as(g8551
(I5
I9
I9
I22
tp10595
tp10596
(lp10597
g7
ag6
as(g1034
(I4
I6
I9
I10
tp10598
tp10599
(lp10600
g6
ag7
as(g1008
(I4
I6
I9
I27
tp10601
tp10602
(lp10603
g7
ag6
as(g7601
(I4
I7
I9
I27
tp10604
tp10605
(lp10606
g6
ag7
as(g2670
(I1
I4
I9
I17
tp10607
tp10608
(lp10609
g6
ag7
as(g8665
(I3
I9
I9
I22
tp10610
tp10611
(lp10612
g7
ag6
as(g1879
(I0
I20
I21
I24
tp10613
tp10614
(lp10615
g7
ag6
as(g4110
(I0
I14
I15
I28
tp10616
tp10617
(lp10618
g7
ag12
as(g5016
(I0
I16
I17
I19
tp10619
tp10620
(lp10621
g25
ag7
as(g9654
(I0
I16
I16
I23
tp10622
tp10623
(lp10624
g7
ag6
as(g6208
(I0
I24
I25
I29
tp10625
tp10626
(lp10627
g25
ag7
as(g1715
(I0
I0
I9
I26
tp10628
tp10629
(lp10630
g6
ag6
as(g6032
(I2
I7
I9
I20
tp10631
tp10632
(lp10633
g6
ag7
as(g8309
(I0
I17
I18
I20
tp10634
tp10635
(lp10636
g25
ag7
as(g5102
(I0
I5
I9
I25
tp10637
tp10638
(lp10639
g7
ag34
as((I6
I9
I9
I18
tp10640
(I5
I9
I9
I18
tp10641
tp10642
(lp10643
g7
ag6
as(g10180
(I0
I15
I16
I21
tp10644
tp10645
(lp10646
g7
ag6
as(g4859
(I0
I4
I9
I23
tp10647
tp10648
(lp10649
g7
ag34
as((I0
I8
I9
I10
tp10650
(I0
I9
I9
I10
tp10651
tp10652
(lp10653
g25
ag7
as(g2381
(I0
I0
I9
I20
tp10654
tp10655
(lp10656
g6
ag34
as(g3248
(I0
I0
I9
I11
tp10657
tp10658
(lp10659
g6
ag6
as(g800
(I0
I8
I9
I23
tp10660
tp10661
(lp10662
g7
ag34
as(g3798
(I0
I3
I9
I28
tp10663
tp10664
(lp10665
g7
ag34
as(g6321
(I1
I9
I9
I23
tp10666
tp10667
(lp10668
g7
ag6
as(g10640
(I6
I9
I9
I17
tp10669
tp10670
(lp10671
g7
ag6
as(g8202
(I0
I2
I9
I28
tp10672
tp10673
(lp10674
g7
ag12
as(g1929
(I1
I6
I9
I26
tp10675
tp10676
(lp10677
g7
ag6
as(g2273
(I1
I2
I9
I10
tp10678
tp10679
(lp10680
g7
ag6
as(g3093
(I0
I13
I14
I17
tp10681
tp10682
(lp10683
g25
ag7
as(g5321
(I2
I5
I9
I14
tp10684
tp10685
(lp10686
g6
ag7
as(g8633
(I0
I6
I9
I26
tp10687
tp10688
(lp10689
g6
ag7
as(g2563
(I2
I7
I9
I25
tp10690
tp10691
(lp10692
g7
ag6
as(g3678
(I5
I9
I9
I18
tp10693
tp10694
(lp10695
g7
ag6
as(g1677
(I0
I13
I14
I22
tp10696
tp10697
(lp10698
g25
ag7
as(g3322
(I7
I9
I9
I21
tp10699
tp10700
(lp10701
g7
ag6
as(g2732
(I2
I7
I9
I29
tp10702
tp10703
(lp10704
g7
ag6
as(g282
(I2
I3
I9
I23
tp10705
tp10706
(lp10707
g7
ag6
as(g3407
(I1
I4
I9
I15
tp10708
tp10709
(lp10710
g7
ag6
as(g556
(I0
I7
I9
I25
tp10711
tp10712
(lp10713
g7
ag34
as(g4631
(I1
I8
I9
I24
tp10714
tp10715
(lp10716
g7
ag6
as(g2083
(I0
I11
I11
I19
tp10717
tp10718
(lp10719
g7
ag6
as(g10223
(I0
I14
I14
I18
tp10720
tp10721
(lp10722
g25
ag7
as(g1352
(I0
I7
I9
I26
tp10723
tp10724
(lp10725
g6
ag7
as(g9056
(I0
I4
I9
I25
tp10726
tp10727
(lp10728
g7
ag6
as(g1988
(I5
I9
I9
I21
tp10729
tp10730
(lp10731
g7
ag6
as(g8247
(I2
I8
I9
I16
tp10732
tp10733
(lp10734
g6
ag7
as(g1383
(I0
I2
I9
I28
tp10735
tp10736
(lp10737
g7
ag34
as(g3865
(I6
I9
I9
I29
tp10738
tp10739
(lp10740
g25
ag7
as((I0
I15
I15
I28
tp10741
(I0
I15
I16
I28
tp10742
tp10743
(lp10744
g25
ag7
as(g1073
(I0
I22
I22
I26
tp10745
tp10746
(lp10747
g7
ag6
as(g7219
(I4
I6
I9
I21
tp10748
tp10749
(lp10750
g7
ag6
as(g7305
(I2
I9
I9
I17
tp10751
tp10752
(lp10753
g7
ag6
as(g2147
(I0
I16
I17
I18
tp10754
tp10755
(lp10756
g7
ag6
as(g1394
(I2
I8
I9
I27
tp10757
tp10758
(lp10759
g7
ag6
as(g3411
(I7
I9
I9
I13
tp10760
tp10761
(lp10762
g7
ag6
as(g7301
(I0
I14
I15
I26
tp10763
tp10764
(lp10765
g25
ag7
as(g2677
(I5
I7
I9
I29
tp10766
tp10767
(lp10768
g6
ag7
as(g2095
(I0
I8
I9
I13
tp10769
tp10770
(lp10771
g6
ag7
as(g5679
(I2
I8
I9
I22
tp10772
tp10773
(lp10774
g7
ag6
as(g5209
(I1
I6
I9
I24
tp10775
tp10776
(lp10777
g7
ag6
as(g5614
(I0
I0
I9
I11
tp10778
tp10779
(lp10780
g25
ag6
as(g6949
(I0
I13
I13
I26
tp10781
tp10782
(lp10783
g25
ag7
as(g1760
(I2
I7
I9
I28
tp10784
tp10785
(lp10786
g7
ag6
as(g5399
(I4
I9
I9
I24
tp10787
tp10788
(lp10789
g7
ag6
as(g5474
(I0
I1
I9
I23
tp10790
tp10791
(lp10792
g7
ag6
as(g9204
(I0
I16
I17
I28
tp10793
tp10794
(lp10795
g25
ag7
as(g3703
(I0
I12
I12
I24
tp10796
tp10797
(lp10798
g7
ag6
as(g9133
(I3
I9
I9
I25
tp10799
tp10800
(lp10801
g7
ag6
as(g180
(I0
I6
I9
I22
tp10802
tp10803
(lp10804
g7
ag34
as(g2177
(I0
I3
I9
I15
tp10805
tp10806
(lp10807
g6
ag7
as(g4859
(I1
I5
I9
I23
tp10808
tp10809
(lp10810
g6
ag7
as(g9703
(I0
I13
I13
I25
tp10811
tp10812
(lp10813
g7
ag6
as(g6634
(I1
I7
I9
I12
tp10814
tp10815
(lp10816
g7
ag6
as(g3981
(I3
I6
I9
I18
tp10817
tp10818
(lp10819
g7
ag6
as(g7219
(I5
I7
I9
I21
tp10820
tp10821
(lp10822
g6
ag7
as(g4831
(I0
I8
I9
I28
tp10823
tp10824
(lp10825
g7
ag12
as(g2776
(I0
I7
I9
I15
tp10826
tp10827
(lp10828
g6
ag7
as(g2210
(I2
I7
I9
I13
tp10829
tp10830
(lp10831
g7
ag6
as(g7446
(I0
I4
I9
I14
tp10832
tp10833
(lp10834
g6
ag7
as(g8401
(I0
I23
I23
I28
tp10835
tp10836
(lp10837
g7
ag12
as(g1937
(I0
I22
I23
I25
tp10838
tp10839
(lp10840
g7
ag6
as(g2247
(I1
I9
I9
I11
tp10841
tp10842
(lp10843
g25
ag7
as(g5618
(I0
I21
I21
I26
tp10844
tp10845
(lp10846
g25
ag7
as(g10741
(I0
I15
I15
I27
tp10847
tp10848
(lp10849
g7
ag6
as(g1564
(I3
I7
I9
I19
tp10850
tp10851
(lp10852
g7
ag6
as(g1516
(I0
I1
I9
I10
tp10853
tp10854
(lp10855
g7
ag6
as(g2624
(I0
I0
I9
I17
tp10856
tp10857
(lp10858
g6
ag34
as(g2079
(I0
I2
I9
I14
tp10859
tp10860
(lp10861
g7
ag34
as(g5978
(I5
I8
I9
I10
tp10862
tp10863
(lp10864
g7
ag6
as(g8174
(I2
I8
I9
I10
tp10865
tp10866
(lp10867
g7
ag6
as.