(dp1
((I0
I3
I3
I8
tp2
(I0
I3
I3
I7
tp3
tp4
(lp5
S'stack'
p6
aS'loop'
p7
as((I0
I6
I7
I21
tp8
(I0
I7
I7
I21
tp9
tp10
(lp11
S'stack+loop'
p12
ag6
as((I0
I3
I4
I6
tp13
(I0
I3
I4
I5
tp14
tp15
(lp16
g6
ag7
as((I0
I9
I9
I16
tp17
(I0
I9
I10
I16
tp18
tp19
(lp20
g12
ag6
as((I0
I2
I2
I9
tp21
(I0
I2
I2
I8
tp22
tp23
(lp24
g6
ag7
as((I0
I6
I7
I11
tp25
(I0
I7
I7
I11
tp26
tp27
(lp28
g12
ag6
as((I0
I2
I3
I18
tp29
(I0
I3
I3
I18
tp30
tp31
(lp32
g12
ag6
as((I0
I6
I6
I8
tp33
(I0
I6
I6
I7
tp34
tp35
(lp36
g6
ag7
as((I0
I1
I2
I14
tp37
(I0
I2
I2
I14
tp38
tp39
(lp40
g12
ag6
as((I0
I1
I1
I5
tp41
(I0
I1
I1
I4
tp42
tp43
(lp44
g6
ag7
as((I0
I1
I2
I8
tp45
(I0
I2
I2
I8
tp46
tp47
(lp48
g12
ag6
as((I0
I9
I9
I15
tp49
(I0
I9
I9
I14
tp50
tp51
(lp52
g6
ag7
as((I0
I2
I2
I20
tp53
(I0
I2
I2
I19
tp54
tp55
(lp56
g6
ag7
as((I0
I4
I5
I7
tp57
(I0
I5
I5
I7
tp58
tp59
(lp60
g12
ag6
as((I0
I9
I9
I11
tp61
(I0
I9
I10
I11
tp62
tp63
(lp64
g12
ag6
as((I0
I4
I5
I10
tp65
(I0
I5
I5
I10
tp66
tp67
(lp68
g12
ag6
as((I0
I6
I6
I19
tp69
(I0
I6
I6
I18
tp70
tp71
(lp72
g6
ag7
as((I0
I6
I7
I10
tp73
(I0
I7
I7
I10
tp74
tp75
(lp76
g12
ag6
as((I0
I13
I13
I21
tp77
(I0
I13
I14
I21
tp78
tp79
(lp80
g12
ag6
as((I0
I8
I9
I11
tp81
(I0
I8
I9
I10
tp82
tp83
(lp84
g6
ag7
as((I0
I10
I10
I15
tp85
(I0
I10
I10
I14
tp86
tp87
(lp88
g6
ag7
as((I0
I4
I5
I20
tp89
(I0
I5
I5
I20
tp90
tp91
(lp92
g12
ag6
as((I0
I1
I2
I7
tp93
(I0
I2
I2
I7
tp94
tp95
(lp96
g12
ag6
as((I0
I10
I11
I18
tp97
(I0
I10
I11
I17
tp98
tp99
(lp100
g6
ag7
as((I0
I5
I6
I8
tp101
(I0
I6
I6
I8
tp102
tp103
(lp104
g12
ag6
as((I0
I4
I4
I14
tp105
(I0
I4
I4
I13
tp106
tp107
(lp108
g6
ag7
as((I0
I14
I15
I19
tp109
(I0
I15
I15
I19
tp110
tp111
(lp112
g12
ag6
as((I0
I7
I8
I18
tp113
(I0
I7
I8
I17
tp114
tp115
(lp116
g6
ag7
as((I0
I7
I7
I18
tp117
(I0
I7
I7
I17
tp118
tp119
(lp120
g6
ag7
as((I0
I1
I2
I11
tp121
(I0
I2
I2
I11
tp122
tp123
(lp124
g12
ag6
as((I0
I13
I13
I15
tp125
(I0
I13
I14
I15
tp126
tp127
(lp128
g12
ag6
as((I0
I1
I2
I20
tp129
(I0
I2
I2
I20
tp130
tp131
(lp132
g12
ag6
as((I0
I6
I6
I15
tp133
(I0
I6
I6
I14
tp134
tp135
(lp136
g6
ag7
as((I0
I13
I13
I20
tp137
(I0
I13
I13
I19
tp138
tp139
(lp140
g6
ag7
as((I0
I4
I4
I10
tp141
(I0
I4
I5
I10
tp142
tp143
(lp144
g12
ag6
as((I0
I3
I4
I14
tp145
(I0
I3
I4
I13
tp146
tp147
(lp148
g6
ag7
as((I0
I11
I11
I17
tp149
(I0
I11
I12
I17
tp150
tp151
(lp152
g12
ag6
as((I0
I15
I16
I17
tp153
(I0
I16
I16
I17
tp154
tp155
(lp156
g12
ag6
as((I0
I9
I9
I20
tp157
(I0
I9
I10
I20
tp158
tp159
(lp160
g12
ag6
as((I0
I4
I4
I21
tp161
(I0
I4
I5
I21
tp162
tp163
(lp164
g12
ag6
as((I0
I4
I5
I18
tp165
(I0
I5
I5
I18
tp166
tp167
(lp168
g12
ag6
as(g65
(I0
I4
I5
I9
tp169
tp170
(lp171
g6
ag7
as(g85
(I0
I10
I11
I15
tp172
tp173
(lp174
g12
ag6
as((I0
I13
I14
I17
tp175
(I0
I14
I14
I17
tp176
tp177
(lp178
g12
ag6
as((I0
I10
I10
I12
tp179
(I0
I10
I11
I12
tp180
tp181
(lp182
g12
ag6
as((I0
I2
I2
I13
tp183
(I0
I2
I3
I13
tp184
tp185
(lp186
g12
ag6
as((I0
I5
I5
I8
tp187
(I0
I5
I6
I8
tp188
tp189
(lp190
g12
ag6
as((I0
I8
I8
I19
tp191
(I0
I8
I9
I19
tp192
tp193
(lp194
g12
ag6
as((I0
I3
I3
I21
tp195
(I0
I3
I4
I21
tp196
tp197
(lp198
g12
ag6
as((I0
I14
I15
I21
tp199
(I0
I15
I15
I21
tp200
tp201
(lp202
g12
ag6
as((I0
I14
I15
I18
tp203
(I0
I15
I15
I18
tp204
tp205
(lp206
g12
ag6
as((I0
I9
I10
I14
tp207
(I0
I10
I10
I14
tp208
tp209
(lp210
g12
ag6
as((I0
I5
I6
I13
tp211
(I0
I5
I6
I12
tp212
tp213
(lp214
g6
ag7
as((I0
I16
I16
I20
tp215
(I0
I16
I16
I19
tp216
tp217
(lp218
g6
ag7
as((I0
I1
I1
I3
tp219
(I0
I0
I1
I3
tp220
tp221
(lp222
g12
aS'end'
p223
as((I0
I9
I9
I14
tp224
(I0
I9
I10
I14
tp225
tp226
(lp227
g12
ag6
as((I0
I6
I6
I9
tp228
(I0
I6
I7
I9
tp229
tp230
(lp231
g12
ag6
as((I0
I4
I5
I17
tp232
(I0
I4
I5
I16
tp233
tp234
(lp235
g6
ag7
as((I0
I3
I4
I8
tp236
(I0
I3
I4
I7
tp237
tp238
(lp239
g6
ag7
as((I0
I12
I12
I16
tp240
(I0
I12
I12
I15
tp241
tp242
(lp243
g6
ag7
as((I0
I8
I9
I18
tp244
(I0
I8
I9
I17
tp245
tp246
(lp247
g6
ag7
as((I0
I3
I3
I20
tp248
(I0
I3
I4
I20
tp249
tp250
(lp251
g12
ag6
as((I0
I3
I4
I17
tp252
(I0
I3
I4
I16
tp253
tp254
(lp255
g6
ag7
as((I0
I1
I2
I21
tp256
(I0
I2
I2
I21
tp257
tp258
(lp259
g12
ag6
as((I0
I3
I3
I5
tp260
(I0
I3
I4
I5
tp261
tp262
(lp263
g12
ag6
as((I0
I8
I9
I14
tp264
(I0
I9
I9
I14
tp265
tp266
(lp267
g12
ag6
as((I0
I12
I13
I19
tp268
(I0
I12
I13
I18
tp269
tp270
(lp271
g6
ag7
as((I0
I6
I6
I11
tp272
(I0
I6
I7
I11
tp273
tp274
(lp275
g12
ag6
as((I0
I3
I3
I14
tp276
(I0
I3
I3
I13
tp277
tp278
(lp279
g6
ag7
as((I0
I4
I5
I12
tp280
(I0
I5
I5
I12
tp281
tp282
(lp283
g12
ag6
as((I0
I13
I14
I16
tp284
(I0
I13
I14
I15
tp285
tp286
(lp287
g6
ag7
as((I0
I1
I1
I18
tp288
(I0
I0
I1
I18
tp289
tp290
(lp291
g12
ag223
as((I0
I14
I14
I19
tp292
(I0
I14
I14
I18
tp293
tp294
(lp295
g6
ag7
as((I0
I6
I6
I18
tp296
(I0
I6
I6
I17
tp297
tp298
(lp299
g6
ag7
as((I0
I6
I6
I20
tp300
(I0
I6
I6
I19
tp301
tp302
(lp303
g6
ag7
as((I0
I1
I2
I9
tp304
(I0
I1
I2
I8
tp305
tp306
(lp307
g6
ag7
as((I0
I18
I18
I20
tp308
(I0
I18
I19
I20
tp309
tp310
(lp311
g12
ag6
as((I0
I11
I11
I14
tp312
(I0
I11
I11
I13
tp313
tp314
(lp315
g6
ag7
as((I0
I15
I15
I19
tp316
(I0
I15
I15
I18
tp317
tp318
(lp319
g6
ag7
as((I0
I1
I2
I15
tp320
(I0
I2
I2
I15
tp321
tp322
(lp323
g12
ag6
as(g129
(I0
I1
I2
I19
tp324
tp325
(lp326
g6
ag7
as((I0
I7
I7
I10
tp327
(I0
I7
I8
I10
tp328
tp329
(lp330
g12
ag6
as((I0
I3
I3
I7
tp331
(I0
I3
I3
I6
tp332
tp333
(lp334
g6
ag7
as((I0
I1
I1
I16
tp335
(I0
I1
I1
I15
tp336
tp337
(lp338
g6
ag7
as(g179
(I0
I10
I10
I11
tp339
tp340
(lp341
g6
ag7
as((I0
I10
I11
I12
tp342
(I0
I11
I11
I12
tp343
tp344
(lp345
g12
ag6
as((I0
I4
I5
I8
tp346
(I0
I4
I5
I7
tp347
tp348
(lp349
g6
ag7
as((I0
I9
I9
I12
tp350
(I0
I9
I10
I12
tp351
tp352
(lp353
g12
ag6
as((I0
I8
I8
I12
tp354
(I0
I8
I9
I12
tp355
tp356
(lp357
g12
ag6
as((I0
I3
I3
I16
tp358
(I0
I3
I4
I16
tp359
tp360
(lp361
g12
ag6
as((I0
I11
I12
I18
tp362
(I0
I12
I12
I18
tp363
tp364
(lp365
g12
ag6
as(g288
(I0
I1
I1
I17
tp366
tp367
(lp368
g6
ag7
as((I0
I7
I8
I15
tp369
(I0
I8
I8
I15
tp370
tp371
(lp372
g12
ag6
as((I0
I1
I2
I3
tp373
(I0
I2
I2
I3
tp374
tp375
(lp376
g12
ag6
as((I0
I4
I4
I20
tp377
(I0
I4
I5
I20
tp378
tp379
(lp380
g12
ag6
as((I0
I3
I3
I11
tp381
(I0
I3
I4
I11
tp382
tp383
(lp384
g12
ag6
as((I0
I4
I4
I11
tp385
(I0
I4
I5
I11
tp386
tp387
(lp388
g12
ag6
as((I0
I5
I6
I9
tp389
(I0
I5
I6
I8
tp390
tp391
(lp392
g6
ag7
as((I0
I5
I5
I15
tp393
(I0
I5
I5
I14
tp394
tp395
(lp396
g6
ag7
as((I0
I13
I13
I19
tp397
(I0
I13
I14
I19
tp398
tp399
(lp400
g12
ag6
as((I0
I5
I6
I15
tp401
(I0
I5
I6
I14
tp402
tp403
(lp404
g6
ag7
as((I0
I4
I5
I14
tp405
(I0
I5
I5
I14
tp406
tp407
(lp408
g12
ag6
as((I0
I1
I2
I12
tp409
(I0
I2
I2
I12
tp410
tp411
(lp412
g12
ag6
as((I0
I16
I17
I20
tp413
(I0
I16
I17
I19
tp414
tp415
(lp416
g6
ag7
as((I0
I6
I7
I17
tp417
(I0
I6
I7
I16
tp418
tp419
(lp420
g6
ag7
as((I0
I3
I3
I19
tp421
(I0
I3
I3
I18
tp422
tp423
(lp424
g6
ag7
as((I0
I5
I6
I14
tp425
(I0
I5
I6
I13
tp426
tp427
(lp428
g6
ag7
as((I0
I5
I5
I10
tp429
(I0
I5
I5
I9
tp430
tp431
(lp432
g6
ag7
as((I0
I10
I10
I21
tp433
(I0
I10
I10
I20
tp434
tp435
(lp436
g6
aS'loop+end'
p437
as((I0
I2
I3
I5
tp438
(I0
I2
I3
I4
tp439
tp440
(lp441
g6
ag7
as(g219
(I0
I1
I2
I3
tp442
tp443
(lp444
S'stack+end'
p445
ag6
as(g256
(I0
I1
I2
I20
tp446
tp447
(lp448
g6
ag437
as((I0
I16
I16
I18
tp449
(I0
I16
I16
I17
tp450
tp451
(lp452
g6
ag7
as((I0
I12
I13
I16
tp453
(I0
I12
I13
I15
tp454
tp455
(lp456
g6
ag7
as((I0
I10
I11
I13
tp457
(I0
I11
I11
I13
tp458
tp459
(lp460
g12
ag6
as((I0
I3
I4
I21
tp461
(I0
I4
I4
I21
tp462
tp463
(lp464
g12
ag6
as((I0
I14
I14
I16
tp465
(I0
I14
I14
I15
tp466
tp467
(lp468
g6
ag7
as((I0
I16
I17
I19
tp469
(I0
I17
I17
I19
tp470
tp471
(lp472
g12
ag6
as((I0
I1
I1
I4
tp473
(I0
I0
I1
I4
tp474
tp475
(lp476
g12
ag223
as((I0
I17
I17
I21
tp477
(I0
I17
I18
I21
tp478
tp479
(lp480
g12
ag6
as((I0
I6
I7
I16
tp481
(I0
I6
I7
I15
tp482
tp483
(lp484
g6
ag7
as(g157
(I0
I9
I9
I19
tp485
tp486
(lp487
g6
ag7
as((I0
I1
I2
I16
tp488
(I0
I2
I2
I16
tp489
tp490
(lp491
g12
ag6
as((I0
I9
I10
I11
tp492
(I0
I10
I10
I11
tp493
tp494
(lp495
g12
ag6
as(g260
(I0
I3
I3
I4
tp496
tp497
(lp498
g6
ag7
as((I0
I1
I1
I8
tp499
(I0
I1
I2
I8
tp500
tp501
(lp502
g445
ag6
as((I0
I4
I5
I9
tp503
(I0
I4
I5
I8
tp504
tp505
(lp506
g6
ag7
as((I0
I11
I11
I13
tp507
(I0
I11
I12
I13
tp508
tp509
(lp510
g12
ag6
as((I0
I15
I16
I21
tp511
(I0
I16
I16
I21
tp512
tp513
(lp514
g12
ag6
as((I0
I20
I21
I21
tp515
(I0
I21
I21
I21
tp516
tp517
(lp518
g223
ag6
as((I0
I6
I6
I16
tp519
(I0
I6
I6
I15
tp520
tp521
(lp522
g6
ag7
as((I0
I2
I2
I18
tp523
(I0
I2
I3
I18
tp524
tp525
(lp526
g12
ag6
as((I0
I5
I6
I18
tp527
(I0
I6
I6
I18
tp528
tp529
(lp530
g12
ag6
as((I0
I10
I11
I17
tp531
(I0
I10
I11
I16
tp532
tp533
(lp534
g6
ag7
as((I0
I7
I8
I21
tp535
(I0
I8
I8
I21
tp536
tp537
(lp538
g12
ag6
as((I0
I13
I14
I20
tp539
(I0
I13
I14
I19
tp540
tp541
(lp542
g6
ag7
as((I0
I10
I11
I16
tp543
(I0
I11
I11
I16
tp544
tp545
(lp546
g12
ag6
as((I0
I1
I1
I20
tp547
(I0
I0
I1
I20
tp548
tp549
(lp550
g12
ag223
as((I0
I3
I4
I19
tp551
(I0
I3
I4
I18
tp552
tp553
(lp554
g6
ag7
as((I0
I3
I3
I9
tp555
(I0
I3
I3
I8
tp556
tp557
(lp558
g6
ag7
as((I0
I13
I14
I21
tp559
(I0
I13
I14
I20
tp560
tp561
(lp562
g6
ag437
as((I0
I4
I5
I19
tp563
(I0
I5
I5
I19
tp564
tp565
(lp566
g12
ag6
as((I0
I5
I6
I19
tp567
(I0
I5
I6
I18
tp568
tp569
(lp570
g6
ag7
as(g13
(I0
I4
I4
I6
tp571
tp572
(lp573
g12
ag6
as(g346
(I0
I5
I5
I8
tp574
tp575
(lp576
g12
ag6
as((I0
I2
I2
I11
tp577
(I0
I2
I3
I11
tp578
tp579
(lp580
g12
ag6
as((I0
I7
I8
I12
tp581
(I0
I7
I8
I11
tp582
tp583
(lp584
g6
ag7
as((I0
I12
I12
I20
tp585
(I0
I12
I12
I19
tp586
tp587
(lp588
g6
ag7
as(g527
(I0
I5
I6
I17
tp589
tp590
(lp591
g6
ag7
as((I0
I9
I9
I13
tp592
(I0
I9
I9
I12
tp593
tp594
(lp595
g6
ag7
as((I0
I13
I13
I16
tp596
(I0
I13
I14
I16
tp597
tp598
(lp599
g12
ag6
as((I0
I2
I2
I7
tp600
(I0
I2
I2
I6
tp601
tp602
(lp603
g6
ag7
as(g17
(I0
I9
I9
I15
tp604
tp605
(lp606
g6
ag7
as((I0
I4
I5
I6
tp607
(I0
I5
I5
I6
tp608
tp609
(lp610
g12
ag6
as((I0
I2
I3
I20
tp611
(I0
I2
I3
I19
tp612
tp613
(lp614
g6
ag7
as((I0
I3
I3
I15
tp615
(I0
I3
I4
I15
tp616
tp617
(lp618
g12
ag6
as((I0
I2
I2
I4
tp619
(I0
I2
I3
I4
tp620
tp621
(lp622
g12
ag6
as(g611
(I0
I3
I3
I20
tp623
tp624
(lp625
g12
ag6
as((I0
I12
I13
I18
tp626
(I0
I12
I13
I17
tp627
tp628
(lp629
g6
ag7
as((I0
I17
I18
I21
tp630
(I0
I17
I18
I20
tp631
tp632
(lp633
g6
ag437
as((I0
I9
I10
I13
tp634
(I0
I9
I10
I12
tp635
tp636
(lp637
g6
ag7
as((I0
I9
I10
I16
tp638
(I0
I9
I10
I15
tp639
tp640
(lp641
g6
ag7
as((I0
I12
I13
I15
tp642
(I0
I12
I13
I14
tp643
tp644
(lp645
g6
ag7
as((I0
I6
I7
I12
tp646
(I0
I7
I7
I12
tp647
tp648
(lp649
g12
ag6
as((I0
I4
I5
I13
tp650
(I0
I5
I5
I13
tp651
tp652
(lp653
g12
ag6
as(g385
(I0
I4
I4
I10
tp654
tp655
(lp656
g6
ag7
as((I0
I6
I7
I19
tp657
(I0
I6
I7
I18
tp658
tp659
(lp660
g6
ag7
as((I0
I8
I8
I15
tp661
(I0
I8
I8
I14
tp662
tp663
(lp664
g6
ag7
as((I0
I10
I10
I14
tp665
(I0
I10
I10
I13
tp666
tp667
(lp668
g6
ag7
as((I0
I3
I4
I20
tp669
(I0
I4
I4
I20
tp670
tp671
(lp672
g12
ag6
as((I0
I10
I10
I18
tp673
(I0
I10
I11
I18
tp674
tp675
(lp676
g12
ag6
as(g304
(I0
I2
I2
I9
tp677
tp678
(lp679
g12
ag6
as((I0
I1
I1
I13
tp680
(I0
I1
I2
I13
tp681
tp682
(lp683
g445
ag6
as((I0
I2
I2
I16
tp684
(I0
I2
I3
I16
tp685
tp686
(lp687
g12
ag6
as((I0
I8
I8
I10
tp688
(I0
I8
I9
I10
tp689
tp690
(lp691
g12
ag6
as(g433
(I0
I10
I11
I21
tp692
tp693
(lp694
g12
ag6
as(g195
(I0
I3
I3
I20
tp695
tp696
(lp697
g6
ag437
as((I0
I1
I2
I17
tp698
(I0
I1
I2
I16
tp699
tp700
(lp701
g6
ag7
as((I0
I1
I1
I6
tp702
(I0
I0
I1
I6
tp703
tp704
(lp705
g12
ag223
as((I0
I8
I8
I18
tp706
(I0
I8
I8
I17
tp707
tp708
(lp709
g6
ag7
as((I0
I2
I3
I9
tp710
(I0
I2
I3
I8
tp711
tp712
(lp713
g6
ag7
as((I0
I9
I10
I12
tp714
(I0
I10
I10
I12
tp715
tp716
(lp717
g12
ag6
as((I0
I6
I7
I18
tp718
(I0
I7
I7
I18
tp719
tp720
(lp721
g12
ag6
as(g53
(I0
I2
I3
I20
tp722
tp723
(lp724
g12
ag6
as((I0
I8
I9
I10
tp725
(I0
I9
I9
I10
tp726
tp727
(lp728
g12
ag6
as((I0
I17
I17
I19
tp729
(I0
I17
I17
I18
tp730
tp731
(lp732
g6
ag7
as(g461
(I0
I3
I4
I20
tp733
tp734
(lp735
g6
ag437
as(g183
(I0
I2
I2
I12
tp736
tp737
(lp738
g6
ag7
as(g507
(I0
I11
I11
I12
tp739
tp740
(lp741
g6
ag7
as((I0
I7
I7
I15
tp742
(I0
I7
I7
I14
tp743
tp744
(lp745
g6
ag7
as((I0
I18
I19
I21
tp746
(I0
I18
I19
I20
tp747
tp748
(lp749
g6
ag437
as((I0
I14
I14
I20
tp750
(I0
I14
I14
I19
tp751
tp752
(lp753
g6
ag7
as((I0
I15
I15
I17
tp754
(I0
I15
I16
I17
tp755
tp756
(lp757
g12
ag6
as((I0
I11
I11
I18
tp758
(I0
I11
I11
I17
tp759
tp760
(lp761
g6
ag7
as((I0
I8
I9
I21
tp762
(I0
I8
I9
I20
tp763
tp764
(lp765
g6
ag437
as((I0
I11
I11
I21
tp766
(I0
I11
I11
I20
tp767
tp768
(lp769
g6
ag437
as((I0
I6
I6
I14
tp770
(I0
I6
I7
I14
tp771
tp772
(lp773
g12
ag6
as((I0
I10
I11
I21
tp774
(I0
I11
I11
I21
tp775
tp776
(lp777
g12
ag6
as((I0
I3
I4
I12
tp778
(I0
I4
I4
I12
tp779
tp780
(lp781
g12
ag6
as((I0
I6
I6
I12
tp782
(I0
I6
I6
I11
tp783
tp784
(lp785
g6
ag7
as((I0
I9
I10
I20
tp786
(I0
I10
I10
I20
tp787
tp788
(lp789
g12
ag6
as(g191
(I0
I8
I8
I18
tp790
tp791
(lp792
g6
ag7
as((I0
I9
I9
I21
tp793
(I0
I9
I10
I21
tp794
tp795
(lp796
g12
ag6
as((I0
I1
I1
I11
tp797
(I0
I0
I1
I11
tp798
tp799
(lp800
g12
ag223
as((I0
I5
I6
I21
tp801
(I0
I5
I6
I20
tp802
tp803
(lp804
g6
ag437
as((I0
I15
I15
I21
tp805
(I0
I15
I16
I21
tp806
tp807
(lp808
g12
ag6
as((I0
I4
I4
I9
tp809
(I0
I4
I5
I9
tp810
tp811
(lp812
g12
ag6
as((I0
I6
I6
I10
tp813
(I0
I6
I7
I10
tp814
tp815
(lp816
g12
ag6
as((I0
I2
I2
I14
tp817
(I0
I2
I2
I13
tp818
tp819
(lp820
g6
ag7
as((I0
I12
I13
I21
tp821
(I0
I13
I13
I21
tp822
tp823
(lp824
g12
ag6
as((I0
I10
I11
I20
tp825
(I0
I10
I11
I19
tp826
tp827
(lp828
g6
ag7
as((I0
I4
I4
I18
tp829
(I0
I4
I4
I17
tp830
tp831
(lp832
g6
ag7
as((I0
I5
I6
I11
tp833
(I0
I6
I6
I11
tp834
tp835
(lp836
g12
ag6
as((I0
I8
I9
I13
tp837
(I0
I9
I9
I13
tp838
tp839
(lp840
g12
ag6
as(g77
(I0
I13
I13
I20
tp841
tp842
(lp843
g6
ag437
as(g750
(I0
I14
I15
I20
tp844
tp845
(lp846
g12
ag6
as((I0
I7
I8
I11
tp847
(I0
I8
I8
I11
tp848
tp849
(lp850
g12
ag6
as((I0
I5
I5
I20
tp851
(I0
I5
I5
I19
tp852
tp853
(lp854
g6
ag7
as(g232
(I0
I5
I5
I17
tp855
tp856
(lp857
g12
ag6
as((I0
I1
I1
I15
tp858
(I0
I1
I2
I15
tp859
tp860
(lp861
g445
ag6
as((I0
I18
I18
I21
tp862
(I0
I18
I18
I20
tp863
tp864
(lp865
g6
ag437
as((I0
I3
I4
I11
tp866
(I0
I4
I4
I11
tp867
tp868
(lp869
g12
ag6
as((I0
I3
I3
I17
tp870
(I0
I3
I3
I16
tp871
tp872
(lp873
g6
ag7
as((I0
I4
I4
I16
tp874
(I0
I4
I5
I16
tp875
tp876
(lp877
g12
ag6
as(g369
(I0
I7
I8
I14
tp878
tp879
(lp880
g6
ag7
as(g137
(I0
I13
I14
I20
tp881
tp882
(lp883
g12
ag6
as((I0
I1
I1
I19
tp884
(I0
I1
I2
I19
tp885
tp886
(lp887
g445
ag6
as(g646
(I0
I6
I7
I11
tp888
tp889
(lp890
g6
ag7
as(g219
(I0
I1
I1
I2
tp891
tp892
(lp893
g6
ag7
as((I0
I12
I12
I19
tp894
(I0
I12
I12
I18
tp895
tp896
(lp897
g6
ag7
as((I0
I12
I12
I17
tp898
(I0
I12
I13
I17
tp899
tp900
(lp901
g12
ag6
as(g300
(I0
I6
I7
I20
tp902
tp903
(lp904
g12
ag6
as((I0
I2
I2
I12
tp905
(I0
I2
I3
I12
tp906
tp907
(lp908
g12
ag6
as((I0
I6
I6
I13
tp909
(I0
I6
I7
I13
tp910
tp911
(lp912
g12
ag6
as(g754
(I0
I15
I15
I16
tp913
tp914
(lp915
g6
ag7
as(g69
(I0
I6
I7
I19
tp916
tp917
(lp918
g12
ag6
as((I0
I11
I11
I15
tp919
(I0
I11
I12
I15
tp920
tp921
(lp922
g12
ag6
as((I0
I11
I12
I20
tp923
(I0
I11
I12
I19
tp924
tp925
(lp926
g6
ag7
as((I0
I14
I14
I17
tp927
(I0
I14
I14
I16
tp928
tp929
(lp930
g6
ag7
as(g393
(I0
I5
I6
I15
tp931
tp932
(lp933
g12
ag6
as((I0
I10
I10
I13
tp934
(I0
I10
I10
I12
tp935
tp936
(lp937
g6
ag7
as(g702
(I0
I1
I1
I5
tp938
tp939
(lp940
g6
ag7
as((I0
I5
I5
I18
tp941
(I0
I5
I6
I18
tp942
tp943
(lp944
g12
ag6
as((I0
I7
I7
I21
tp945
(I0
I7
I8
I21
tp946
tp947
(lp948
g12
ag6
as((I0
I10
I11
I14
tp949
(I0
I11
I11
I14
tp950
tp951
(lp952
g12
ag6
as(g909
(I0
I6
I6
I12
tp953
tp954
(lp955
g6
ag7
as((I0
I15
I15
I18
tp956
(I0
I15
I16
I18
tp957
tp958
(lp959
g12
ag6
as(g884
(I0
I0
I1
I19
tp960
tp961
(lp962
g12
ag223
as((I0
I16
I17
I18
tp963
(I0
I17
I17
I18
tp964
tp965
(lp966
g12
ag6
as(g825
(I0
I11
I11
I20
tp967
tp968
(lp969
g12
ag6
as((I0
I1
I1
I12
tp970
(I0
I1
I1
I11
tp971
tp972
(lp973
g6
ag7
as((I0
I15
I16
I20
tp974
(I0
I15
I16
I19
tp975
tp976
(lp977
g6
ag7
as(g729
(I0
I17
I18
I19
tp978
tp979
(lp980
g12
ag6
as(g551
(I0
I4
I4
I19
tp981
tp982
(lp983
g12
ag6
as(g547
(I0
I1
I2
I20
tp984
tp985
(lp986
g445
ag6
as((I0
I5
I6
I10
tp987
(I0
I6
I6
I10
tp988
tp989
(lp990
g12
ag6
as(g626
(I0
I13
I13
I18
tp991
tp992
(lp993
g12
ag6
as((I0
I1
I2
I5
tp994
(I0
I2
I2
I5
tp995
tp996
(lp997
g12
ag6
as(g89
(I0
I4
I5
I19
tp998
tp999
(lp1000
g6
ag7
as((I0
I2
I2
I8
tp1001
(I0
I2
I3
I8
tp1002
tp1003
(lp1004
g12
ag6
as((I0
I7
I7
I14
tp1005
(I0
I7
I7
I13
tp1006
tp1007
(lp1008
g6
ag7
as(g688
(I0
I8
I8
I9
tp1009
tp1010
(lp1011
g6
ag7
as((I0
I3
I4
I15
tp1012
(I0
I3
I4
I14
tp1013
tp1014
(lp1015
g6
ag7
as((I0
I4
I4
I7
tp1016
(I0
I4
I5
I7
tp1017
tp1018
(lp1019
g12
ag6
as(g327
(I0
I7
I7
I9
tp1020
tp1021
(lp1022
g6
ag7
as((I0
I2
I2
I17
tp1023
(I0
I2
I3
I17
tp1024
tp1025
(lp1026
g12
ag6
as(g413
(I0
I17
I17
I20
tp1027
tp1028
(lp1029
g12
ag6
as((I0
I7
I7
I19
tp1030
(I0
I7
I8
I19
tp1031
tp1032
(lp1033
g12
ag6
as(g203
(I0
I14
I15
I17
tp1034
tp1035
(lp1036
g6
ag7
as((I0
I7
I7
I12
tp1037
(I0
I7
I8
I12
tp1038
tp1039
(lp1040
g12
ag6
as(g531
(I0
I11
I11
I17
tp1041
tp1042
(lp1043
g12
ag6
as((I0
I9
I9
I17
tp1044
(I0
I9
I9
I16
tp1045
tp1046
(lp1047
g6
ag7
as(g805
(I0
I15
I15
I20
tp1048
tp1049
(lp1050
g6
ag437
as((I0
I5
I6
I20
tp1051
(I0
I5
I6
I19
tp1052
tp1053
(lp1054
g6
ag7
as((I0
I1
I1
I7
tp1055
(I0
I1
I1
I6
tp1056
tp1057
(lp1058
g6
ag7
as(g642
(I0
I13
I13
I15
tp1059
tp1060
(lp1061
g12
ag6
as(g211
(I0
I6
I6
I13
tp1062
tp1063
(lp1064
g12
ag6
as(g829
(I0
I4
I5
I18
tp1065
tp1066
(lp1067
g12
ag6
as((I0
I2
I3
I10
tp1068
(I0
I2
I3
I9
tp1069
tp1070
(lp1071
g6
ag7
as(g821
(I0
I12
I13
I20
tp1072
tp1073
(lp1074
g6
ag437
as((I0
I11
I12
I17
tp1075
(I0
I12
I12
I17
tp1076
tp1077
(lp1078
g12
ag6
as((I0
I9
I10
I15
tp1079
(I0
I9
I10
I14
tp1080
tp1081
(lp1082
g6
ag7
as((I0
I4
I4
I12
tp1083
(I0
I4
I5
I12
tp1084
tp1085
(lp1086
g12
ag6
as((I0
I4
I4
I17
tp1087
(I0
I4
I4
I16
tp1088
tp1089
(lp1090
g6
ag7
as(g25
(I0
I6
I7
I10
tp1091
tp1092
(lp1093
g6
ag7
as((I0
I10
I11
I19
tp1094
(I0
I11
I11
I19
tp1095
tp1096
(lp1097
g12
ag6
as((I0
I13
I13
I18
tp1098
(I0
I13
I13
I17
tp1099
tp1100
(lp1101
g6
ag7
as((I0
I12
I12
I14
tp1102
(I0
I12
I13
I14
tp1103
tp1104
(lp1105
g12
ag6
as((I0
I20
I20
I21
tp1106
(I0
I20
I21
I21
tp1107
tp1108
(lp1109
g12
ag437
as((I0
I5
I5
I14
tp1110
(I0
I5
I6
I14
tp1111
tp1112
(lp1113
g12
ag6
as(g866
(I0
I3
I4
I10
tp1114
tp1115
(lp1116
g6
ag7
as(g615
(I0
I3
I3
I14
tp1117
tp1118
(lp1119
g6
ag7
as((I0
I2
I3
I6
tp1120
(I0
I2
I3
I5
tp1121
tp1122
(lp1123
g6
ag7
as((I0
I14
I15
I20
tp1124
(I0
I14
I15
I19
tp1125
tp1126
(lp1127
g6
ag7
as(g862
(I0
I18
I19
I21
tp1128
tp1129
(lp1130
g12
ag6
as(g1023
(I0
I2
I2
I16
tp1131
tp1132
(lp1133
g6
ag7
as((I0
I3
I4
I7
tp1134
(I0
I3
I4
I6
tp1135
tp1136
(lp1137
g6
ag7
as((I0
I5
I5
I11
tp1138
(I0
I5
I6
I11
tp1139
tp1140
(lp1141
g12
ag6
as(g934
(I0
I10
I11
I13
tp1142
tp1143
(lp1144
g12
ag6
as((I0
I2
I3
I17
tp1145
(I0
I2
I3
I16
tp1146
tp1147
(lp1148
g6
ag7
as(g905
(I0
I2
I2
I11
tp1149
tp1150
(lp1151
g6
ag7
as((I0
I6
I7
I15
tp1152
(I0
I7
I7
I15
tp1153
tp1154
(lp1155
g12
ag6
as((I0
I12
I13
I14
tp1156
(I0
I13
I13
I14
tp1157
tp1158
(lp1159
g12
ag6
as((I0
I10
I10
I19
tp1160
(I0
I10
I10
I18
tp1161
tp1162
(lp1163
g6
ag7
as((I0
I9
I10
I19
tp1164
(I0
I10
I10
I19
tp1165
tp1166
(lp1167
g12
ag6
as((I0
I11
I12
I16
tp1168
(I0
I12
I12
I16
tp1169
tp1170
(lp1171
g12
ag6
as((I0
I2
I2
I21
tp1172
(I0
I2
I2
I20
tp1173
tp1174
(lp1175
g6
ag437
as((I0
I3
I3
I18
tp1176
(I0
I3
I4
I18
tp1177
tp1178
(lp1179
g12
ag6
as((I0
I12
I12
I15
tp1180
(I0
I12
I12
I14
tp1181
tp1182
(lp1183
g6
ag7
as((I0
I2
I3
I15
tp1184
(I0
I2
I3
I14
tp1185
tp1186
(lp1187
g6
ag7
as(g1184
(I0
I3
I3
I15
tp1188
tp1189
(lp1190
g12
ag6
as((I0
I1
I1
I10
tp1191
(I0
I0
I1
I10
tp1192
tp1193
(lp1194
g12
ag223
as((I0
I4
I4
I19
tp1195
(I0
I4
I5
I19
tp1196
tp1197
(lp1198
g12
ag6
as((I0
I8
I9
I16
tp1199
(I0
I8
I9
I15
tp1200
tp1201
(lp1202
g6
ag7
as((I0
I3
I3
I10
tp1203
(I0
I3
I3
I9
tp1204
tp1205
(lp1206
g6
ag7
as(g316
(I0
I15
I16
I19
tp1207
tp1208
(lp1209
g12
ag6
as((I0
I19
I19
I21
tp1210
(I0
I19
I20
I21
tp1211
tp1212
(lp1213
g12
ag6
as((I0
I3
I4
I18
tp1214
(I0
I3
I4
I17
tp1215
tp1216
(lp1217
g6
ag7
as(g117
(I0
I7
I8
I18
tp1218
tp1219
(lp1220
g12
ag6
as((I0
I11
I12
I14
tp1221
(I0
I11
I12
I13
tp1222
tp1223
(lp1224
g6
ag7
as(g284
(I0
I14
I14
I16
tp1225
tp1226
(lp1227
g12
ag6
as((I0
I12
I13
I17
tp1228
(I0
I12
I13
I16
tp1229
tp1230
(lp1231
g6
ag7
as((I0
I4
I4
I6
tp1232
(I0
I4
I4
I5
tp1233
tp1234
(lp1235
g6
ag7
as((I0
I8
I9
I12
tp1236
(I0
I8
I9
I11
tp1237
tp1238
(lp1239
g6
ag7
as(g1145
(I0
I3
I3
I17
tp1240
tp1241
(lp1242
g12
ag6
as((I0
I6
I6
I21
tp1243
(I0
I6
I6
I20
tp1244
tp1245
(lp1246
g6
ag437
as(g499
(I0
I0
I1
I8
tp1247
tp1248
(lp1249
g12
ag223
as(g296
(I0
I6
I7
I18
tp1250
tp1251
(lp1252
g12
ag6
as((I0
I5
I5
I19
tp1253
(I0
I5
I5
I18
tp1254
tp1255
(lp1256
g6
ag7
as(g592
(I0
I9
I10
I13
tp1257
tp1258
(lp1259
g12
ag6
as(g758
(I0
I11
I12
I18
tp1260
tp1261
(lp1262
g12
ag6
as((I0
I2
I3
I8
tp1263
(I0
I2
I3
I7
tp1264
tp1265
(lp1266
g6
ag7
as((I0
I2
I3
I7
tp1267
(I0
I3
I3
I7
tp1268
tp1269
(lp1270
g12
ag6
as((I0
I10
I10
I17
tp1271
(I0
I10
I10
I16
tp1272
tp1273
(lp1274
g6
ag7
as((I0
I4
I4
I13
tp1275
(I0
I4
I5
I13
tp1276
tp1277
(lp1278
g12
ag6
as(g465
(I0
I14
I15
I16
tp1279
tp1280
(lp1281
g12
ag6
as(g511
(I0
I15
I16
I20
tp1282
tp1283
(lp1284
g6
ag437
as((I0
I5
I5
I9
tp1285
(I0
I5
I5
I8
tp1286
tp1287
(lp1288
g6
ag7
as(g133
(I0
I6
I7
I15
tp1289
tp1290
(lp1291
g12
ag6
as((I0
I3
I4
I10
tp1292
(I0
I4
I4
I10
tp1293
tp1294
(lp1295
g12
ag6
as((I0
I7
I8
I9
tp1296
(I0
I8
I8
I9
tp1297
tp1298
(lp1299
g12
ag6
as((I0
I1
I2
I19
tp1300
(I0
I1
I2
I18
tp1301
tp1302
(lp1303
g6
ag7
as((I0
I0
I1
I21
tp1304
(I0
I1
I1
I21
tp1305
tp1306
(lp1307
g12
ag223
as(g1138
(I0
I5
I5
I10
tp1308
tp1309
(lp1310
g6
ag7
as((I0
I5
I5
I13
tp1311
(I0
I5
I5
I12
tp1312
tp1313
(lp1314
g6
ag7
as(g41
(I0
I1
I2
I5
tp1315
tp1316
(lp1317
g445
ag6
as((I0
I11
I11
I19
tp1318
(I0
I11
I12
I19
tp1319
tp1320
(lp1321
g12
ag6
as(g93
(I0
I1
I2
I6
tp1322
tp1323
(lp1324
g6
ag7
as((I0
I7
I7
I11
tp1325
(I0
I7
I8
I11
tp1326
tp1327
(lp1328
g12
ag6
as(g377
(I0
I4
I4
I19
tp1329
tp1330
(lp1331
g6
ag7
as((I0
I1
I2
I18
tp1332
(I0
I1
I2
I17
tp1333
tp1334
(lp1335
g6
ag7
as(g680
(I0
I0
I1
I13
tp1336
tp1337
(lp1338
g12
ag223
as((I0
I5
I5
I16
tp1339
(I0
I5
I6
I16
tp1340
tp1341
(lp1342
g12
ag6
as(g673
(I0
I10
I10
I17
tp1343
tp1344
(lp1345
g6
ag7
as((I0
I1
I2
I4
tp1346
(I0
I1
I2
I3
tp1347
tp1348
(lp1349
g6
ag7
as(g354
(I0
I8
I8
I11
tp1350
tp1351
(lp1352
g6
ag7
as(g1339
(I0
I5
I5
I15
tp1353
tp1354
(lp1355
g6
ag7
as((I0
I12
I12
I21
tp1356
(I0
I12
I12
I20
tp1357
tp1358
(lp1359
g6
ag437
as((I0
I13
I13
I17
tp1360
(I0
I13
I14
I17
tp1361
tp1362
(lp1363
g12
ag6
as((I0
I9
I9
I19
tp1364
(I0
I9
I10
I19
tp1365
tp1366
(lp1367
g12
ag6
as(g57
(I0
I4
I5
I6
tp1368
tp1369
(lp1370
g6
ag7
as(g559
(I0
I14
I14
I21
tp1371
tp1372
(lp1373
g12
ag6
as(g449
(I0
I16
I17
I18
tp1374
tp1375
(lp1376
g12
ag6
as((I0
I17
I18
I19
tp1377
(I0
I18
I18
I19
tp1378
tp1379
(lp1380
g12
ag6
as((I0
I6
I7
I20
tp1381
(I0
I7
I7
I20
tp1382
tp1383
(lp1384
g12
ag6
as(g488
(I0
I1
I2
I15
tp1385
tp1386
(lp1387
g6
ag7
as(g1172
(I0
I2
I3
I21
tp1388
tp1389
(lp1390
g12
ag6
as((I0
I17
I17
I20
tp1391
(I0
I17
I17
I19
tp1392
tp1393
(lp1394
g6
ag7
as(g41
(I0
I0
I1
I5
tp1395
tp1396
(lp1397
g12
ag223
as((I0
I10
I10
I16
tp1398
(I0
I10
I10
I15
tp1399
tp1400
(lp1401
g6
ag7
as((I0
I2
I3
I19
tp1402
(I0
I2
I3
I18
tp1403
tp1404
(lp1405
g6
ag7
as(g1236
(I0
I9
I9
I12
tp1406
tp1407
(lp1408
g12
ag6
as(g61
(I0
I9
I9
I10
tp1409
tp1410
(lp1411
g6
ag7
as((I0
I1
I1
I21
tp1412
(I0
I1
I1
I20
tp1413
tp1414
(lp1415
g6
ag437
as(g1311
(I0
I5
I6
I13
tp1416
tp1417
(lp1418
g12
ag6
as(g401
(I0
I6
I6
I15
tp1419
tp1420
(lp1421
g12
ag6
as((I0
I4
I5
I21
tp1422
(I0
I5
I5
I21
tp1423
tp1424
(lp1425
g12
ag6
as((I0
I5
I5
I7
tp1426
(I0
I5
I5
I6
tp1427
tp1428
(lp1429
g6
ag7
as(g927
(I0
I14
I15
I17
tp1430
tp1431
(lp1432
g12
ag6
as((I0
I2
I2
I10
tp1433
(I0
I2
I2
I9
tp1434
tp1435
(lp1436
g6
ag7
as(g793
(I0
I9
I9
I20
tp1437
tp1438
(lp1439
g6
ag437
as((I0
I2
I3
I14
tp1440
(I0
I2
I3
I13
tp1441
tp1442
(lp1443
g6
ag7
as((I0
I5
I5
I12
tp1444
(I0
I5
I6
I12
tp1445
tp1446
(lp1447
g12
ag6
as((I0
I7
I7
I17
tp1448
(I0
I7
I8
I17
tp1449
tp1450
(lp1451
g12
ag6
as((I0
I9
I10
I17
tp1452
(I0
I9
I10
I16
tp1453
tp1454
(lp1455
g6
ag7
as(g949
(I0
I10
I11
I13
tp1456
tp1457
(lp1458
g6
ag7
as(g657
(I0
I7
I7
I19
tp1459
tp1460
(lp1461
g12
ag6
as(g312
(I0
I11
I12
I14
tp1462
tp1463
(lp1464
g12
ag6
as(g97
(I0
I11
I11
I18
tp1465
tp1466
(lp1467
g12
ag6
as((I0
I2
I2
I6
tp1468
(I0
I2
I3
I6
tp1469
tp1470
(lp1471
g12
ag6
as((I0
I6
I7
I9
tp1472
(I0
I7
I7
I9
tp1473
tp1474
(lp1475
g12
ag6
as(g280
(I0
I4
I5
I11
tp1476
tp1477
(lp1478
g6
ag7
as((I0
I1
I1
I14
tp1479
(I0
I1
I2
I14
tp1480
tp1481
(lp1482
g445
ag6
as((I0
I6
I7
I13
tp1483
(I0
I6
I7
I12
tp1484
tp1485
(lp1486
g6
ag7
as((I0
I3
I4
I9
tp1487
(I0
I4
I4
I9
tp1488
tp1489
(lp1490
g12
ag6
as((I0
I1
I1
I9
tp1491
(I0
I0
I1
I9
tp1492
tp1493
(lp1494
g12
ag223
as(g833
(I0
I5
I6
I10
tp1495
tp1496
(lp1497
g6
ag7
as((I0
I8
I8
I14
tp1498
(I0
I8
I9
I14
tp1499
tp1500
(lp1501
g12
ag6
as((I0
I7
I8
I13
tp1502
(I0
I8
I8
I13
tp1503
tp1504
(lp1505
g12
ag6
as((I0
I13
I14
I19
tp1506
(I0
I14
I14
I19
tp1507
tp1508
(lp1509
g12
ag6
as((I0
I1
I1
I17
tp1510
(I0
I0
I1
I17
tp1511
tp1512
(lp1513
g12
ag223
as(g350
(I0
I9
I9
I11
tp1514
tp1515
(lp1516
g6
ag7
as(g1412
(I0
I1
I2
I21
tp1517
tp1518
(lp1519
g445
ag6
as((I0
I8
I8
I11
tp1520
(I0
I8
I8
I10
tp1521
tp1522
(lp1523
g6
ag7
as((I0
I5
I6
I17
tp1524
(I0
I5
I6
I16
tp1525
tp1526
(lp1527
g6
ag7
as((I0
I5
I6
I12
tp1528
(I0
I5
I6
I11
tp1529
tp1530
(lp1531
g6
ag7
as(g1012
(I0
I4
I4
I15
tp1532
tp1533
(lp1534
g12
ag6
as(g1203
(I0
I3
I4
I10
tp1535
tp1536
(lp1537
g12
ag6
as(g1152
(I0
I6
I7
I14
tp1538
tp1539
(lp1540
g6
ag7
as(g457
(I0
I10
I11
I12
tp1541
tp1542
(lp1543
g6
ag7
as((I0
I16
I16
I21
tp1544
(I0
I16
I17
I21
tp1545
tp1546
(lp1547
g12
ag6
as(g29
(I0
I2
I3
I17
tp1548
tp1549
(lp1550
g6
ag7
as(g543
(I0
I10
I11
I15
tp1551
tp1552
(lp1553
g6
ag7
as(g1479
(I0
I0
I1
I14
tp1554
tp1555
(lp1556
g12
ag223
as(g1168
(I0
I11
I12
I15
tp1557
tp1558
(lp1559
g6
ag7
as(g970
(I0
I0
I1
I12
tp1560
tp1561
(lp1562
g12
ag223
as((I0
I19
I20
I21
tp1563
(I0
I20
I20
I21
tp1564
tp1565
(lp1566
g12
ag6
as(g1087
(I0
I4
I5
I17
tp1567
tp1568
(lp1569
g12
ag6
as((I0
I11
I11
I20
tp1570
(I0
I11
I11
I19
tp1571
tp1572
(lp1573
g6
ag7
as((I0
I7
I8
I14
tp1574
(I0
I8
I8
I14
tp1575
tp1576
(lp1577
g12
ag6
as((I0
I17
I18
I20
tp1578
(I0
I18
I18
I20
tp1579
tp1580
(lp1581
g12
ag6
as(g974
(I0
I16
I16
I20
tp1582
tp1583
(lp1584
g12
ag6
as((I0
I7
I7
I20
tp1585
(I0
I7
I7
I19
tp1586
tp1587
(lp1588
g6
ag7
as(g417
(I0
I7
I7
I17
tp1589
tp1590
(lp1591
g12
ag6
as(g1433
(I0
I2
I3
I10
tp1592
tp1593
(lp1594
g12
ag6
as((I0
I8
I8
I13
tp1595
(I0
I8
I8
I12
tp1596
tp1597
(lp1598
g6
ag7
as(g1448
(I0
I7
I7
I16
tp1599
tp1600
(lp1601
g6
ag7
as(g870
(I0
I3
I4
I17
tp1602
tp1603
(lp1604
g12
ag6
as(g1364
(I0
I9
I9
I18
tp1605
tp1606
(lp1607
g6
ag7
as(g244
(I0
I9
I9
I18
tp1608
tp1609
(lp1610
g12
ag6
as((I0
I8
I8
I20
tp1611
(I0
I8
I9
I20
tp1612
tp1613
(lp1614
g12
ag6
as((I0
I1
I2
I10
tp1615
(I0
I1
I2
I9
tp1616
tp1617
(lp1618
g6
ag7
as(g1199
(I0
I9
I9
I16
tp1619
tp1620
(lp1621
g12
ag6
as(g1160
(I0
I10
I11
I19
tp1622
tp1623
(lp1624
g12
ag6
as(g1267
(I0
I2
I3
I6
tp1625
tp1626
(lp1627
g6
ag7
as(g766
(I0
I11
I12
I21
tp1628
tp1629
(lp1630
g12
ag6
as(g292
(I0
I14
I15
I19
tp1631
tp1632
(lp1633
g12
ag6
as((I0
I3
I3
I13
tp1634
(I0
I3
I4
I13
tp1635
tp1636
(lp1637
g12
ag6
as(g1263
(I0
I3
I3
I8
tp1638
tp1639
(lp1640
g12
ag6
as(g630
(I0
I18
I18
I21
tp1641
tp1642
(lp1643
g12
ag6
as((I0
I7
I8
I20
tp1644
(I0
I8
I8
I20
tp1645
tp1646
(lp1647
g12
ag6
as(g1285
(I0
I5
I6
I9
tp1648
tp1649
(lp1650
g12
ag6
as((I0
I11
I12
I21
tp1651
(I0
I11
I12
I20
tp1652
tp1653
(lp1654
g6
ag437
as(g45
(I0
I1
I2
I7
tp1655
tp1656
(lp1657
g6
ag7
as(g1487
(I0
I3
I4
I8
tp1658
tp1659
(lp1660
g6
ag7
as(g1611
(I0
I8
I8
I19
tp1661
tp1662
(lp1663
g6
ag7
as(g1574
(I0
I7
I8
I13
tp1664
tp1665
(lp1666
g6
ag7
as(g1585
(I0
I7
I8
I20
tp1667
tp1668
(lp1669
g12
ag6
as(g1634
(I0
I3
I3
I12
tp1670
tp1671
(lp1672
g6
ag7
as(g555
(I0
I3
I4
I9
tp1673
tp1674
(lp1675
g12
ag6
as(g1068
(I0
I3
I3
I10
tp1676
tp1677
(lp1678
g12
ag6
as((I0
I7
I8
I17
tp1679
(I0
I8
I8
I17
tp1680
tp1681
(lp1682
g12
ag6
as((I0
I8
I8
I16
tp1683
(I0
I8
I8
I15
tp1684
tp1685
(lp1686
g6
ag7
as(g438
(I0
I3
I3
I5
tp1687
tp1688
(lp1689
g12
ag6
as((I0
I8
I8
I21
tp1690
(I0
I8
I8
I20
tp1691
tp1692
(lp1693
g6
ag437
as((I0
I12
I13
I20
tp1694
(I0
I12
I13
I19
tp1695
tp1696
(lp1697
g6
ag7
as((I0
I3
I3
I12
tp1698
(I0
I3
I4
I12
tp1699
tp1700
(lp1701
g12
ag6
as((I0
I7
I8
I16
tp1702
(I0
I8
I8
I16
tp1703
tp1704
(lp1705
g12
ag6
as(g473
(I0
I1
I1
I3
tp1706
tp1707
(lp1708
g6
ag7
as(g1079
(I0
I10
I10
I15
tp1709
tp1710
(lp1711
g12
ag6
as(g1055
(I0
I1
I2
I7
tp1712
tp1713
(lp1714
g445
ag6
as(g335
(I0
I0
I1
I16
tp1715
tp1716
(lp1717
g12
ag223
as(g1110
(I0
I5
I5
I13
tp1718
tp1719
(lp1720
g6
ag7
as(g397
(I0
I13
I13
I18
tp1721
tp1722
(lp1723
g6
ag7
as((I0
I11
I12
I15
tp1724
(I0
I11
I12
I14
tp1725
tp1726
(lp1727
g6
ag7
as((I0
I7
I8
I10
tp1728
(I0
I7
I8
I9
tp1729
tp1730
(lp1731
g6
ag7
as((I0
I15
I16
I18
tp1732
(I0
I16
I16
I18
tp1733
tp1734
(lp1735
g12
ag6
as(g1271
(I0
I10
I11
I17
tp1736
tp1737
(lp1738
g12
ag6
as((I0
I8
I9
I19
tp1739
(I0
I8
I9
I18
tp1740
tp1741
(lp1742
g6
ag7
as((I0
I13
I14
I18
tp1743
(I0
I14
I14
I18
tp1744
tp1745
(lp1746
g12
ag6
as(g224
(I0
I9
I9
I13
tp1747
tp1748
(lp1749
g6
ag7
as((I0
I14
I15
I17
tp1750
(I0
I15
I15
I17
tp1751
tp1752
(lp1753
g12
ag6
as(g1510
(I0
I1
I1
I16
tp1754
tp1755
(lp1756
g6
ag7
as((I0
I5
I5
I21
tp1757
(I0
I5
I5
I20
tp1758
tp1759
(lp1760
g6
ag437
as(g786
(I0
I9
I10
I19
tp1761
tp1762
(lp1763
g6
ag7
as((I0
I8
I9
I15
tp1764
(I0
I9
I9
I15
tp1765
tp1766
(lp1767
g12
ag6
as(g1651
(I0
I12
I12
I21
tp1768
tp1769
(lp1770
g12
ag6
as((I0
I2
I3
I21
tp1771
(I0
I2
I3
I20
tp1772
tp1773
(lp1774
g6
ag437
as(g252
(I0
I4
I4
I17
tp1775
tp1776
(lp1777
g12
ag6
as(g970
(I0
I1
I2
I12
tp1778
tp1779
(lp1780
g445
ag6
as(g778
(I0
I3
I4
I11
tp1781
tp1782
(lp1783
g6
ag7
as(g477
(I0
I17
I17
I20
tp1784
tp1785
(lp1786
g6
ag437
as((I0
I15
I16
I19
tp1787
(I0
I16
I16
I19
tp1788
tp1789
(lp1790
g12
ag6
as((I0
I2
I3
I11
tp1791
(I0
I2
I3
I10
tp1792
tp1793
(lp1794
g6
ag7
as(g228
(I0
I6
I6
I8
tp1795
tp1796
(lp1797
g6
ag7
as(g1180
(I0
I12
I13
I15
tp1798
tp1799
(lp1800
g12
ag6
as(g1402
(I0
I3
I3
I19
tp1801
tp1802
(lp1803
g12
ag6
as((I0
I9
I9
I18
tp1804
(I0
I9
I9
I17
tp1805
tp1806
(lp1807
g6
ag7
as(g175
(I0
I13
I14
I16
tp1808
tp1809
(lp1810
g6
ag7
as(g1528
(I0
I6
I6
I12
tp1811
tp1812
(lp1813
g12
ag6
as((I0
I3
I4
I16
tp1814
(I0
I3
I4
I15
tp1815
tp1816
(lp1817
g6
ag7
as(g187
(I0
I5
I5
I7
tp1818
tp1819
(lp1820
g6
ag7
as(g1787
(I0
I15
I16
I18
tp1821
tp1822
(lp1823
g6
ag7
as((I0
I7
I7
I13
tp1824
(I0
I7
I7
I12
tp1825
tp1826
(lp1827
g6
ag7
as(g469
(I0
I16
I17
I18
tp1828
tp1829
(lp1830
g6
ag7
as(g1134
(I0
I4
I4
I7
tp1831
tp1832
(lp1833
g12
ag6
as(g1679
(I0
I7
I8
I16
tp1834
tp1835
(lp1836
g6
ag7
as(g661
(I0
I8
I9
I15
tp1837
tp1838
(lp1839
g12
ag6
as(g1702
(I0
I7
I8
I15
tp1840
tp1841
(lp1842
g6
ag7
as(g797
(I0
I1
I1
I10
tp1843
tp1844
(lp1845
g6
ag7
as((I0
I6
I7
I14
tp1846
(I0
I7
I7
I14
tp1847
tp1848
(lp1849
g12
ag6
as(g665
(I0
I10
I11
I14
tp1850
tp1851
(lp1852
g12
ag6
as(g1016
(I0
I4
I4
I6
tp1853
tp1854
(lp1855
g6
ag7
as(g481
(I0
I7
I7
I16
tp1856
tp1857
(lp1858
g12
ag6
as(g1502
(I0
I7
I8
I12
tp1859
tp1860
(lp1861
g6
ag7
as((I0
I14
I14
I21
tp1862
(I0
I14
I15
I21
tp1863
tp1864
(lp1865
g12
ag6
as(g37
(I0
I1
I2
I13
tp1866
tp1867
(lp1868
g6
ag7
as((I0
I2
I2
I19
tp1869
(I0
I2
I2
I18
tp1870
tp1871
(lp1872
g6
ag7
as(g1698
(I0
I3
I3
I11
tp1873
tp1874
(lp1875
g6
ag7
as((I0
I15
I15
I20
tp1876
(I0
I15
I16
I20
tp1877
tp1878
(lp1879
g12
ag6
as(g1862
(I0
I14
I14
I20
tp1880
tp1881
(lp1882
g6
ag437
as((I0
I10
I10
I20
tp1883
(I0
I10
I11
I20
tp1884
tp1885
(lp1886
g12
ag6
as(g714
(I0
I9
I10
I11
tp1887
tp1888
(lp1889
g6
ag7
as((I0
I18
I19
I20
tp1890
(I0
I19
I19
I20
tp1891
tp1892
(lp1893
g12
ag6
as(g898
(I0
I12
I12
I16
tp1894
tp1895
(lp1896
g6
ag7
as((I0
I8
I9
I20
tp1897
(I0
I9
I9
I20
tp1898
tp1899
(lp1900
g12
ag6
as((I0
I7
I7
I9
tp1901
(I0
I7
I7
I8
tp1902
tp1903
(lp1904
g6
ag7
as((I0
I5
I5
I17
tp1905
(I0
I5
I6
I17
tp1906
tp1907
(lp1908
g12
ag6
as(g596
(I0
I13
I13
I15
tp1909
tp1910
(lp1911
g6
ag7
as((I0
I2
I3
I13
tp1912
(I0
I3
I3
I13
tp1913
tp1914
(lp1915
g12
ag6
as(g770
(I0
I6
I6
I13
tp1916
tp1917
(lp1918
g6
ag7
as((I0
I16
I16
I19
tp1919
(I0
I16
I16
I18
tp1920
tp1921
(lp1922
g6
ag7
as(g268
(I0
I13
I13
I19
tp1923
tp1924
(lp1925
g12
ag6
as(g1292
(I0
I3
I4
I9
tp1926
tp1927
(lp1928
g6
ag7
as(g276
(I0
I3
I4
I14
tp1929
tp1930
(lp1931
g12
ag6
as(g837
(I0
I8
I9
I12
tp1932
tp1933
(lp1934
g6
ag7
as(g1757
(I0
I5
I6
I21
tp1935
tp1936
(lp1937
g12
ag6
as(g1570
(I0
I11
I12
I20
tp1938
tp1939
(lp1940
g12
ag6
as(g547
(I0
I1
I1
I19
tp1941
tp1942
(lp1943
g6
ag7
as((I0
I5
I6
I16
tp1944
(I0
I6
I6
I16
tp1945
tp1946
(lp1947
g12
ag6
as((I0
I2
I3
I4
tp1948
(I0
I3
I3
I4
tp1949
tp1950
(lp1951
g12
ag6
as((I0
I14
I14
I18
tp1952
(I0
I14
I14
I17
tp1953
tp1954
(lp1955
g6
ag7
as(g1164
(I0
I9
I10
I18
tp1956
tp1957
(lp1958
g6
ag7
as(g1683
(I0
I8
I9
I16
tp1959
tp1960
(lp1961
g12
ag6
as(g684
(I0
I2
I2
I15
tp1962
tp1963
(lp1964
g6
ag7
as(g1690
(I0
I8
I9
I21
tp1965
tp1966
(lp1967
g12
ag6
as((I0
I9
I10
I18
tp1968
(I0
I10
I10
I18
tp1969
tp1970
(lp1971
g12
ag6
as(g499
(I0
I1
I1
I7
tp1972
tp1973
(lp1974
g6
ag7
as(g782
(I0
I6
I7
I12
tp1975
tp1976
(lp1977
g12
ag6
as((I0
I14
I15
I16
tp1978
(I0
I15
I15
I16
tp1979
tp1980
(lp1981
g12
ag6
as(g1491
(I0
I1
I1
I8
tp1982
tp1983
(lp1984
g6
ag7
as((I0
I4
I5
I15
tp1985
(I0
I4
I5
I14
tp1986
tp1987
(lp1988
g6
ag7
as((I0
I4
I5
I11
tp1989
(I0
I5
I5
I11
tp1990
tp1991
(lp1992
g12
ag6
as((I0
I6
I7
I8
tp1993
(I0
I7
I7
I8
tp1994
tp1995
(lp1996
g12
ag6
as(g1506
(I0
I13
I14
I18
tp1997
tp1998
(lp1999
g6
ag7
as(g1578
(I0
I17
I18
I19
tp2000
tp2001
(lp2002
g6
ag7
as(g101
(I0
I5
I6
I7
tp2003
tp2004
(lp2005
g6
ag7
as((I0
I1
I2
I13
tp2006
(I0
I1
I2
I12
tp2007
tp2008
(lp2009
g6
ag7
as(g1804
(I0
I9
I10
I18
tp2010
tp2011
(lp2012
g12
ag6
as(g1743
(I0
I13
I14
I17
tp2013
tp2014
(lp2015
g6
ag7
as(g680
(I0
I1
I1
I12
tp2016
tp2017
(lp2018
g6
ag7
as(g121
(I0
I1
I2
I10
tp2019
tp2020
(lp2021
g6
ag7
as(g1083
(I0
I4
I4
I11
tp2022
tp2023
(lp2024
g6
ag7
as(g1728
(I0
I8
I8
I10
tp2025
tp2026
(lp2027
g12
ag6
as((I0
I7
I7
I16
tp2028
(I0
I7
I7
I15
tp2029
tp2030
(lp2031
g6
ag7
as((I0
I12
I12
I18
tp2032
(I0
I12
I12
I17
tp2033
tp2034
(lp2035
g6
ag7
as(g718
(I0
I6
I7
I17
tp2036
tp2037
(lp2038
g6
ag7
as(g1253
(I0
I5
I6
I19
tp2039
tp2040
(lp2041
g12
ag6
as(g308
(I0
I18
I18
I19
tp2042
tp2043
(lp2044
g6
ag7
as(g847
(I0
I7
I8
I10
tp2045
tp2046
(lp2047
g6
ag7
as(g1824
(I0
I7
I8
I13
tp2048
tp2049
(lp2050
g12
ag6
as((I0
I3
I3
I6
tp2051
(I0
I3
I4
I6
tp2052
tp2053
(lp2054
g12
ag6
as(g165
(I0
I4
I5
I17
tp2055
tp2056
(lp2057
g6
ag7
as(g1764
(I0
I8
I9
I14
tp2058
tp2059
(lp2060
g6
ag7
as((I0
I11
I11
I16
tp2061
(I0
I11
I11
I15
tp2062
tp2063
(lp2064
g6
ag7
as(g33
(I0
I6
I7
I8
tp2065
tp2066
(lp2067
g12
ag6
as(g1210
(I0
I19
I19
I20
tp2068
tp2069
(lp2070
g6
ag437
as(g941
(I0
I5
I5
I17
tp2071
tp2072
(lp2073
g6
ag7
as(g1968
(I0
I9
I10
I17
tp2074
tp2075
(lp2076
g6
ag7
as(g519
(I0
I6
I7
I16
tp2077
tp2078
(lp2079
g12
ag6
as(g2028
(I0
I7
I8
I16
tp2080
tp2081
(lp2082
g12
ag6
as((I0
I11
I12
I13
tp2083
(I0
I12
I12
I13
tp2084
tp2085
(lp2086
g12
ag6
as((I0
I4
I4
I15
tp2087
(I0
I4
I5
I15
tp2088
tp2089
(lp2090
g12
ag6
as((I0
I7
I8
I19
tp2091
(I0
I7
I8
I18
tp2092
tp2093
(lp2094
g6
ag7
as(g1030
(I0
I7
I7
I18
tp2095
tp2096
(lp2097
g6
ag7
as(g73
(I0
I6
I7
I9
tp2098
tp2099
(lp2100
g6
ag7
as(g945
(I0
I7
I7
I20
tp2101
tp2102
(lp2103
g6
ag437
as(g1846
(I0
I6
I7
I13
tp2104
tp2105
(lp2106
g6
ag7
as(g358
(I0
I3
I3
I15
tp2107
tp2108
(lp2109
g6
ag7
as(g577
(I0
I2
I2
I10
tp2110
tp2111
(lp2112
g6
ag7
as(g1595
(I0
I8
I9
I13
tp2113
tp2114
(lp2115
g12
ag6
as(g858
(I0
I0
I1
I15
tp2116
tp2117
(lp2118
g12
ag223
as(g1232
(I0
I4
I5
I6
tp2119
tp2120
(lp2121
g12
ag6
as(g215
(I0
I16
I17
I20
tp2122
tp2123
(lp2124
g12
ag6
as(g1001
(I0
I2
I2
I7
tp2125
tp2126
(lp2127
g6
ag7
as(g425
(I0
I6
I6
I14
tp2128
tp2129
(lp2130
g12
ag6
as(g650
(I0
I4
I5
I12
tp2131
tp2132
(lp2133
g6
ag7
as(g858
(I0
I1
I1
I14
tp2134
tp2135
(lp2136
g6
ag7
as(g1391
(I0
I17
I18
I20
tp2137
tp2138
(lp2139
g12
ag6
as(g774
(I0
I10
I11
I20
tp2140
tp2141
(lp2142
g6
ag437
as(g1883
(I0
I10
I10
I19
tp2143
tp2144
(lp2145
g6
ag7
as((I0
I3
I4
I5
tp2146
(I0
I4
I4
I5
tp2147
tp2148
(lp2149
g12
ag6
as(g1176
(I0
I3
I3
I17
tp2150
tp2151
(lp2152
g6
ag7
as(g320
(I0
I1
I2
I14
tp2153
tp2154
(lp2155
g6
ag7
as(g797
(I0
I1
I2
I11
tp2156
tp2157
(lp2158
g445
ag6
as(g567
(I0
I6
I6
I19
tp2159
tp2160
(lp2161
g12
ag6
as(g539
(I0
I14
I14
I20
tp2162
tp2163
(lp2164
g12
ag6
as((I0
I1
I1
I2
tp2165
(I0
I0
I1
I2
tp2166
tp2167
(lp2168
g12
ag223
as(g1191
(I0
I1
I1
I9
tp2169
tp2170
(lp2171
g6
ag7
as((I0
I16
I17
I21
tp2172
(I0
I17
I17
I21
tp2173
tp2174
(lp2175
g12
ag6
as(g1120
(I0
I3
I3
I6
tp2176
tp2177
(lp2178
g12
ag6
as(g1221
(I0
I12
I12
I14
tp2179
tp2180
(lp2181
g12
ag6
as(g1724
(I0
I12
I12
I15
tp2182
tp2183
(lp2184
g12
ag6
as(g619
(I0
I2
I2
I3
tp2185
tp2186
(lp2187
g6
ag7
as(g1694
(I0
I13
I13
I20
tp2188
tp2189
(lp2190
g12
ag6
as((I0
I5
I6
I7
tp2191
(I0
I6
I6
I7
tp2192
tp2193
(lp2194
g12
ag6
as(g1381
(I0
I6
I7
I19
tp2195
tp2196
(lp2197
g6
ag7
as(g1520
(I0
I8
I9
I11
tp2198
tp2199
(lp2200
g12
ag6
as(g1102
(I0
I12
I12
I13
tp2201
tp2202
(lp2203
g6
ag7
as((I0
I2
I3
I16
tp2204
(I0
I3
I3
I16
tp2205
tp2206
(lp2207
g12
ag6
as(g1791
(I0
I3
I3
I11
tp2208
tp2209
(lp2210
g12
ag6
as((I0
I8
I8
I17
tp2211
(I0
I8
I9
I17
tp2212
tp2213
(lp2214
g12
ag6
as(g1876
(I0
I15
I15
I19
tp2215
tp2216
(lp2217
g6
ag7
as(g1912
(I0
I2
I3
I12
tp2218
tp2219
(lp2220
g6
ag7
as(g702
(I0
I1
I2
I6
tp2221
tp2222
(lp2223
g445
ag6
as(g1051
(I0
I6
I6
I20
tp2224
tp2225
(lp2226
g12
ag6
as(g2172
(I0
I16
I17
I20
tp2227
tp2228
(lp2229
g6
ag437
as((I0
I8
I9
I17
tp2230
(I0
I9
I9
I17
tp2231
tp2232
(lp2233
g12
ag6
as(g49
(I0
I9
I10
I15
tp2234
tp2235
(lp2236
g12
ag6
as((I0
I1
I2
I6
tp2237
(I0
I2
I2
I6
tp2238
tp2239
(lp2240
g12
ag6
as((I0
I13
I14
I15
tp2241
(I0
I14
I14
I15
tp2242
tp2243
(lp2244
g12
ag6
as(g145
(I0
I4
I4
I14
tp2245
tp2246
(lp2247
g12
ag6
as(g851
(I0
I5
I6
I20
tp2248
tp2249
(lp2250
g12
ag6
as(g1094
(I0
I10
I11
I18
tp2251
tp2252
(lp2253
g6
ag7
as(g2211
(I0
I8
I8
I16
tp2254
tp2255
(lp2256
g6
ag7
as(g884
(I0
I1
I1
I18
tp2257
tp2258
(lp2259
g6
ag7
as(g240
(I0
I12
I13
I16
tp2260
tp2261
(lp2262
g12
ag6
as(g1989
(I0
I4
I5
I10
tp2263
tp2264
(lp2265
g6
ag7
as(g503
(I0
I5
I5
I9
tp2266
tp2267
(lp2268
g12
ag6
as((I0
I4
I5
I16
tp2269
(I0
I5
I5
I16
tp2270
tp2271
(lp2272
g12
ag6
as(g149
(I0
I11
I11
I16
tp2273
tp2274
(lp2275
g6
ag7
as(g1869
(I0
I2
I3
I19
tp2276
tp2277
(lp2278
g12
ag6
as(g429
(I0
I5
I6
I10
tp2279
tp2280
(lp2281
g12
ag6
as(g1771
(I0
I3
I3
I21
tp2282
tp2283
(lp2284
g12
ag6
as(g669
(I0
I3
I4
I19
tp2285
tp2286
(lp2287
g6
ag7
as(g1346
(I0
I2
I2
I4
tp2288
tp2289
(lp2290
g12
ag6
as(g2051
(I0
I3
I3
I5
tp2291
tp2292
(lp2293
g6
ag7
as(g994
(I0
I1
I2
I4
tp2294
tp2295
(lp2296
g6
ag7
as((I0
I2
I2
I15
tp2297
(I0
I2
I3
I15
tp2298
tp2299
(lp2300
g12
ag6
as((I0
I3
I4
I13
tp2301
(I0
I3
I4
I12
tp2302
tp2303
(lp2304
g6
ag7
as(g335
(I0
I1
I2
I16
tp2305
tp2306
(lp2307
g445
ag6
as(g1124
(I0
I15
I15
I20
tp2308
tp2309
(lp2310
g12
ag6
as(g331
(I0
I3
I4
I7
tp2311
tp2312
(lp2313
g12
ag6
as(g1444
(I0
I5
I5
I11
tp2314
tp2315
(lp2316
g6
ag7
as((I0
I11
I12
I19
tp2317
(I0
I12
I12
I19
tp2318
tp2319
(lp2320
g12
ag6
as(g1544
(I0
I16
I16
I20
tp2321
tp2322
(lp2323
g6
ag437
as(g1228
(I0
I13
I13
I17
tp2324
tp2325
(lp2326
g12
ag6
as(g125
(I0
I13
I13
I14
tp2327
tp2328
(lp2329
g6
ag7
as(g1075
(I0
I11
I12
I16
tp2330
tp2331
(lp2332
g6
ag7
as((I0
I9
I10
I21
tp2333
(I0
I10
I10
I21
tp2334
tp2335
(lp2336
g12
ag6
as(g1732
(I0
I15
I16
I17
tp2337
tp2338
(lp2339
g6
ag7
as(g1426
(I0
I5
I6
I7
tp2340
tp2341
(lp2342
g12
ag6
as(g21
(I0
I2
I3
I9
tp2343
tp2344
(lp2345
g12
ag6
as(g1615
(I0
I2
I2
I10
tp2346
tp2347
(lp2348
g12
ag6
as(g1944
(I0
I5
I6
I15
tp2349
tp2350
(lp2351
g6
ag7
as(g1479
(I0
I1
I1
I13
tp2352
tp2353
(lp2354
g6
ag7
as(g1356
(I0
I12
I13
I21
tp2355
tp2356
(lp2357
g12
ag6
as(g2237
(I0
I1
I2
I5
tp2358
tp2359
(lp2360
g6
ag7
as(g381
(I0
I3
I3
I10
tp2361
tp2362
(lp2363
g6
ag7
as(g563
(I0
I4
I5
I18
tp2364
tp2365
(lp2366
g6
ag7
as(g634
(I0
I10
I10
I13
tp2367
tp2368
(lp2369
g12
ag6
as(g2269
(I0
I4
I5
I15
tp2370
tp2371
(lp2372
g6
ag7
as(g742
(I0
I7
I8
I15
tp2373
tp2374
(lp2375
g12
ag6
as(g1191
(I0
I1
I2
I10
tp2376
tp2377
(lp2378
g445
ag6
as(g581
(I0
I8
I8
I12
tp2379
tp2380
(lp2381
g12
ag6
as((I0
I2
I3
I12
tp2382
(I0
I3
I3
I12
tp2383
tp2384
(lp2385
g12
ag6
as(g236
(I0
I4
I4
I8
tp2386
tp2387
(lp2388
g12
ag6
as(g199
(I0
I14
I15
I20
tp2389
tp2390
(lp2391
g6
ag437
as(g1422
(I0
I4
I5
I20
tp2392
tp2393
(lp2394
g6
ag437
as(g2061
(I0
I11
I12
I16
tp2395
tp2396
(lp2397
g12
ag6
as((I0
I6
I6
I17
tp2398
(I0
I6
I6
I16
tp2399
tp2400
(lp2401
g6
ag7
as(g809
(I0
I4
I4
I8
tp2402
tp2403
(lp2404
g6
ag7
as(g264
(I0
I8
I9
I13
tp2405
tp2406
(lp2407
g6
ag7
as(g1214
(I0
I4
I4
I18
tp2408
tp2409
(lp2410
g12
ag6
as(g2091
(I0
I8
I8
I19
tp2411
tp2412
(lp2413
g12
ag6
as(g523
(I0
I2
I2
I17
tp2414
tp2415
(lp2416
g6
ag7
as(g1472
(I0
I6
I7
I8
tp2417
tp2418
(lp2419
g6
ag7
as(g473
(I0
I1
I2
I4
tp2420
tp2421
(lp2422
g445
ag6
as(g817
(I0
I2
I3
I14
tp2423
tp2424
(lp2425
g12
ag6
as(g710
(I0
I3
I3
I9
tp2426
tp2427
(lp2428
g12
ag6
as(g2
(I0
I3
I4
I8
tp2429
tp2430
(lp2431
g12
ag6
as(g421
(I0
I3
I4
I19
tp2432
tp2433
(lp2434
g12
ag6
as(g919
(I0
I11
I11
I14
tp2435
tp2436
(lp2437
g6
ag7
as(g1919
(I0
I16
I17
I19
tp2438
tp2439
(lp2440
g12
ag6
as(g8
(I0
I6
I7
I20
tp2441
tp2442
(lp2443
g6
ag437
as(g1440
(I0
I3
I3
I14
tp2444
tp2445
(lp2446
g12
ag6
as(g1750
(I0
I14
I15
I16
tp2447
tp2448
(lp2449
g6
ag7
as(g105
(I0
I4
I5
I14
tp2450
tp2451
(lp2452
g12
ag6
as(g453
(I0
I13
I13
I16
tp2453
tp2454
(lp2455
g12
ag6
as(g1300
(I0
I2
I2
I19
tp2456
tp2457
(lp2458
g12
ag6
as(g207
(I0
I9
I10
I13
tp2459
tp2460
(lp2461
g6
ag7
as(g1195
(I0
I4
I4
I18
tp2462
tp2463
(lp2464
g6
ag7
as(g1037
(I0
I7
I7
I11
tp2465
tp2466
(lp2467
g6
ag7
as(g1814
(I0
I4
I4
I16
tp2468
tp2469
(lp2470
g12
ag6
as(g409
(I0
I1
I2
I11
tp2471
tp2472
(lp2473
g6
ag7
as(g1468
(I0
I2
I2
I5
tp2474
tp2475
(lp2476
g6
ag7
as((I0
I10
I11
I15
tp2477
(I0
I10
I11
I14
tp2478
tp2479
(lp2480
g6
ag7
as(g1325
(I0
I7
I7
I10
tp2481
tp2482
(lp2483
g6
ag7
as(g1985
(I0
I5
I5
I15
tp2484
tp2485
(lp2486
g12
ag6
as(g894
(I0
I12
I13
I19
tp2487
tp2488
(lp2489
g12
ag6
as(g1510
(I0
I1
I2
I17
tp2490
tp2491
(lp2492
g445
ag6
as(g1483
(I0
I7
I7
I13
tp2493
tp2494
(lp2495
g12
ag6
as((I0
I2
I2
I5
tp2496
(I0
I2
I3
I5
tp2497
tp2498
(lp2499
g12
ag6
as(g600
(I0
I2
I3
I7
tp2500
tp2501
(lp2502
g12
ag6
as(g1644
(I0
I7
I8
I19
tp2503
tp2504
(lp2505
g6
ag7
as(g272
(I0
I6
I6
I10
tp2506
tp2507
(lp2508
g6
ag7
as(g1491
(I0
I1
I2
I9
tp2509
tp2510
(lp2511
g445
ag6
as(g1452
(I0
I10
I10
I17
tp2512
tp2513
(lp2514
g12
ag6
as(g2297
(I0
I2
I2
I14
tp2515
tp2516
(lp2517
g6
ag7
as(g2204
(I0
I2
I3
I15
tp2518
tp2519
(lp2520
g6
ag7
as(g2477
(I0
I11
I11
I15
tp2521
tp2522
(lp2523
g12
ag6
as(g248
(I0
I3
I3
I19
tp2524
tp2525
(lp2526
g6
ag7
as(g638
(I0
I10
I10
I16
tp2527
tp2528
(lp2529
g12
ag6
as(g874
(I0
I4
I4
I15
tp2530
tp2531
(lp2532
g6
ag7
as(g1952
(I0
I14
I15
I18
tp2533
tp2534
(lp2535
g12
ag6
as(g141
(I0
I4
I4
I9
tp2536
tp2537
(lp2538
g6
ag7
as(g1332
(I0
I2
I2
I18
tp2539
tp2540
(lp2541
g12
ag6
as(g535
(I0
I7
I8
I20
tp2542
tp2543
(lp2544
g6
ag437
as(g956
(I0
I15
I15
I17
tp2545
tp2546
(lp2547
g6
ag7
as(g405
(I0
I4
I5
I13
tp2548
tp2549
(lp2550
g6
ag7
as((I0
I4
I4
I8
tp2551
(I0
I4
I4
I7
tp2552
tp2553
(lp2554
g6
ag7
as(g987
(I0
I5
I6
I9
tp2555
tp2556
(lp2557
g6
ag7
as(g1905
(I0
I5
I5
I16
tp2558
tp2559
(lp2560
g6
ag7
as(g2317
(I0
I11
I12
I18
tp2561
tp2562
(lp2563
g6
ag7
as(g2333
(I0
I9
I10
I20
tp2564
tp2565
(lp2566
g6
ag437
as(g1739
(I0
I9
I9
I19
tp2567
tp2568
(lp2569
g12
ag6
as(g362
(I0
I11
I12
I17
tp2570
tp2571
(lp2572
g6
ag7
as(g746
(I0
I19
I19
I21
tp2573
tp2574
(lp2575
g12
ag6
as(g585
(I0
I12
I13
I20
tp2576
tp2577
(lp2578
g12
ag6
as(g1398
(I0
I10
I11
I16
tp2579
tp2580
(lp2581
g12
ag6
as(g2382
(I0
I2
I3
I11
tp2582
tp2583
(lp2584
g6
ag7
as(g1275
(I0
I4
I4
I12
tp2585
tp2586
(lp2587
g6
ag7
as(g288
(I0
I1
I2
I18
tp2588
tp2589
(lp2590
g445
ag6
as(g389
(I0
I6
I6
I9
tp2591
tp2592
(lp2593
g12
ag6
as(g2301
(I0
I4
I4
I13
tp2594
tp2595
(lp2596
g12
ag6
as(g2032
(I0
I12
I13
I18
tp2597
tp2598
(lp2599
g12
ag6
as(g2230
(I0
I8
I9
I16
tp2600
tp2601
(lp2602
g6
ag7
as(g2006
(I0
I2
I2
I13
tp2603
tp2604
(lp2605
g12
ag6
as(g161
(I0
I4
I4
I20
tp2606
tp2607
(lp2608
g6
ag437
as(g1044
(I0
I9
I10
I17
tp2609
tp2610
(lp2611
g12
ag6
as(g801
(I0
I6
I6
I21
tp2612
tp2613
(lp2614
g12
ag6
as(g706
(I0
I8
I9
I18
tp2615
tp2616
(lp2617
g12
ag6
as(g1897
(I0
I8
I9
I19
tp2618
tp2619
(lp2620
g6
ag7
as(g2551
(I0
I4
I5
I8
tp2621
tp2622
(lp2623
g12
ag6
as(g1005
(I0
I7
I8
I14
tp2624
tp2625
(lp2626
g12
ag6
as(g1243
(I0
I6
I7
I21
tp2627
tp2628
(lp2629
g12
ag6
as(g1901
(I0
I7
I8
I9
tp2630
tp2631
(lp2632
g12
ag6
as(g2398
(I0
I6
I7
I17
tp2633
tp2634
(lp2635
g12
ag6
as(g1098
(I0
I13
I14
I18
tp2636
tp2637
(lp2638
g12
ag6
as(g109
(I0
I14
I15
I18
tp2639
tp2640
(lp2641
g6
ag7
as(g2087
(I0
I4
I4
I14
tp2642
tp2643
(lp2644
g6
ag7
as(g1498
(I0
I8
I8
I13
tp2645
tp2646
(lp2647
g6
ag7
as(g923
(I0
I12
I12
I20
tp2648
tp2649
(lp2650
g12
ag6
as(g81
(I0
I9
I9
I11
tp2651
tp2652
(lp2653
g12
ag6
as(g698
(I0
I2
I2
I17
tp2654
tp2655
(lp2656
g12
ag6
as(g2496
(I0
I2
I2
I4
tp2657
tp2658
(lp2659
g6
ag7
as(g1360
(I0
I13
I13
I16
tp2660
tp2661
(lp2662
g6
ag7
as(g762
(I0
I9
I9
I21
tp2663
tp2664
(lp2665
g12
ag6
as(g813
(I0
I6
I6
I9
tp2666
tp2667
(lp2668
g6
ag7
as(g1055
(I0
I0
I1
I7
tp2669
tp2670
(lp2671
g12
ag223
as(g113
(I0
I8
I8
I18
tp2672
tp2673
(lp2674
g12
ag6
as(g1318
(I0
I11
I11
I18
tp2675
tp2676
(lp2677
g6
ag7
as(g1524
(I0
I6
I6
I17
tp2678
tp2679
(lp2680
g12
ag6
as.