(lp1
(I0
I17
I18
I29
tp2
a(I0
I16
I18
I29
tp3
a(I0
I17
I17
I29
tp4
a(I0
I17
I19
I29
tp5
a(I0
I15
I18
I29
tp6
a(I0
I16
I17
I29
tp7
a(I0
I16
I19
I29
tp8
a(I0
I17
I20
I29
tp9
a(I0
I14
I18
I29
tp10
a(I0
I15
I17
I29
tp11
a(I0
I15
I19
I29
tp12
a(I0
I16
I20
I29
tp13
a(I0
I17
I21
I29
tp14
a(I0
I13
I18
I29
tp15
a(I0
I14
I17
I29
tp16
a(I0
I14
I19
I29
tp17
a(I0
I15
I20
I29
tp18
a(I0
I16
I21
I29
tp19
a(I0
I17
I22
I29
tp20
a(I0
I12
I18
I29
tp21
a(I0
I13
I17
I29
tp22
a(I0
I13
I19
I29
tp23
a(I0
I14
I20
I29
tp24
a(I0
I15
I21
I29
tp25
a(I0
I16
I22
I29
tp26
a(I0
I17
I23
I29
tp27
a(I0
I11
I18
I29
tp28
a(I0
I12
I17
I29
tp29
a(I0
I12
I19
I29
tp30
a(I0
I13
I20
I29
tp31
a(I0
I14
I21
I29
tp32
a(I0
I15
I22
I29
tp33
a(I0
I16
I23
I29
tp34
a(I0
I17
I24
I29
tp35
a(I0
I10
I18
I29
tp36
a(I0
I11
I17
I29
tp37
a(I0
I11
I19
I29
tp38
a(I0
I12
I20
I29
tp39
a(I0
I13
I21
I29
tp40
a(I0
I14
I22
I29
tp41
a(I0
I15
I23
I29
tp42
a(I0
I16
I24
I29
tp43
a(I0
I17
I25
I29
tp44
a(I0
I9
I18
I29
tp45
a(I0
I10
I17
I29
tp46
a(I0
I10
I19
I29
tp47
a(I0
I11
I20
I29
tp48
a(I0
I12
I21
I29
tp49
a(I0
I13
I22
I29
tp50
a(I0
I14
I23
I29
tp51
a(I0
I15
I24
I29
tp52
a(I0
I16
I25
I29
tp53
a(I0
I17
I26
I29
tp54
a(I0
I8
I18
I29
tp55
a(I0
I9
I17
I29
tp56
a(I0
I9
I19
I29
tp57
a(I0
I10
I20
I29
tp58
a(I0
I11
I21
I29
tp59
a(I0
I12
I22
I29
tp60
a(I0
I13
I23
I29
tp61
a(I0
I14
I24
I29
tp62
a(I0
I15
I25
I29
tp63
a(I0
I16
I26
I29
tp64
a(I0
I17
I27
I29
tp65
a(I0
I7
I18
I29
tp66
a(I0
I8
I17
I29
tp67
a(I0
I8
I19
I29
tp68
a(I0
I9
I20
I29
tp69
a(I0
I10
I21
I29
tp70
a(I0
I11
I22
I29
tp71
a(I0
I12
I23
I29
tp72
a(I0
I13
I24
I29
tp73
a(I0
I14
I25
I29
tp74
a(I0
I15
I26
I29
tp75
a(I0
I16
I27
I29
tp76
a(I0
I17
I28
I29
tp77
a(I0
I6
I18
I29
tp78
a(I0
I7
I17
I29
tp79
a(I0
I7
I19
I29
tp80
a(I0
I8
I20
I29
tp81
a(I0
I9
I21
I29
tp82
a(I0
I10
I22
I29
tp83
a(I0
I11
I23
I29
tp84
a(I0
I12
I24
I29
tp85
a(I0
I13
I25
I29
tp86
a(I0
I14
I26
I29
tp87
a(I0
I15
I27
I29
tp88
a(I0
I16
I28
I29
tp89
a(I0
I5
I18
I29
tp90
a(I0
I6
I17
I29
tp91
a(I0
I6
I19
I29
tp92
a(I0
I7
I20
I29
tp93
a(I0
I8
I21
I29
tp94
a(I0
I9
I22
I29
tp95
a(I0
I10
I23
I29
tp96
a(I0
I11
I24
I29
tp97
a(I0
I12
I25
I29
tp98
a(I0
I13
I26
I29
tp99
a(I0
I14
I27
I29
tp100
a(I0
I15
I28
I29
tp101
a(I0
I4
I18
I29
tp102
a(I0
I5
I17
I29
tp103
a(I0
I5
I19
I29
tp104
a(I0
I6
I20
I29
tp105
a(I0
I7
I21
I29
tp106
a(I0
I8
I22
I29
tp107
a(I0
I9
I23
I29
tp108
a(I0
I10
I24
I29
tp109
a(I0
I11
I25
I29
tp110
a(I0
I12
I26
I29
tp111
a(I0
I13
I27
I29
tp112
a(I0
I14
I28
I29
tp113
a(I0
I3
I18
I29
tp114
a(I0
I4
I17
I29
tp115
a(I0
I4
I19
I29
tp116
a(I0
I5
I20
I29
tp117
a(I0
I6
I21
I29
tp118
a(I0
I7
I22
I29
tp119
a(I0
I8
I23
I29
tp120
a(I0
I9
I24
I29
tp121
a(I0
I10
I25
I29
tp122
a(I0
I11
I26
I29
tp123
a(I0
I12
I27
I29
tp124
a(I0
I13
I28
I29
tp125
a(I0
I2
I18
I29
tp126
a(I0
I3
I17
I29
tp127
a(I0
I3
I19
I29
tp128
a(I0
I4
I20
I29
tp129
a(I0
I5
I21
I29
tp130
a(I0
I6
I22
I29
tp131
a(I0
I7
I23
I29
tp132
a(I0
I8
I24
I29
tp133
a(I0
I9
I25
I29
tp134
a(I0
I10
I26
I29
tp135
a(I0
I11
I27
I29
tp136
a(I0
I12
I28
I29
tp137
a(I0
I1
I18
I29
tp138
a(I0
I2
I17
I29
tp139
a(I0
I2
I19
I29
tp140
a(I0
I3
I20
I29
tp141
a(I0
I4
I21
I29
tp142
a(I0
I5
I22
I29
tp143
a(I0
I6
I23
I29
tp144
a(I0
I7
I24
I29
tp145
a(I0
I8
I25
I29
tp146
a(I0
I9
I26
I29
tp147
a(I0
I10
I27
I29
tp148
a(I0
I11
I28
I29
tp149
a(I0
I1
I17
I29
tp150
a(I0
I1
I19
I29
tp151
a(I0
I2
I20
I29
tp152
a(I0
I3
I21
I29
tp153
a(I0
I4
I22
I29
tp154
a(I0
I5
I23
I29
tp155
a(I0
I6
I24
I29
tp156
a(I0
I7
I25
I29
tp157
a(I0
I8
I26
I29
tp158
a(I0
I9
I27
I29
tp159
a(I0
I10
I28
I29
tp160
a(I0
I1
I20
I29
tp161
a(I0
I2
I21
I29
tp162
a(I0
I3
I22
I29
tp163
a(I0
I4
I23
I29
tp164
a(I0
I5
I24
I29
tp165
a(I0
I6
I25
I29
tp166
a(I0
I7
I26
I29
tp167
a(I0
I8
I27
I29
tp168
a(I0
I9
I28
I29
tp169
a(I0
I1
I21
I29
tp170
a(I0
I2
I22
I29
tp171
a(I0
I3
I23
I29
tp172
a(I0
I4
I24
I29
tp173
a(I0
I5
I25
I29
tp174
a(I0
I6
I26
I29
tp175
a(I0
I7
I27
I29
tp176
a(I0
I8
I28
I29
tp177
a(I0
I1
I22
I29
tp178
a(I0
I2
I23
I29
tp179
a(I0
I3
I24
I29
tp180
a(I0
I4
I25
I29
tp181
a(I0
I5
I26
I29
tp182
a(I0
I6
I27
I29
tp183
a(I0
I7
I28
I29
tp184
a(I0
I1
I23
I29
tp185
a(I0
I2
I24
I29
tp186
a(I0
I3
I25
I29
tp187
a(I0
I4
I26
I29
tp188
a(I0
I5
I27
I29
tp189
a(I0
I6
I28
I29
tp190
a(I0
I1
I24
I29
tp191
a(I0
I2
I25
I29
tp192
a(I0
I3
I26
I29
tp193
a(I0
I4
I27
I29
tp194
a(I0
I5
I28
I29
tp195
a(I0
I1
I25
I29
tp196
a(I0
I2
I26
I29
tp197
a(I0
I3
I27
I29
tp198
a(I0
I4
I28
I29
tp199
a(I0
I1
I26
I29
tp200
a(I0
I2
I27
I29
tp201
a(I0
I3
I28
I29
tp202
a(I0
I1
I27
I29
tp203
a(I0
I2
I28
I29
tp204
a(I0
I1
I28
I29
tp205
a.