(dp1
((I1
I5
tp2
(I0
I5
tp3
tp4
(lp5
S'end'
p6
aS'stack'
p7
as((I2
I5
tp8
(I1
I5
tp9
tp10
(lp11
S'loop'
p12
ag7
as((I2
I4
tp13
(I1
I4
tp14
tp15
(lp16
g12
ag7
as(g13
(I2
I5
tp17
tp18
(lp19
g7
ag12
as((I0
I4
tp20
(I0
I5
tp21
tp22
(lp23
g7
ag12
as((I1
I4
tp24
(I1
I5
tp25
tp26
(lp27
g7
ag12
as((I0
I0
tp28
(I1
I2
tp29
tp30
(lp31
g12
ag12
as((I0
I2
tp32
(I0
I3
tp33
tp34
(lp35
g7
ag12
as(g28
(I2
I3
tp36
tp37
(lp38
g12
ag12
as((I2
I3
tp39
(I2
I4
tp40
tp41
(lp42
g7
ag12
as((I1
I2
tp43
(I1
I3
tp44
tp45
(lp46
g7
ag12
as(g43
(I0
I2
tp47
tp48
(lp49
g6
ag7
as(g39
(I1
I3
tp50
tp51
(lp52
g12
ag7
as((I3
I4
tp53
(I2
I4
tp54
tp55
(lp56
g12
ag7
as((I3
I5
tp57
(I2
I5
tp58
tp59
(lp60
g12
ag7
as((I1
I3
tp61
(I0
I3
tp62
tp63
(lp64
g6
ag7
as(g24
(I0
I4
tp65
tp66
(lp67
g6
ag7
as(g61
(I1
I4
tp68
tp69
(lp70
g7
ag12
as(g53
(I3
I5
tp71
tp72
(lp73
g7
ag12
as(g28
(I0
I1
tp74
tp75
(lp76
g6
ag12
as((I4
I5
tp77
(I3
I5
tp78
tp79
(lp80
g12
ag7
as(g28
(I4
I5
tp81
tp82
(lp83
g12
ag12
as((I0
I3
tp84
(I0
I4
tp85
tp86
(lp87
g7
ag12
as(g28
(I3
I4
tp88
tp89
(lp90
g12
ag12
as((I0
I1
tp91
(I0
I2
tp92
tp93
(lp94
g7
ag12
as.