(lp1
(I0
I10
tp2
a(I1
I10
tp3
a(I0
I9
tp4
a(I2
I10
tp5
a(I1
I9
tp6
a(I0
I8
tp7
a(I3
I10
tp8
a(I2
I9
tp9
a(I1
I8
tp10
a(I0
I7
tp11
a(I4
I10
tp12
a(I3
I9
tp13
a(I2
I8
tp14
a(I1
I7
tp15
a(I0
I6
tp16
a(I5
I10
tp17
a(I4
I9
tp18
a(I3
I8
tp19
a(I2
I7
tp20
a(I1
I6
tp21
a(I0
I5
tp22
a(I6
I10
tp23
a(I5
I9
tp24
a(I4
I8
tp25
a(I3
I7
tp26
a(I2
I6
tp27
a(I1
I5
tp28
a(I0
I4
tp29
a(I7
I10
tp30
a(I6
I9
tp31
a(I5
I8
tp32
a(I4
I7
tp33
a(I3
I6
tp34
a(I2
I5
tp35
a(I1
I4
tp36
a(I0
I3
tp37
a(I8
I10
tp38
a(I7
I9
tp39
a(I6
I8
tp40
a(I5
I7
tp41
a(I4
I6
tp42
a(I3
I5
tp43
a(I2
I4
tp44
a(I1
I3
tp45
a(I0
I2
tp46
a(I9
I10
tp47
a(I8
I9
tp48
a(I7
I8
tp49
a(I6
I7
tp50
a(I5
I6
tp51
a(I4
I5
tp52
a(I3
I4
tp53
a(I2
I3
tp54
a(I1
I2
tp55
a(I0
I1
tp56
a(I0
I0
tp57
a.