(lp1
(I0
I20
tp2
a(I1
I20
tp3
a(I0
I19
tp4
a(I2
I20
tp5
a(I1
I19
tp6
a(I0
I18
tp7
a(I3
I20
tp8
a(I2
I19
tp9
a(I1
I18
tp10
a(I0
I17
tp11
a(I4
I20
tp12
a(I3
I19
tp13
a(I2
I18
tp14
a(I1
I17
tp15
a(I0
I16
tp16
a(I5
I20
tp17
a(I4
I19
tp18
a(I3
I18
tp19
a(I2
I17
tp20
a(I1
I16
tp21
a(I0
I15
tp22
a(I6
I20
tp23
a(I5
I19
tp24
a(I4
I18
tp25
a(I3
I17
tp26
a(I2
I16
tp27
a(I1
I15
tp28
a(I0
I14
tp29
a(I7
I20
tp30
a(I6
I19
tp31
a(I5
I18
tp32
a(I4
I17
tp33
a(I3
I16
tp34
a(I2
I15
tp35
a(I1
I14
tp36
a(I0
I13
tp37
a(I8
I20
tp38
a(I7
I19
tp39
a(I6
I18
tp40
a(I5
I17
tp41
a(I4
I16
tp42
a(I3
I15
tp43
a(I2
I14
tp44
a(I1
I13
tp45
a(I0
I12
tp46
a(I9
I20
tp47
a(I8
I19
tp48
a(I7
I18
tp49
a(I6
I17
tp50
a(I5
I16
tp51
a(I4
I15
tp52
a(I3
I14
tp53
a(I2
I13
tp54
a(I1
I12
tp55
a(I0
I11
tp56
a(I10
I20
tp57
a(I9
I19
tp58
a(I8
I18
tp59
a(I7
I17
tp60
a(I6
I16
tp61
a(I5
I15
tp62
a(I4
I14
tp63
a(I3
I13
tp64
a(I2
I12
tp65
a(I1
I11
tp66
a(I0
I10
tp67
a(I11
I20
tp68
a(I10
I19
tp69
a(I9
I18
tp70
a(I8
I17
tp71
a(I7
I16
tp72
a(I6
I15
tp73
a(I5
I14
tp74
a(I4
I13
tp75
a(I3
I12
tp76
a(I2
I11
tp77
a(I1
I10
tp78
a(I0
I9
tp79
a(I12
I20
tp80
a(I11
I19
tp81
a(I10
I18
tp82
a(I9
I17
tp83
a(I8
I16
tp84
a(I7
I15
tp85
a(I6
I14
tp86
a(I5
I13
tp87
a(I4
I12
tp88
a(I3
I11
tp89
a(I2
I10
tp90
a(I1
I9
tp91
a(I0
I8
tp92
a(I13
I20
tp93
a(I12
I19
tp94
a(I11
I18
tp95
a(I10
I17
tp96
a(I9
I16
tp97
a(I8
I15
tp98
a(I7
I14
tp99
a(I6
I13
tp100
a(I5
I12
tp101
a(I4
I11
tp102
a(I3
I10
tp103
a(I2
I9
tp104
a(I1
I8
tp105
a(I0
I7
tp106
a(I14
I20
tp107
a(I13
I19
tp108
a(I12
I18
tp109
a(I11
I17
tp110
a(I10
I16
tp111
a(I9
I15
tp112
a(I8
I14
tp113
a(I7
I13
tp114
a(I6
I12
tp115
a(I5
I11
tp116
a(I4
I10
tp117
a(I3
I9
tp118
a(I2
I8
tp119
a(I1
I7
tp120
a(I0
I6
tp121
a(I15
I20
tp122
a(I14
I19
tp123
a(I13
I18
tp124
a(I12
I17
tp125
a(I11
I16
tp126
a(I10
I15
tp127
a(I9
I14
tp128
a(I8
I13
tp129
a(I7
I12
tp130
a(I6
I11
tp131
a(I5
I10
tp132
a(I4
I9
tp133
a(I3
I8
tp134
a(I2
I7
tp135
a(I1
I6
tp136
a(I0
I5
tp137
a(I16
I20
tp138
a(I15
I19
tp139
a(I14
I18
tp140
a(I13
I17
tp141
a(I12
I16
tp142
a(I11
I15
tp143
a(I10
I14
tp144
a(I9
I13
tp145
a(I8
I12
tp146
a(I7
I11
tp147
a(I6
I10
tp148
a(I5
I9
tp149
a(I4
I8
tp150
a(I3
I7
tp151
a(I2
I6
tp152
a(I1
I5
tp153
a(I0
I4
tp154
a(I17
I20
tp155
a(I16
I19
tp156
a(I15
I18
tp157
a(I14
I17
tp158
a(I13
I16
tp159
a(I12
I15
tp160
a(I11
I14
tp161
a(I10
I13
tp162
a(I9
I12
tp163
a(I8
I11
tp164
a(I7
I10
tp165
a(I6
I9
tp166
a(I5
I8
tp167
a(I4
I7
tp168
a(I3
I6
tp169
a(I2
I5
tp170
a(I1
I4
tp171
a(I0
I3
tp172
a(I18
I20
tp173
a(I17
I19
tp174
a(I16
I18
tp175
a(I15
I17
tp176
a(I14
I16
tp177
a(I13
I15
tp178
a(I12
I14
tp179
a(I11
I13
tp180
a(I10
I12
tp181
a(I9
I11
tp182
a(I8
I10
tp183
a(I7
I9
tp184
a(I6
I8
tp185
a(I5
I7
tp186
a(I4
I6
tp187
a(I3
I5
tp188
a(I2
I4
tp189
a(I1
I3
tp190
a(I0
I2
tp191
a(I19
I20
tp192
a(I18
I19
tp193
a(I17
I18
tp194
a(I16
I17
tp195
a(I15
I16
tp196
a(I14
I15
tp197
a(I13
I14
tp198
a(I12
I13
tp199
a(I11
I12
tp200
a(I10
I11
tp201
a(I9
I10
tp202
a(I8
I9
tp203
a(I7
I8
tp204
a(I6
I7
tp205
a(I5
I6
tp206
a(I4
I5
tp207
a(I3
I4
tp208
a(I2
I3
tp209
a(I1
I2
tp210
a(I0
I1
tp211
a(I0
I0
tp212
a.