(dp1
(I6
I9
tp2
I71
s(I7
I12
tp3
I47
s(I0
I7
tp4
I35
s(I1
I6
tp5
I53
s(I0
I10
tp6
I14
s(I3
I7
tp7
I62
s(I2
I5
tp8
I75
s(I1
I11
tp9
I13
s(I5
I8
tp10
I72
s(I6
I7
tp11
I98
s(I6
I10
tp12
I59
s(I0
I4
tp13
I65
s(I4
I10
tp14
I40
s(I2
I6
tp15
I63
s(I9
I14
tp16
I45
s(I5
I11
tp17
I39
s(I4
I5
tp18
I100
s(I10
I13
tp19
I67
s(I0
I1
tp20
I104
s(I3
I12
tp21
I17
s(I1
I12
tp22
I8
s(I8
I12
tp23
I57
s(I2
I11
tp24
I18
s(I5
I14
tp25
I15
s(I10
I14
tp26
I55
s(I6
I13
tp27
I29
s(I7
I8
tp28
I97
s(I0
I14
tp29
I0
s(I3
I11
tp30
I24
s(I8
I9
tp31
I96
s(I4
I12
tp32
I23
s(I2
I12
tp33
I12
s(I6
I14
tp34
I21
s(I12
I13
tp35
I92
s(I1
I5
tp36
I64
s(I0
I11
tp37
I9
s(I3
I6
tp38
I74
s(I1
I10
tp39
I19
s(I6
I11
tp40
I48
s(I0
I5
tp41
I54
s(I0
I8
tp42
I27
s(I4
I11
tp43
I31
s(I3
I5
tp44
I87
s(I2
I7
tp45
I52
s(I9
I13
tp46
I56
s(I5
I10
tp47
I49
s(I4
I6
tp48
I86
s(I5
I7
tp49
I85
s(I0
I2
tp50
I90
s(I1
I3
tp51
I89
s(I8
I13
tp52
I46
s(I4
I8
tp53
I61
s(I2
I8
tp54
I42
s(I5
I13
tp55
I22
s(I11
I14
tp56
I66
s(I7
I11
tp57
I58
s(I3
I10
tp58
I32
s(I1
I14
tp59
I1
s(I8
I10
tp60
I82
s(I4
I13
tp61
I16
s(I2
I13
tp62
I7
s(I9
I11
tp63
I81
s(I11
I13
tp64
I79
s(I7
I14
tp65
I28
s(I12
I14
tp66
I78
s(I1
I4
tp67
I76
s(I0
I12
tp68
I5
s(I3
I9
tp69
I41
s(I2
I3
tp70
I102
s(I1
I9
tp71
I26
s(I2
I14
tp72
I3
s(I6
I8
tp73
I84
s(I7
I13
tp74
I37
s(I0
I6
tp75
I44
s(I1
I7
tp76
I43
s(I0
I9
tp77
I20
s(I3
I4
tp78
I101
s(I2
I4
tp79
I88
s(I9
I12
tp80
I68
s(I5
I9
tp81
I60
s(I4
I7
tp82
I73
s(I10
I11
tp83
I94
s(I5
I6
tp84
I99
s(I0
I3
tp85
I77
s(I3
I14
tp86
I6
s(I1
I2
tp87
I103
s(I8
I14
tp88
I36
s(I4
I9
tp89
I50
s(I2
I9
tp90
I33
s(I5
I12
tp91
I30
s(I10
I12
tp92
I80
s(I7
I10
tp93
I70
s(I0
I0
tp94
I105
s(I3
I13
tp95
I11
s(I1
I13
tp96
I4
s(I8
I11
tp97
I69
s(I4
I14
tp98
I10
s(I2
I10
tp99
I25
s(I9
I10
tp100
I95
s(I6
I12
tp101
I38
s(I11
I12
tp102
I93
s(I7
I9
tp103
I83
s(I13
I14
tp104
I91
s(I0
I13
tp105
I2
s(I3
I8
tp106
I51
s(I1
I8
tp107
I34
s.