(dp1
(I5
I9
tp2
I39
s(I6
I9
tp3
I48
s(I1
I3
tp4
I64
s(I1
I4
tp5
I53
s(I4
I6
tp6
I61
s(I4
I8
tp7
I40
s(I7
I12
tp8
I28
s(I2
I8
tp9
I25
s(I3
I11
tp10
I11
s(I0
I7
tp11
I20
s(I8
I10
tp12
I57
s(I8
I9
tp13
I69
s(I6
I7
tp14
I71
s(I4
I12
tp15
I10
s(I1
I6
tp16
I34
s(I0
I10
tp17
I5
s(I2
I10
tp18
I12
s(I3
I7
tp19
I41
s(I7
I11
tp20
I37
s(I2
I5
tp21
I52
s(I1
I11
tp22
I4
s(I0
I3
tp23
I54
s(I5
I8
tp24
I49
s(I1
I2
tp25
I76
s(I4
I9
tp26
I31
s(I2
I9
tp27
I18
s(I5
I12
tp28
I15
s(I6
I10
tp29
I38
s(I4
I5
tp30
I73
s(I10
I12
tp31
I55
s(I0
I0
tp32
I78
s(I1
I5
tp33
I43
s(I0
I11
tp34
I2
s(I9
I11
tp35
I56
s(I7
I10
tp36
I47
s(I0
I4
tp37
I44
s(I1
I10
tp38
I8
s(I0
I1
tp39
I77
s(I0
I2
tp40
I65
s(I3
I5
tp41
I62
s(I4
I10
tp42
I23
s(I5
I6
tp43
I72
s(I2
I6
tp44
I42
s(I5
I10
tp45
I30
s(I5
I11
tp46
I22
s(I6
I11
tp47
I29
s(I8
I11
tp48
I46
s(I4
I7
tp49
I50
s(I0
I12
tp50
I0
s(I9
I10
tp51
I68
s(I3
I9
tp52
I24
s(I0
I5
tp53
I35
s(I1
I9
tp54
I13
s(I2
I4
tp55
I63
s(I6
I12
tp56
I21
s(I0
I8
tp57
I14
s(I11
I12
tp58
I66
s(I4
I11
tp59
I16
s(I7
I9
tp60
I58
s(I2
I7
tp61
I33
s(I3
I12
tp62
I6
s(I6
I8
tp63
I59
s(I1
I12
tp64
I1
s(I8
I12
tp65
I36
s(I3
I4
tp66
I74
s(I5
I7
tp67
I60
s(I2
I11
tp68
I7
s(I3
I6
tp69
I51
s(I3
I8
tp70
I32
s(I0
I6
tp71
I27
s(I1
I8
tp72
I19
s(I1
I7
tp73
I26
s(I0
I9
tp74
I9
s(I2
I3
tp75
I75
s(I10
I11
tp76
I67
s(I7
I8
tp77
I70
s(I3
I10
tp78
I17
s(I9
I12
tp79
I45
s(I2
I12
tp80
I3
s.