(dp1
(I6
I9
tp2
I98
s(I7
I12
tp3
I70
s(I0
I7
tp4
I54
s(I1
I6
tp5
I76
s(I0
I10
tp6
I27
s(I3
I7
tp7
I87
s(I2
I5
tp8
I102
s(I1
I11
tp9
I26
s(I5
I8
tp10
I99
s(I6
I7
tp11
I129
s(I6
I10
tp12
I84
s(I0
I4
tp13
I90
s(I8
I15
tp14
I46
s(I4
I10
tp15
I61
s(I2
I6
tp16
I88
s(I9
I14
tp17
I68
s(I5
I11
tp18
I60
s(I4
I5
tp19
I131
s(I10
I13
tp20
I94
s(I4
I16
tp21
I10
s(I9
I16
tp22
I45
s(I14
I15
tp23
I121
s(I6
I8
tp24
I113
s(I0
I1
tp25
I135
s(I3
I12
tp26
I32
s(I1
I12
tp27
I19
s(I8
I12
tp28
I82
s(I4
I15
tp29
I16
s(I2
I11
tp30
I33
s(I5
I14
tp31
I30
s(I10
I14
tp32
I80
s(I6
I13
tp33
I48
s(I11
I15
tp34
I79
s(I15
I16
tp35
I120
s(I6
I16
tp36
I21
s(I11
I16
tp37
I66
s(I0
I14
tp38
I5
s(I3
I11
tp39
I41
s(I1
I15
tp40
I4
s(I8
I9
tp41
I127
s(I4
I12
tp42
I40
s(I2
I12
tp43
I25
s(I6
I14
tp44
I38
s(I7
I15
tp45
I37
s(I12
I13
tp46
I123
s(I1
I16
tp47
I1
s(I13
I16
tp48
I91
s(I1
I5
tp49
I89
s(I0
I11
tp50
I20
s(I3
I6
tp51
I101
s(I1
I10
tp52
I34
s(I6
I11
tp53
I71
s(I0
I5
tp54
I77
s(I0
I8
tp55
I44
s(I4
I11
tp56
I50
s(I3
I5
tp57
I116
s(I2
I7
tp58
I75
s(I9
I13
tp59
I81
s(I5
I10
tp60
I72
s(I4
I6
tp61
I115
s(I7
I8
tp62
I128
s(I5
I7
tp63
I114
s(I0
I2
tp64
I119
s(I3
I15
tp65
I11
s(I1
I3
tp66
I118
s(I8
I13
tp67
I69
s(I4
I8
tp68
I86
s(I2
I8
tp69
I63
s(I5
I13
tp70
I39
s(I10
I15
tp71
I67
s(I11
I14
tp72
I93
s(I7
I11
tp73
I83
s(I0
I15
tp74
I2
s(I3
I10
tp75
I51
s(I1
I14
tp76
I8
s(I8
I10
tp77
I111
s(I4
I13
tp78
I31
s(I2
I13
tp79
I18
s(I9
I11
tp80
I110
s(I3
I16
tp81
I6
s(I8
I16
tp82
I36
s(I6
I15
tp83
I29
s(I11
I13
tp84
I108
s(I7
I14
tp85
I47
s(I12
I14
tp86
I107
s(I13
I15
tp87
I106
s(I1
I4
tp88
I103
s(I0
I12
tp89
I14
s(I3
I9
tp90
I62
s(I2
I3
tp91
I133
s(I1
I9
tp92
I43
s(I2
I14
tp93
I12
s(I14
I16
tp94
I105
s(I5
I16
tp95
I15
s(I10
I16
tp96
I55
s(I7
I13
tp97
I58
s(I0
I6
tp98
I65
s(I1
I7
tp99
I64
s(I0
I9
tp100
I35
s(I3
I4
tp101
I132
s(I2
I4
tp102
I117
s(I9
I12
tp103
I95
s(I5
I9
tp104
I85
s(I4
I7
tp105
I100
s(I10
I11
tp106
I125
s(I5
I6
tp107
I130
s(I0
I16
tp108
I0
s(I7
I16
tp109
I28
s(I12
I16
tp110
I78
s(I0
I3
tp111
I104
s(I3
I14
tp112
I17
s(I1
I2
tp113
I134
s(I8
I14
tp114
I57
s(I4
I9
tp115
I73
s(I2
I9
tp116
I52
s(I9
I15
tp117
I56
s(I5
I12
tp118
I49
s(I10
I12
tp119
I109
s(I7
I10
tp120
I97
s(I2
I16
tp121
I3
s(I0
I0
tp122
I136
s(I3
I13
tp123
I24
s(I1
I13
tp124
I13
s(I8
I11
tp125
I96
s(I4
I14
tp126
I23
s(I2
I10
tp127
I42
s(I9
I10
tp128
I126
s(I5
I15
tp129
I22
s(I6
I12
tp130
I59
s(I11
I12
tp131
I124
s(I7
I9
tp132
I112
s(I12
I15
tp133
I92
s(I13
I14
tp134
I122
s(I0
I13
tp135
I9
s(I3
I8
tp136
I74
s(I1
I8
tp137
I53
s(I2
I15
tp138
I7
s.