(dp1
(I6
I5
I24
I21
I3
I5
tp2
I3356
s(I12
I12
I27
I21
I11
I12
tp3
I2016
s(I11
I11
I25
I21
I11
I11
tp4
I2090
s(I1
I0
I24
I21
I0
I0
tp5
I4209
s(I16
I18
I21
I21
I15
I16
tp6
I805
s(I19
I20
I21
I21
I18
I18
tp7
I309
s(I11
I11
I26
I21
I11
I11
tp8
I2137
s(I3
I2
I24
I21
I1
I2
tp9
I3932
s(I19
I18
I23
I21
I17
I17
tp10
I582
s(I8
I7
I23
I21
I6
I6
tp11
I2890
s(I3
I3
I21
I21
I3
I1
tp12
I3695
s(I11
I10
I21
I21
I10
I9
tp13
I2122
s(I17
I16
I23
I21
I16
I16
tp14
I896
s(I15
I15
I24
I21
I14
I15
tp15
I1253
s(I10
I12
I25
I21
I10
I10
tp16
I2193
s(I5
I3
I26
I21
I3
I2
tp17
I3766
s(I17
I17
I27
I21
I17
I14
tp18
I1084
s(I21
I21
I25
I21
I20
I20
tp19
I148
s(I12
I11
I22
I21
I11
I10
tp20
I1959
s(I1
I1
I23
I21
I1
I0
tp21
I4129
s(I8
I7
I22
I21
I7
I7
tp22
I2739
s(I2
I1
I27
I21
I0
I0
tp23
I4215
s(I7
I6
I27
I21
I5
I6
tp24
I3229
s(I13
I12
I27
I21
I12
I12
tp25
I1916
s(I11
I12
I21
I21
I10
I10
tp26
I1962
s(I0
I1
I27
I21
I0
I0
tp27
I4233
s(I8
I8
I26
I21
I7
I7
tp28
I2865
s(I11
I10
I23
I21
I10
I9
tp29
I2212
s(I19
I20
I27
I21
I19
I17
tp30
I555
s(I17
I17
I23
I21
I15
I16
tp31
I894
s(I8
I8
I25
I21
I7
I8
tp32
I2770
s(I18
I16
I23
I21
I16
I16
tp33
I844
s(I27
I21
I27
I21
I20
I19
tp34
I56
s(I8
I9
I21
I21
I6
I8
tp35
I2591
s(I14
I14
I22
I21
I13
I12
tp36
I1480
s(I12
I11
I26
I21
I11
I11
tp37
I2079
s(I12
I14
I27
I21
I12
I12
tp38
I1863
s(I21
I20
I25
I21
I19
I20
tp39
I238
s(I5
I5
I21
I21
I3
I4
tp40
I3320
s(I24
I21
I27
I21
I20
I18
tp41
I223
s(I11
I10
I26
I21
I8
I10
tp42
I2396
s(I6
I7
I26
I21
I5
I5
tp43
I3235
s(I11
I13
I22
I21
I11
I10
tp44
I1903
s(I16
I15
I23
I21
I15
I13
tp45
I1213
s(I13
I14
I23
I21
I12
I13
tp46
I1578
s(I14
I14
I23
I21
I11
I14
tp47
I1523
s(I3
I4
I21
I21
I1
I3
tp48
I3641
s(I22
I21
I23
I21
I21
I19
tp49
I37
s(I18
I16
I27
I21
I16
I15
tp50
I1083
s(I21
I18
I24
I21
I18
I18
tp51
I527
s(I14
I15
I27
I21
I14
I12
tp52
I1602
s(I5
I2
I23
I21
I2
I2
tp53
I3841
s(I7
I7
I24
I21
I5
I7
tp54
I2988
s(I18
I18
I25
I21
I17
I16
tp55
I773
s(I6
I6
I22
I21
I5
I4
tp56
I3160
s(I19
I17
I26
I21
I17
I17
tp57
I767
s(I14
I15
I27
I21
I13
I14
tp58
I1548
s(I9
I8
I23
I21
I8
I6
tp59
I2683
s(I17
I18
I23
I21
I16
I17
tp60
I738
s(I9
I11
I21
I21
I9
I8
tp61
I2276
s(I13
I12
I21
I21
I12
I11
tp62
I1702
s(I6
I8
I21
I21
I5
I6
tp63
I2905
s(I8
I8
I23
I21
I6
I8
tp64
I2731
s(I9
I9
I27
I21
I8
I9
tp65
I2646
s(I14
I12
I21
I21
I12
I12
tp66
I1594
s(I23
I21
I26
I21
I21
I19
tp67
I127
s(I17
I16
I26
I21
I15
I16
tp68
I1086
s(I19
I19
I25
I21
I17
I18
tp69
I563
s(I18
I19
I24
I21
I17
I18
tp70
I573
s(I10
I12
I21
I21
I10
I9
tp71
I2066
s(I5
I5
I21
I21
I4
I5
tp72
I3220
s(I4
I4
I23
I21
I3
I4
tp73
I3516
s(I14
I14
I25
I21
I11
I14
tp74
I1609
s(I6
I6
I26
I21
I5
I4
tp75
I3340
s(I8
I10
I21
I21
I7
I8
tp76
I2485
s(I1
I4
I26
I21
I1
I1
tp77
I4146
s(I21
I21
I26
I21
I21
I20
tp78
I147
s(I13
I14
I27
I21
I12
I13
tp79
I1758
s(I16
I18
I21
I21
I16
I15
tp80
I806
s(I11
I12
I22
I21
I10
I10
tp81
I2005
s(I16
I16
I23
I21
I14
I15
tp82
I1104
s(I4
I5
I25
I21
I4
I4
tp83
I3501
s(I5
I4
I22
I21
I4
I2
tp84
I3480
s(I23
I21
I25
I21
I21
I19
tp85
I79
s(I21
I21
I23
I21
I20
I20
tp86
I61
s(I11
I13
I26
I21
I11
I11
tp87
I2026
s(I12
I11
I24
I21
I10
I10
tp88
I2097
s(I16
I16
I24
I21
I15
I16
tp89
I1043
s(I20
I21
I25
I21
I20
I19
tp90
I237
s(I17
I18
I22
I21
I16
I17
tp91
I695
s(I12
I12
I21
I21
I12
I12
tp92
I1700
s(I10
I8
I25
I21
I8
I8
tp93
I2614
s(I7
I6
I25
I21
I6
I5
tp94
I3142
s(I3
I3
I27
I21
I0
I3
tp95
I4009
s(I8
I9
I26
I21
I7
I7
tp96
I2815
s(I8
I10
I23
I21
I7
I8
tp97
I2579
s(I9
I6
I26
I21
I6
I6
tp98
I3134
s(I7
I6
I25
I21
I6
I6
tp99
I3082
s(I3
I3
I26
I21
I2
I3
tp100
I3863
s(I6
I4
I21
I21
I4
I4
tp101
I3274
s(I3
I3
I26
I21
I3
I0
tp102
I3975
s(I13
I11
I22
I21
I11
I10
tp103
I1906
s(I19
I20
I21
I21
I19
I18
tp104
I269
s(I3
I3
I24
I21
I1
I3
tp105
I3828
s(I9
I10
I21
I21
I9
I8
tp106
I2331
s(I7
I7
I26
I21
I7
I6
tp107
I3028
s(I9
I11
I25
I21
I9
I8
tp108
I2456
s(I15
I15
I23
I21
I15
I13
tp109
I1265
s(I5
I5
I21
I21
I4
I3
tp110
I3323
s(I11
I13
I24
I21
I11
I11
tp111
I1940
s(I8
I9
I25
I21
I8
I6
tp112
I2776
s(I22
I21
I25
I21
I20
I18
tp113
I218
s(I15
I14
I21
I21
I14
I13
tp114
I1282
s(I14
I14
I23
I21
I14
I14
tp115
I1370
s(I19
I20
I25
I21
I17
I19
tp116
I466
s(I15
I14
I26
I21
I14
I13
tp117
I1509
s(I4
I2
I26
I21
I1
I2
tp118
I3973
s(I4
I4
I25
I21
I2
I3
tp119
I3710
s(I10
I12
I24
I21
I9
I10
tp120
I2202
s(I16
I19
I25
I21
I16
I16
tp121
I984
s(I14
I13
I22
I21
I12
I12
tp122
I1587
s(I2
I1
I26
I21
I1
I1
tp123
I4144
s(I11
I12
I23
I21
I9
I11
tp124
I2047
s(I20
I17
I22
I21
I17
I17
tp125
I645
s(I2
I3
I21
I21
I1
I1
tp126
I3852
s(I10
I9
I21
I21
I9
I8
tp127
I2332
s(I19
I18
I26
I21
I18
I17
tp128
I669
s(I10
I11
I23
I21
I10
I9
tp129
I2211
s(I4
I5
I24
I21
I3
I4
tp130
I3511
s(I10
I9
I27
I21
I8
I8
tp131
I2650
s(I14
I14
I21
I21
I12
I14
tp132
I1381
s(I6
I6
I23
I21
I6
I6
tp133
I3050
s(I14
I15
I22
I21
I14
I12
tp134
I1379
s(I24
I21
I27
I21
I21
I18
tp135
I182
s(I7
I9
I27
I21
I7
I6
tp136
I2970
s(I9
I8
I25
I21
I8
I7
tp137
I2722
s(I6
I7
I27
I21
I5
I5
tp138
I3278
s(I11
I10
I27
I21
I9
I10
tp139
I2389
s(I4
I4
I23
I21
I4
I3
tp140
I3521
s(I2
I3
I27
I21
I1
I1
tp141
I4100
s(I5
I6
I21
I21
I5
I3
tp142
I3226
s(I14
I14
I25
I21
I14
I14
tp143
I1460
s(I8
I10
I21
I21
I8
I7
tp144
I2486
s(I20
I19
I25
I21
I18
I19
tp145
I418
s(I9
I8
I25
I21
I8
I8
tp146
I2662
s(I11
I12
I22
I21
I11
I11
tp147
I1898
s(I3
I3
I22
I21
I3
I1
tp148
I3738
s(I15
I14
I25
I21
I14
I13
tp149
I1462
s(I10
I8
I21
I21
I8
I7
tp150
I2489
s(I9
I10
I27
I21
I9
I7
tp151
I2652
s(I3
I3
I23
I21
I3
I1
tp152
I3785
s(I23
I21
I27
I21
I21
I20
tp153
I125
s(I6
I7
I23
I21
I5
I6
tp154
I3048
s(I3
I0
I26
I21
I0
I0
tp155
I4231
s(I18
I20
I25
I21
I18
I18
tp156
I517
s(I5
I6
I23
I21
I3
I5
tp157
I3307
s(I7
I7
I22
I21
I6
I7
tp158
I2843
s(I3
I2
I26
I21
I1
I2
tp159
I4022
s(I12
I14
I25
I21
I12
I12
tp160
I1773
s(I7
I6
I25
I21
I5
I5
tp161
I3194
s(I14
I14
I27
I21
I14
I13
tp162
I1601
s(I4
I4
I24
I21
I4
I2
tp163
I3622
s(I14
I13
I26
I21
I13
I11
tp164
I1770
s(I18
I19
I24
I21
I16
I18
tp165
I625
s(I9
I7
I27
I21
I6
I7
tp166
I2972
s(I15
I14
I22
I21
I14
I12
tp167
I1380
s(I12
I11
I25
I21
I11
I11
tp168
I2032
s(I11
I11
I22
I21
I11
I11
tp169
I1957
s(I5
I8
I25
I21
I5
I5
tp170
I3294
s(I19
I18
I21
I21
I17
I17
tp171
I498
s(I8
I11
I24
I21
I8
I8
tp172
I2621
s(I16
I15
I27
I21
I14
I15
tp173
I1339
s(I3
I4
I21
I21
I2
I3
tp174
I3588
s(I15
I16
I23
I21
I13
I15
tp175
I1207
s(I10
I9
I27
I21
I9
I9
tp176
I2546
s(I20
I20
I24
I21
I20
I17
tp177
I335
s(I11
I10
I27
I21
I10
I9
tp178
I2392
s(I12
I10
I22
I21
I10
I10
tp179
I2057
s(I11
I10
I27
I21
I8
I10
tp180
I2439
s(I10
I11
I25
I21
I9
I9
tp181
I2352
s(I1
I2
I21
I21
I0
I1
tp182
I4004
s(I15
I18
I21
I21
I15
I15
tp183
I1014
s(I20
I20
I27
I21
I19
I19
tp184
I405
s(I22
I20
I27
I21
I20
I19
tp185
I305
s(I20
I20
I25
I21
I17
I20
tp186
I367
s(I10
I11
I22
I21
I9
I9
tp187
I2215
s(I13
I13
I21
I21
I13
I12
tp188
I1545
s(I9
I7
I22
I21
I7
I7
tp189
I2687
s(I10
I9
I26
I21
I8
I8
tp190
I2607
s(I15
I17
I25
I21
I15
I15
tp191
I1143
s(I5
I3
I24
I21
I3
I3
tp192
I3621
s(I14
I13
I23
I21
I13
I12
tp193
I1582
s(I23
I20
I27
I21
I20
I20
tp194
I219
s(I18
I20
I24
I21
I18
I17
tp195
I526
s(I6
I7
I27
I21
I6
I4
tp196
I3282
s(I7
I8
I24
I21
I7
I7
tp197
I2828
s(I1
I0
I25
I21
I0
I0
tp198
I4221
s(I13
I13
I25
I21
I12
I12
tp199
I1772
s(I15
I14
I24
I21
I14
I14
tp200
I1359
s(I20
I21
I22
I21
I20
I18
tp201
I161
s(I3
I3
I26
I21
I3
I1
tp202
I3918
s(I5
I5
I27
I21
I5
I5
tp203
I3440
s(I15
I15
I23
I21
I12
I15
tp204
I1313
s(I13
I12
I27
I21
I10
I12
tp205
I2019
s(I6
I5
I25
I21
I5
I5
tp206
I3292
s(I17
I18
I22
I21
I17
I15
tp207
I749
s(I20
I20
I21
I21
I19
I19
tp208
I186
s(I1
I3
I27
I21
I0
I1
tp209
I4174
s(I15
I15
I25
I21
I15
I14
tp210
I1305
s(I4
I3
I24
I21
I3
I2
tp211
I3725
s(I12
I15
I26
I21
I12
I12
tp212
I1871
s(I3
I4
I24
I21
I2
I3
tp213
I3721
s(I0
I3
I24
I21
I0
I0
tp214
I4210
s(I8
I6
I25
I21
I5
I6
tp215
I3088
s(I4
I4
I26
I21
I3
I2
tp216
I3760
s(I23
I21
I24
I21
I20
I20
tp217
I41
s(I22
I21
I25
I21
I21
I18
tp218
I171
s(I7
I8
I27
I21
I6
I6
tp219
I3068
s(I7
I7
I23
I21
I4
I7
tp220
I2993
s(I8
I8
I23
I21
I8
I7
tp221
I2681
s(I15
I16
I21
I21
I15
I14
tp222
I1071
s(I13
I15
I21
I21
I13
I13
tp223
I1383
s(I12
I15
I27
I21
I12
I12
tp224
I1918
s(I8
I9
I27
I21
I8
I8
tp225
I2755
s(I3
I2
I21
I21
I2
I1
tp226
I3802
s(I3
I4
I27
I21
I3
I3
tp227
I3805
s(I5
I5
I24
I21
I4
I4
tp228
I3409
s(I3
I0
I24
I21
I0
I0
tp229
I4211
s(I6
I8
I27
I21
I6
I6
tp230
I3123
s(I7
I7
I22
I21
I7
I7
tp231
I2797
s(I16
I16
I24
I21
I16
I14
tp232
I1102
s(I5
I4
I27
I21
I4
I2
tp233
I3703
s(I16
I14
I21
I21
I14
I13
tp234
I1229
s(I20
I18
I26
I21
I18
I17
tp235
I617
s(I11
I11
I23
I21
I9
I11
tp236
I2101
s(I2
I2
I24
I21
I0
I1
tp237
I4076
s(I4
I3
I22
I21
I3
I2
tp238
I3639
s(I0
I2
I27
I21
I0
I0
tp239
I4226
s(I9
I7
I25
I21
I7
I6
tp240
I2879
s(I17
I17
I23
I21
I17
I17
tp241
I740
s(I1
I2
I26
I21
I1
I1
tp242
I4143
s(I18
I17
I23
I21
I16
I16
tp243
I790
s(I2
I3
I22
I21
I2
I0
tp244
I3899
s(I16
I15
I25
I21
I15
I13
tp245
I1307
s(I15
I16
I22
I21
I15
I15
tp246
I1058
s(I11
I10
I25
I21
I10
I8
tp247
I2357
s(I1
I0
I27
I21
I0
I0
tp248
I4234
s(I3
I2
I23
I21
I2
I1
tp249
I3892
s(I8
I9
I26
I21
I7
I8
tp250
I2765
s(I13
I10
I25
I21
I10
I10
tp251
I2247
s(I7
I8
I23
I21
I6
I6
tp252
I2888
s(I12
I12
I25
I21
I12
I11
tp253
I1935
s(I1
I2
I24
I21
I1
I0
tp254
I4124
s(I18
I18
I22
I21
I17
I17
tp255
I587
s(I1
I2
I23
I21
I0
I1
tp256
I4086
s(I11
I12
I24
I21
I11
I10
tp257
I2044
s(I4
I6
I27
I21
I4
I4
tp258
I3543
s(I5
I7
I21
I21
I5
I5
tp259
I3063
s(I4
I5
I25
I21
I2
I4
tp260
I3611
s(I17
I20
I25
I21
I17
I17
tp261
I774
s(I12
I11
I27
I21
I10
I10
tp262
I2230
s(I14
I12
I24
I21
I12
I11
tp263
I1786
s(I8
I7
I23
I21
I7
I5
tp264
I2893
s(I20
I18
I27
I21
I18
I17
tp265
I663
s(I16
I17
I23
I21
I15
I16
tp266
I948
s(I10
I10
I27
I21
I9
I10
tp267
I2436
s(I14
I14
I26
I21
I13
I12
tp268
I1660
s(I20
I19
I23
I21
I18
I19
tp269
I340
s(I15
I14
I23
I21
I14
I14
tp270
I1316
s(I7
I7
I23
I21
I5
I6
tp271
I2994
s(I21
I19
I27
I21
I18
I19
tp272
I458
s(I25
I21
I27
I21
I21
I18
tp273
I138
s(I16
I17
I24
I21
I14
I16
tp274
I1044
s(I19
I18
I25
I21
I18
I18
tp275
I565
s(I16
I17
I26
I21
I16
I15
tp276
I1088
s(I9
I10
I24
I21
I9
I9
tp277
I2408
s(I5
I4
I21
I21
I4
I3
tp278
I3382
s(I9
I6
I24
I21
I6
I6
tp279
I3044
s(I2
I3
I25
I21
I0
I2
tp280
I4027
s(I25
I21
I27
I21
I20
I20
tp281
I89
s(I4
I4
I22
I21
I3
I3
tp282
I3525
s(I7
I7
I27
I21
I5
I6
tp283
I3174
s(I10
I12
I26
I21
I9
I10
tp284
I2292
s(I19
I19
I24
I21
I19
I19
tp285
I378
s(I17
I17
I26
I21
I17
I16
tp286
I928
s(I19
I19
I21
I21
I16
I19
tp287
I394
s(I13
I13
I26
I21
I12
I13
tp288
I1763
s(I2
I3
I23
I21
I0
I2
tp289
I3937
s(I13
I15
I24
I21
I12
I13
tp290
I1572
s(I13
I14
I22
I21
I13
I12
tp291
I1538
s(I11
I11
I27
I21
I9
I11
tp292
I2281
s(I15
I15
I21
I21
I13
I15
tp293
I1171
s(I13
I14
I26
I21
I12
I13
tp294
I1715
s(I24
I21
I25
I21
I20
I21
tp295
I19
s(I20
I19
I22
I21
I18
I19
tp296
I300
s(I13
I12
I23
I21
I12
I10
tp297
I1843
s(I27
I21
I27
I21
I21
I18
tp298
I57
s(I2
I0
I27
I21
I0
I0
tp299
I4227
s(I13
I13
I26
I21
I10
I13
tp300
I1866
s(I4
I4
I26
I21
I2
I3
tp301
I3757
s(I12
I11
I24
I21
I10
I11
tp302
I2042
s(I20
I21
I26
I21
I20
I18
tp303
I322
s(I11
I13
I22
I21
I10
I11
tp304
I1902
s(I8
I8
I27
I21
I6
I8
tp305
I2911
s(I22
I21
I23
I21
I20
I18
tp306
I123
s(I4
I3
I24
I21
I2
I2
tp307
I3777
s(I7
I7
I27
I21
I6
I5
tp308
I3177
s(I22
I21
I24
I21
I21
I21
tp309
I12
s(I4
I3
I24
I21
I2
I3
tp310
I3722
s(I5
I7
I21
I21
I4
I5
tp311
I3115
s(I0
I3
I27
I21
I0
I0
tp312
I4235
s(I14
I14
I27
I21
I14
I12
tp313
I1655
s(I17
I17
I22
I21
I17
I15
tp314
I798
s(I11
I12
I21
I21
I11
I10
tp315
I1911
s(I20
I17
I25
I21
I17
I17
tp316
I777
s(I16
I15
I24
I21
I14
I15
tp317
I1202
s(I8
I8
I25
I21
I8
I8
tp318
I2720
s(I7
I6
I26
I21
I5
I5
tp319
I3237
s(I14
I15
I25
I21
I12
I14
tp320
I1511
s(I15
I18
I22
I21
I15
I15
tp321
I1061
s(I2
I2
I24
I21
I2
I2
tp322
I3933
s(I19
I18
I24
I21
I17
I18
tp323
I574
s(I14
I14
I21
I21
I11
I14
tp324
I1429
s(I18
I19
I24
I21
I18
I17
tp325
I576
s(I12
I12
I24
I21
I10
I12
tp326
I1938
s(I17
I16
I21
I21
I16
I14
tp327
I917
s(I11
I11
I21
I21
I11
I9
tp328
I2015
s(I7
I7
I24
I21
I6
I5
tp329
I3040
s(I12
I13
I26
I21
I10
I12
tp330
I1974
s(I20
I20
I26
I21
I20
I17
tp331
I413
s(I5
I5
I26
I21
I5
I3
tp332
I3498
s(I10
I9
I22
I21
I8
I8
tp333
I2427
s(I10
I10
I23
I21
I10
I9
tp334
I2261
s(I8
I7
I27
I21
I7
I6
tp335
I3022
s(I13
I13
I24
I21
I13
I10
tp336
I1787
s(I16
I16
I23
I21
I15
I14
tp337
I1107
s(I18
I17
I26
I21
I17
I17
tp338
I819
s(I6
I6
I21
I21
I5
I4
tp339
I3113
s(I15
I13
I22
I21
I13
I12
tp340
I1486
s(I16
I15
I22
I21
I14
I15
tp341
I1116
s(I1
I3
I26
I21
I1
I0
tp342
I4148
s(I9
I9
I26
I21
I8
I9
tp343
I2603
s(I14
I16
I21
I21
I14
I13
tp344
I1226
s(I8
I11
I23
I21
I8
I8
tp345
I2578
s(I15
I17
I23
I21
I15
I15
tp346
I1053
s(I11
I10
I21
I21
I8
I10
tp347
I2173
s(I18
I17
I25
I21
I16
I17
tp348
I829
s(I12
I12
I22
I21
I11
I11
tp349
I1845
s(I18
I18
I26
I21
I18
I18
tp350
I667
s(I12
I12
I24
I21
I11
I12
tp351
I1883
s(I3
I3
I22
I21
I2
I3
tp352
I3683
s(I4
I4
I21
I21
I4
I3
tp353
I3435
s(I13
I13
I21
I21
I11
I12
tp354
I1640
s(I18
I17
I22
I21
I16
I17
tp355
I696
s(I5
I5
I21
I21
I5
I5
tp356
I3170
s(I17
I14
I22
I21
I14
I14
tp357
I1274
s(I4
I5
I25
I21
I3
I4
tp358
I3558
s(I11
I12
I21
I21
I9
I11
tp359
I1961
s(I9
I8
I24
I21
I8
I6
tp360
I2730
s(I11
I12
I26
I21
I11
I10
tp361
I2138
s(I14
I14
I24
I21
I13
I14
tp362
I1463
s(I12
I12
I24
I21
I9
I12
tp363
I1986
s(I21
I18
I23
I21
I18
I18
tp364
I485
s(I22
I21
I27
I21
I20
I21
tp365
I165
s(I10
I11
I23
I21
I9
I10
tp366
I2208
s(I11
I11
I22
I21
I10
I11
tp367
I2003
s(I14
I13
I25
I21
I13
I13
tp368
I1612
s(I2
I2
I24
I21
I0
I2
tp369
I4034
s(I11
I11
I25
I21
I9
I10
tp370
I2240
s(I5
I5
I21
I21
I5
I2
tp371
I3330
s(I2
I2
I21
I21
I1
I1
tp372
I3902
s(I4
I6
I25
I21
I4
I3
tp373
I3506
s(I16
I17
I21
I21
I16
I16
tp374
I801
s(I13
I15
I23
I21
I13
I12
tp375
I1530
s(I10
I9
I21
I21
I8
I9
tp376
I2329
s(I5
I7
I26
I21
I5
I4
tp377
I3343
s(I25
I21
I27
I21
I21
I20
tp378
I49
s(I13
I13
I26
I21
I13
I11
tp379
I1818
s(I11
I12
I25
I21
I10
I10
tp380
I2142
s(I6
I6
I25
I21
I6
I4
tp381
I3245
s(I7
I5
I22
I21
I5
I4
tp382
I3166
s(I4
I3
I25
I21
I3
I3
tp383
I3712
s(I4
I5
I22
I21
I4
I4
tp384
I3368
s(I20
I20
I23
I21
I19
I20
tp385
I201
s(I8
I7
I23
I21
I5
I7
tp386
I2889
s(I8
I7
I27
I21
I6
I7
tp387
I3019
s(I19
I16
I23
I21
I16
I16
tp388
I901
s(I24
I21
I25
I21
I21
I19
tp389
I47
s(I3
I2
I27
I21
I2
I1
tp390
I4062
s(I4
I2
I22
I21
I2
I2
tp391
I3737
s(I13
I14
I21
I21
I13
I12
tp392
I1491
s(I4
I6
I23
I21
I4
I3
tp393
I3420
s(I3
I6
I21
I21
I3
I3
tp394
I3534
s(I13
I11
I26
I21
I11
I11
tp395
I2027
s(I12
I14
I27
I21
I12
I11
tp396
I1920
s(I20
I19
I24
I21
I19
I19
tp397
I333
s(I14
I12
I25
I21
I11
I12
tp398
I1828
s(I17
I17
I22
I21
I17
I16
tp399
I748
s(I12
I13
I25
I21
I12
I12
tp400
I1821
s(I5
I5
I24
I21
I2
I5
tp401
I3456
s(I18
I17
I21
I21
I16
I16
tp402
I704
s(I9
I11
I24
I21
I8
I9
tp403
I2412
s(I22
I19
I23
I21
I19
I19
tp404
I296
s(I1
I4
I25
I21
I1
I1
tp405
I4115
s(I21
I20
I22
I21
I20
I18
tp406
I164
s(I18
I18
I27
I21
I17
I18
tp407
I756
s(I8
I7
I26
I21
I7
I5
tp408
I3030
s(I22
I21
I24
I21
I20
I19
tp409
I119
s(I2
I2
I27
I21
I0
I1
tp410
I4169
s(I18
I18
I22
I21
I15
I18
tp411
I637
s(I5
I6
I25
I21
I4
I4
tp412
I3402
s(I15
I16
I27
I21
I13
I15
tp413
I1387
s(I8
I9
I22
I21
I7
I7
tp414
I2635
s(I7
I7
I25
I21
I5
I7
tp415
I3031
s(I1
I3
I21
I21
I0
I1
tp416
I3954
s(I17
I16
I22
I21
I16
I14
tp417
I960
s(I11
I11
I26
I21
I10
I11
tp418
I2183
s(I10
I11
I22
I21
I10
I10
tp419
I2108
s(I15
I15
I22
I21
I15
I15
tp420
I1117
s(I20
I20
I21
I21
I20
I20
tp421
I95
s(I16
I16
I21
I21
I15
I16
tp422
I910
s(I11
I12
I22
I21
I9
I11
tp423
I2004
s(I12
I13
I24
I21
I12
I10
tp424
I1889
s(I9
I7
I27
I21
I7
I6
tp425
I2973
s(I11
I11
I24
I21
I9
I11
tp426
I2148
s(I1
I1
I24
I21
I1
I1
tp427
I4123
s(I12
I10
I21
I21
I9
I10
tp428
I2068
s(I15
I17
I22
I21
I14
I15
tp429
I1062
s(I13
I13
I21
I21
I12
I11
tp430
I1643
s(I10
I10
I24
I21
I9
I10
tp431
I2303
s(I20
I20
I24
I21
I19
I18
tp432
I334
s(I8
I9
I21
I21
I8
I6
tp433
I2596
s(I5
I2
I25
I21
I2
I2
tp434
I3927
s(I8
I9
I24
I21
I7
I7
tp435
I2725
s(I6
I4
I25
I21
I3
I4
tp436
I3508
s(I17
I17
I24
I21
I17
I16
tp437
I838
s(I20
I20
I25
I21
I18
I19
tp438
I368
s(I7
I5
I25
I21
I4
I5
tp439
I3298
s(I17
I16
I24
I21
I14
I16
tp440
I1046
s(I2
I2
I26
I21
I2
I2
tp441
I4023
s(I10
I9
I25
I21
I8
I9
tp442
I2509
s(I6
I8
I22
I21
I6
I5
tp443
I2953
s(I23
I21
I25
I21
I21
I20
tp444
I40
s(I18
I18
I23
I21
I16
I18
tp445
I632
s(I19
I19
I23
I21
I19
I16
tp446
I488
s(I13
I15
I26
I21
I12
I13
tp447
I1662
s(I2
I2
I22
I21
I1
I2
tp448
I3893
s(I12
I13
I24
I21
I11
I12
tp449
I1831
s(I11
I10
I21
I21
I9
I10
tp450
I2119
s(I10
I10
I21
I21
I10
I8
tp451
I2225
s(I14
I12
I26
I21
I12
I12
tp452
I1817
s(I21
I20
I25
I21
I20
I18
tp453
I285
s(I12
I11
I22
I21
I11
I9
tp454
I2010
s(I3
I2
I25
I21
I2
I0
tp455
I4033
s(I11
I12
I26
I21
I10
I10
tp456
I2185
s(I3
I5
I23
I21
I3
I2
tp457
I3630
s(I15
I14
I21
I21
I12
I14
tp458
I1333
s(I15
I16
I24
I21
I14
I14
tp459
I1255
s(I22
I21
I27
I21
I21
I19
tp460
I212
s(I1
I3
I25
I21
I0
I1
tp461
I4116
s(I13
I13
I24
I21
I12
I13
tp462
I1673
s(I23
I21
I26
I21
I20
I19
tp463
I178
s(I16
I15
I21
I21
I15
I13
tp464
I1127
s(I11
I12
I27
I21
I11
I10
tp465
I2181
s(I14
I12
I25
I21
I12
I11
tp466
I1829
s(I18
I19
I25
I21
I18
I17
tp467
I622
s(I7
I7
I25
I21
I4
I7
tp468
I3079
s(I8
I9
I22
I21
I8
I7
tp469
I2588
s(I11
I9
I22
I21
I8
I9
tp470
I2325
s(I13
I14
I23
I21
I11
I13
tp471
I1627
s(I19
I18
I26
I21
I17
I18
tp472
I666
s(I13
I11
I27
I21
I10
I11
tp473
I2132
s(I16
I17
I25
I21
I15
I16
tp474
I1038
s(I10
I11
I23
I21
I8
I10
tp475
I2257
s(I14
I15
I24
I21
I14
I12
tp476
I1469
s(I11
I9
I27
I21
I9
I9
tp477
I2494
s(I17
I15
I27
I21
I14
I15
tp478
I1292
s(I10
I11
I27
I21
I9
I10
tp479
I2388
s(I21
I20
I23
I21
I20
I19
tp480
I157
s(I2
I0
I24
I21
I0
I0
tp481
I4190
s(I2
I2
I25
I21
I1
I0
tp482
I4114
s(I2
I2
I25
I21
I2
I0
tp483
I4075
s(I7
I7
I22
I21
I6
I6
tp484
I2895
s(I13
I12
I26
I21
I11
I11
tp485
I1977
s(I22
I20
I27
I21
I20
I20
tp486
I259
s(I10
I8
I26
I21
I7
I8
tp487
I2715
s(I9
I12
I21
I21
I9
I9
tp488
I2274
s(I10
I10
I24
I21
I8
I10
tp489
I2358
s(I9
I9
I25
I21
I9
I6
tp490
I2670
s(I21
I21
I23
I21
I21
I18
tp491
I107
s(I6
I5
I23
I21
I5
I3
tp492
I3313
s(I7
I7
I21
I21
I6
I5
tp493
I2903
s(I7
I6
I23
I21
I6
I5
tp494
I3052
s(I21
I19
I24
I21
I19
I19
tp495
I289
s(I18
I19
I21
I21
I18
I18
tp496
I396
s(I5
I7
I24
I21
I4
I5
tp497
I3252
s(I17
I18
I27
I21
I17
I17
tp498
I865
s(I19
I20
I27
I21
I18
I18
tp499
I551
s(I3
I3
I27
I21
I1
I3
tp500
I3959
s(I1
I2
I21
I21
I0
I0
tp501
I4055
s(I1
I1
I21
I21
I0
I1
tp502
I4054
s(I16
I16
I26
I21
I13
I16
tp503
I1236
s(I17
I16
I26
I21
I15
I15
tp504
I1137
s(I5
I6
I21
I21
I5
I5
tp505
I3111
s(I20
I21
I21
I21
I20
I19
tp506
I96
s(I0
I3
I25
I21
I0
I0
tp507
I4222
s(I6
I4
I25
I21
I4
I3
tp508
I3509
s(I6
I7
I24
I21
I5
I5
tp509
I3145
s(I15
I16
I27
I21
I15
I13
tp510
I1392
s(I6
I6
I21
I21
I6
I6
tp511
I2960
s(I11
I11
I26
I21
I11
I9
tp512
I2238
s(I15
I13
I22
I21
I13
I13
tp513
I1427
s(I5
I6
I27
I21
I5
I4
tp514
I3441
s(I13
I15
I25
I21
I13
I12
tp515
I1616
s(I6
I5
I22
I21
I5
I3
tp516
I3270
s(I6
I7
I24
I21
I6
I4
tp517
I3149
s(I14
I13
I26
I21
I13
I12
tp518
I1719
s(I15
I15
I24
I21
I14
I13
tp519
I1360
s(I2
I2
I22
I21
I2
I0
tp520
I3948
s(I15
I17
I22
I21
I15
I14
tp521
I1063
s(I17
I16
I25
I21
I16
I14
tp522
I1097
s(I7
I7
I23
I21
I6
I5
tp523
I2997
s(I20
I19
I26
I21
I17
I19
tp524
I510
s(I19
I20
I24
I21
I18
I19
tp525
I376
s(I4
I6
I26
I21
I3
I4
tp526
I3552
s(I19
I19
I27
I21
I19
I18
tp527
I554
s(I19
I19
I21
I21
I17
I19
tp528
I352
s(I18
I17
I26
I21
I16
I17
tp529
I876
s(I6
I8
I25
I21
I6
I6
tp530
I3033
s(I1
I0
I23
I21
I0
I0
tp531
I4192
s(I16
I16
I22
I21
I16
I16
tp532
I907
s(I7
I9
I24
I21
I7
I6
tp533
I2833
s(I13
I12
I27
I21
I12
I10
tp534
I2023
s(I5
I5
I22
I21
I3
I5
tp535
I3314
s(I3
I6
I26
I21
I3
I3
tp536
I3761
s(I20
I20
I27
I21
I19
I20
tp537
I357
s(I16
I16
I23
I21
I16
I14
tp538
I1055
s(I19
I20
I27
I21
I19
I19
tp539
I453
s(I19
I19
I24
I21
I18
I18
tp540
I474
s(I2
I0
I25
I21
I0
I0
tp541
I4207
s(I9
I9
I26
I21
I8
I8
tp542
I2655
s(I19
I19
I21
I21
I17
I18
tp543
I395
s(I4
I5
I23
I21
I4
I3
tp544
I3471
s(I0
I3
I23
I21
I0
I0
tp545
I4193
s(I9
I11
I26
I21
I9
I9
tp546
I2446
s(I15
I15
I26
I21
I14
I13
tp547
I1450
s(I24
I21
I27
I21
I20
I20
tp548
I132
s(I15
I16
I23
I21
I15
I13
tp549
I1212
s(I9
I9
I26
I21
I8
I7
tp550
I2710
s(I20
I19
I22
I21
I19
I18
tp551
I303
s(I9
I10
I25
I21
I9
I7
tp552
I2566
s(I14
I13
I24
I21
I12
I13
tp553
I1622
s(I7
I5
I26
I21
I5
I4
tp554
I3346
s(I10
I11
I27
I21
I10
I8
tp555
I2442
s(I4
I4
I21
I21
I4
I1
tp556
I3540
s(I18
I18
I25
I21
I17
I18
tp557
I670
s(I6
I6
I25
I21
I5
I4
tp558
I3293
s(I15
I17
I26
I21
I15
I14
tp559
I1243
s(I16
I16
I25
I21
I14
I15
tp560
I1190
s(I2
I4
I25
I21
I1
I2
tp561
I3925
s(I18
I20
I22
I21
I17
I18
tp562
I440
s(I9
I9
I27
I21
I8
I7
tp563
I2757
s(I3
I2
I21
I21
I0
I2
tp564
I3853
s(I5
I4
I24
I21
I4
I4
tp565
I3459
s(I8
I8
I27
I21
I7
I8
tp566
I2856
s(I4
I4
I24
I21
I3
I4
tp567
I3563
s(I7
I6
I21
I21
I6
I4
tp568
I3017
s(I12
I13
I25
I21
I10
I12
tp569
I1931
s(I18
I19
I23
I21
I18
I17
tp570
I534
s(I19
I18
I26
I21
I16
I18
tp571
I716
s(I10
I9
I24
I21
I9
I9
tp572
I2409
s(I16
I15
I24
I21
I15
I14
tp573
I1205
s(I19
I20
I26
I21
I17
I19
tp574
I508
s(I13
I13
I27
I21
I10
I13
tp575
I1913
s(I9
I9
I25
I21
I9
I7
tp576
I2615
s(I8
I5
I25
I21
I5
I5
tp577
I3297
s(I16
I16
I27
I21
I16
I14
tp578
I1235
s(I3
I0
I25
I21
I0
I0
tp579
I4223
s(I4
I4
I24
I21
I1
I4
tp580
I3666
s(I12
I12
I22
I21
I9
I12
tp581
I1896
s(I17
I19
I21
I21
I17
I17
tp582
I546
s(I24
I21
I26
I21
I20
I18
tp583
I183
s(I5
I5
I23
I21
I4
I5
tp584
I3306
s(I1
I1
I21
I21
I0
I0
tp585
I4095
s(I8
I8
I25
I21
I5
I8
tp586
I2869
s(I5
I5
I26
I21
I5
I4
tp587
I3448
s(I2
I4
I25
I21
I2
I2
tp588
I3873
s(I4
I5
I24
I21
I4
I4
tp589
I3458
s(I9
I9
I26
I21
I9
I6
tp590
I2717
s(I20
I20
I22
I21
I19
I19
tp591
I208
s(I12
I14
I21
I21
I12
I12
tp592
I1593
s(I21
I21
I23
I21
I20
I18
tp593
I158
s(I6
I5
I24
I21
I4
I5
tp594
I3302
s(I12
I12
I27
I21
I12
I10
tp595
I2075
s(I16
I16
I24
I21
I15
I14
tp596
I1150
s(I12
I12
I21
I21
I12
I10
tp597
I1805
s(I16
I15
I22
I21
I15
I14
tp598
I1119
s(I15
I16
I25
I21
I13
I15
tp599
I1301
s(I15
I15
I25
I21
I13
I15
tp600
I1351
s(I7
I6
I25
I21
I6
I4
tp601
I3197
s(I10
I10
I22
I21
I8
I10
tp602
I2264
s(I15
I15
I24
I21
I13
I15
tp603
I1308
s(I0
I0
I26
I21
I0
I0
tp604
I4237
s(I10
I10
I25
I21
I9
I8
tp605
I2453
s(I10
I9
I25
I21
I7
I9
tp606
I2563
s(I14
I14
I24
I21
I14
I11
tp607
I1577
s(I13
I14
I24
I21
I12
I12
tp608
I1675
s(I13
I16
I23
I21
I13
I13
tp609
I1528
s(I17
I19
I27
I21
I17
I17
tp610
I813
s(I9
I9
I27
I21
I9
I6
tp611
I2764
s(I3
I3
I24
I21
I3
I1
tp612
I3832
s(I7
I7
I26
I21
I7
I4
tp613
I3137
s(I15
I15
I27
I21
I15
I15
tp614
I1340
s(I12
I9
I25
I21
I9
I9
tp615
I2457
s(I22
I21
I25
I21
I20
I20
tp616
I116
s(I7
I8
I22
I21
I6
I6
tp617
I2845
s(I20
I19
I24
I21
I18
I18
tp618
I426
s(I11
I12
I27
I21
I10
I11
tp619
I2178
s(I13
I12
I23
I21
I11
I11
tp620
I1840
s(I16
I17
I25
I21
I15
I15
tp621
I1092
s(I14
I14
I23
I21
I14
I12
tp622
I1475
s(I5
I3
I27
I21
I3
I2
tp623
I3813
s(I14
I13
I26
I21
I12
I12
tp624
I1767
s(I3
I0
I21
I21
I0
I0
tp625
I4136
s(I8
I7
I22
I21
I7
I6
tp626
I2799
s(I17
I17
I22
I21
I16
I17
tp627
I743
s(I18
I20
I24
I21
I17
I18
tp628
I525
s(I7
I6
I27
I21
I6
I4
tp629
I3283
s(I9
I11
I23
I21
I9
I9
tp630
I2313
s(I11
I11
I21
I21
I10
I11
tp631
I1960
s(I4
I7
I26
I21
I4
I4
tp632
I3551
s(I15
I15
I21
I21
I15
I12
tp633
I1230
s(I6
I6
I24
I21
I6
I3
tp634
I3257
s(I27
I20
I27
I21
I20
I19
tp635
I97
s(I1
I1
I21
I21
I1
I1
tp636
I4006
s(I9
I8
I23
I21
I7
I7
tp637
I2680
s(I10
I13
I27
I21
I10
I10
tp638
I2338
s(I6
I6
I23
I21
I6
I4
tp639
I3155
s(I26
I21
I27
I21
I20
I20
tp640
I52
s(I14
I15
I26
I21
I14
I14
tp641
I1448
s(I16
I14
I24
I21
I14
I14
tp642
I1311
s(I3
I3
I21
I21
I2
I3
tp643
I3640
s(I7
I7
I21
I21
I5
I7
tp644
I2851
s(I24
I21
I25
I21
I20
I18
tp645
I136
s(I17
I18
I24
I21
I15
I17
tp646
I834
s(I16
I16
I23
I21
I13
I16
tp647
I1103
s(I17
I16
I22
I21
I14
I16
tp648
I956
s(I16
I18
I22
I21
I15
I16
tp649
I852
s(I14
I14
I21
I21
I14
I12
tp650
I1385
s(I14
I15
I22
I21
I12
I14
tp651
I1374
s(I8
I6
I21
I21
I6
I5
tp652
I2909
s(I18
I18
I25
I21
I16
I18
tp653
I721
s(I6
I4
I24
I21
I4
I4
tp654
I3411
s(I9
I10
I26
I21
I9
I7
tp655
I2609
s(I17
I16
I21
I21
I14
I16
tp656
I913
s(I12
I9
I27
I21
I9
I9
tp657
I2551
s(I16
I17
I27
I21
I16
I16
tp658
I1075
s(I5
I7
I26
I21
I4
I5
tp659
I3342
s(I9
I10
I25
I21
I8
I9
tp660
I2508
s(I6
I4
I22
I21
I4
I4
tp661
I3317
s(I22
I21
I24
I21
I21
I18
tp662
I120
s(I13
I12
I24
I21
I11
I12
tp663
I1832
s(I16
I17
I23
I21
I16
I15
tp664
I951
s(I14
I14
I27
I21
I14
I11
tp665
I1714
s(I7
I6
I21
I21
I6
I5
tp666
I2962
s(I1
I1
I23
I21
I1
I1
tp667
I4088
s(I13
I14
I27
I21
I11
I13
tp668
I1807
s(I15
I14
I22
I21
I14
I14
tp669
I1269
s(I2
I1
I23
I21
I0
I0
tp670
I4128
s(I13
I15
I22
I21
I12
I13
tp671
I1482
s(I16
I17
I21
I21
I16
I14
tp672
I916
s(I11
I11
I22
I21
I11
I9
tp673
I2058
s(I12
I10
I25
I21
I10
I10
tp674
I2194
s(I21
I19
I27
I21
I19
I19
tp675
I407
s(I15
I15
I22
I21
I14
I14
tp676
I1215
s(I11
I9
I24
I21
I9
I8
tp677
I2416
s(I5
I4
I25
I21
I4
I3
tp678
I3562
s(I16
I16
I27
I21
I14
I16
tp679
I1231
s(I10
I8
I21
I21
I8
I8
tp680
I2434
s(I1
I2
I24
I21
I0
I1
tp681
I4121
s(I8
I9
I24
I21
I6
I8
tp682
I2724
s(I8
I7
I21
I21
I7
I5
tp683
I2807
s(I18
I18
I26
I21
I15
I18
tp684
I816
s(I13
I13
I21
I21
I13
I10
tp685
I1650
s(I21
I21
I24
I21
I21
I20
tp686
I60
s(I12
I14
I25
I21
I12
I11
tp687
I1826
s(I3
I1
I22
I21
I0
I1
tp688
I4002
s(I10
I9
I22
I21
I7
I9
tp689
I2426
s(I13
I15
I27
I21
I13
I12
tp690
I1710
s(I6
I6
I24
I21
I4
I6
tp691
I3198
s(I3
I1
I27
I21
I1
I1
tp692
I4140
s(I2
I2
I23
I21
I0
I1
tp693
I4039
s(I7
I8
I24
I21
I7
I5
tp694
I2939
s(I20
I20
I25
I21
I19
I18
tp695
I371
s(I15
I14
I24
I21
I14
I12
tp696
I1470
s(I18
I17
I27
I21
I17
I16
tp697
I922
s(I4
I5
I26
I21
I4
I4
tp698
I3548
s(I5
I6
I22
I21
I4
I5
tp699
I3215
s(I17
I17
I21
I21
I15
I16
tp700
I800
s(I6
I6
I27
I21
I5
I5
tp701
I3332
s(I18
I17
I24
I21
I17
I15
tp702
I840
s(I5
I8
I23
I21
I5
I5
tp703
I3208
s(I0
I2
I23
I21
I0
I0
tp704
I4162
s(I20
I18
I22
I21
I18
I18
tp705
I392
s(I18
I18
I21
I21
I15
I18
tp706
I591
s(I19
I17
I23
I21
I17
I16
tp707
I693
s(I12
I12
I24
I21
I11
I11
tp708
I1939
s(I6
I7
I22
I21
I6
I4
tp709
I3059
s(I17
I18
I24
I21
I17
I17
tp710
I728
s(I17
I15
I24
I21
I15
I15
tp711
I1101
s(I13
I13
I23
I21
I13
I13
tp712
I1580
s(I12
I13
I23
I21
I12
I10
tp713
I1842
s(I11
I12
I25
I21
I9
I11
tp714
I2141
s(I12
I9
I26
I21
I9
I9
tp715
I2504
s(I21
I21
I27
I21
I21
I18
tp716
I274
s(I15
I15
I23
I21
I14
I13
tp717
I1317
s(I11
I11
I24
I21
I8
I11
tp718
I2196
s(I4
I5
I26
I21
I3
I4
tp719
I3605
s(I15
I13
I26
I21
I13
I12
tp720
I1666
s(I15
I16
I24
I21
I15
I15
tp721
I1148
s(I22
I21
I27
I21
I20
I18
tp722
I306
s(I6
I6
I24
I21
I5
I5
tp723
I3199
s(I6
I7
I26
I21
I6
I6
tp724
I3128
s(I1
I2
I27
I21
I0
I0
tp725
I4214
s(I4
I5
I23
I21
I2
I4
tp726
I3517
s(I17
I17
I27
I21
I17
I16
tp727
I971
s(I5
I5
I26
I21
I3
I4
tp728
I3547
s(I7
I7
I22
I21
I7
I5
tp729
I2898
s(I10
I9
I23
I21
I9
I9
tp730
I2366
s(I21
I20
I27
I21
I18
I20
tp731
I360
s(I7
I7
I23
I21
I7
I7
tp732
I2840
s(I2
I3
I26
I21
I2
I1
tp733
I4024
s(I5
I7
I25
I21
I5
I5
tp734
I3243
s(I13
I13
I27
I21
I12
I12
tp735
I1862
s(I7
I9
I25
I21
I6
I7
tp736
I2875
s(I17
I15
I27
I21
I15
I14
tp737
I1293
s(I2
I1
I25
I21
I1
I1
tp738
I4113
s(I8
I7
I24
I21
I6
I7
tp739
I2882
s(I10
I11
I22
I21
I8
I10
tp740
I2214
s(I13
I12
I24
I21
I12
I11
tp741
I1835
s(I10
I7
I24
I21
I7
I7
tp742
I2834
s(I1
I3
I24
I21
I0
I1
tp743
I4081
s(I15
I14
I25
I21
I13
I13
tp744
I1514
s(I6
I7
I25
I21
I5
I5
tp745
I3192
s(I12
I9
I22
I21
I9
I9
tp746
I2324
s(I16
I15
I25
I21
I15
I15
tp747
I1192
s(I14
I14
I25
I21
I13
I12
tp748
I1613
s(I15
I14
I27
I21
I13
I14
tp749
I1549
s(I4
I4
I27
I21
I1
I4
tp750
I3803
s(I10
I9
I26
I21
I7
I9
tp751
I2606
s(I21
I18
I25
I21
I18
I18
tp752
I569
s(I11
I11
I24
I21
I11
I9
tp753
I2152
s(I5
I7
I23
I21
I4
I5
tp754
I3209
s(I11
I9
I26
I21
I9
I8
tp755
I2506
s(I16
I14
I22
I21
I14
I14
tp756
I1217
s(I7
I7
I25
I21
I7
I4
tp757
I3090
s(I23
I21
I27
I21
I20
I18
tp758
I265
s(I11
I12
I23
I21
I11
I11
tp759
I1945
s(I18
I19
I21
I21
I17
I17
tp760
I496
s(I12
I12
I23
I21
I12
I9
tp761
I1954
s(I16
I17
I25
I21
I16
I14
tp762
I1096
s(I6
I7
I21
I21
I5
I6
tp763
I2958
s(I10
I10
I27
I21
I9
I8
tp764
I2547
s(I9
I9
I21
I21
I7
I8
tp765
I2480
s(I20
I21
I24
I21
I20
I20
tp766
I150
s(I19
I20
I21
I21
I17
I19
tp767
I308
s(I14
I16
I24
I21
I13
I14
tp768
I1362
s(I3
I3
I24
I21
I3
I0
tp769
I3887
s(I19
I18
I23
I21
I16
I18
tp770
I581
s(I4
I5
I25
I21
I4
I3
tp771
I3561
s(I19
I18
I25
I21
I18
I16
tp772
I677
s(I12
I14
I24
I21
I11
I12
tp773
I1782
s(I20
I19
I27
I21
I19
I19
tp774
I454
s(I14
I12
I23
I21
I12
I12
tp775
I1684
s(I17
I17
I21
I21
I16
I15
tp776
I803
s(I3
I5
I24
I21
I2
I3
tp777
I3672
s(I21
I21
I22
I21
I20
I20
tp778
I31
s(I14
I16
I23
I21
I14
I14
tp779
I1263
s(I18
I19
I22
I21
I18
I18
tp780
I437
s(I11
I10
I25
I21
I8
I10
tp781
I2353
s(I19
I20
I24
I21
I19
I18
tp782
I379
s(I24
I21
I26
I21
I21
I19
tp783
I86
s(I2
I1
I22
I21
I0
I1
tp784
I4050
s(I18
I18
I24
I21
I18
I17
tp785
I629
s(I4
I4
I25
I21
I4
I4
tp786
I3560
s(I8
I7
I24
I21
I7
I6
tp787
I2885
s(I5
I5
I27
I21
I2
I5
tp788
I3593
s(I7
I9
I24
I21
I6
I7
tp789
I2832
s(I15
I15
I26
I21
I15
I14
tp790
I1348
s(I4
I5
I26
I21
I4
I3
tp791
I3608
s(I9
I9
I23
I21
I9
I9
tp792
I2420
s(I17
I17
I24
I21
I17
I15
tp793
I892
s(I9
I9
I23
I21
I7
I8
tp794
I2574
s(I9
I9
I21
I21
I8
I7
tp795
I2483
s(I5
I6
I24
I21
I4
I5
tp796
I3301
s(I9
I12
I23
I21
I9
I9
tp797
I2368
s(I6
I5
I23
I21
I4
I5
tp798
I3259
s(I13
I11
I25
I21
I11
I10
tp799
I2039
s(I4
I3
I21
I21
I2
I2
tp800
I3644
s(I6
I7
I27
I21
I5
I6
tp801
I3228
s(I9
I8
I27
I21
I7
I8
tp802
I2809
s(I4
I1
I23
I21
I1
I1
tp803
I4046
s(I9
I7
I21
I21
I7
I7
tp804
I2644
s(I14
I13
I22
I21
I11
I13
tp805
I1586
s(I15
I16
I23
I21
I15
I14
tp806
I1161
s(I4
I4
I27
I21
I4
I2
tp807
I3755
s(I7
I7
I27
I21
I6
I7
tp808
I3066
s(I21
I21
I27
I21
I20
I18
tp809
I319
s(I18
I18
I25
I21
I18
I17
tp810
I675
s(I23
I21
I24
I21
I21
I18
tp811
I82
s(I6
I6
I25
I21
I6
I3
tp812
I3300
s(I15
I17
I26
I21
I14
I15
tp813
I1242
s(I16
I16
I25
I21
I15
I14
tp814
I1193
s(I14
I13
I27
I21
I12
I12
tp815
I1810
s(I17
I16
I25
I21
I16
I16
tp816
I982
s(I8
I8
I21
I21
I8
I7
tp817
I2595
s(I18
I20
I27
I21
I18
I18
tp818
I605
s(I13
I13
I22
I21
I13
I12
tp819
I1588
s(I6
I8
I23
I21
I5
I6
tp820
I2999
s(I15
I13
I21
I21
I13
I12
tp821
I1439
s(I14
I14
I27
I21
I12
I14
tp822
I1651
s(I2
I1
I21
I21
I0
I0
tp823
I4056
s(I13
I14
I27
I21
I13
I12
tp824
I1761
s(I8
I9
I24
I21
I8
I6
tp825
I2729
s(I11
I11
I21
I21
I11
I11
tp826
I1910
s(I5
I6
I22
I21
I5
I3
tp827
I3269
s(I2
I2
I27
I21
I1
I2
tp828
I4098
s(I20
I20
I26
I21
I20
I19
tp829
I321
s(I17
I19
I23
I21
I17
I16
tp830
I690
s(I5
I4
I25
I21
I4
I2
tp831
I3617
s(I3
I3
I25
I21
I3
I2
tp832
I3825
s(I9
I9
I24
I21
I9
I7
tp833
I2572
s(I17
I17
I23
I21
I16
I17
tp834
I786
s(I16
I19
I24
I21
I16
I16
tp835
I941
s(I1
I2
I26
I21
I0
I1
tp836
I4179
s(I15
I16
I26
I21
I15
I14
tp837
I1298
s(I6
I5
I23
I21
I3
I5
tp838
I3309
s(I6
I6
I21
I21
I5
I6
tp839
I3010
s(I9
I7
I25
I21
I6
I7
tp840
I2878
s(I13
I13
I25
I21
I13
I13
tp841
I1670
s(I6
I5
I22
I21
I3
I5
tp842
I3266
s(I19
I17
I25
I21
I17
I17
tp843
I724
s(I6
I9
I25
I21
I6
I6
tp844
I3084
s(I2
I4
I26
I21
I1
I2
tp845
I3970
s(I9
I8
I27
I21
I8
I7
tp846
I2812
s(I3
I4
I26
I21
I2
I2
tp847
I3865
s(I10
I11
I24
I21
I9
I10
tp848
I2251
s(I8
I6
I25
I21
I6
I5
tp849
I3089
s(I13
I11
I23
I21
I10
I11
tp850
I1952
s(I4
I2
I23
I21
I2
I2
tp851
I3784
s(I10
I8
I25
I21
I7
I8
tp852
I2668
s(I18
I18
I26
I21
I18
I16
tp853
I768
s(I8
I6
I24
I21
I6
I6
tp854
I2991
s(I9
I11
I22
I21
I9
I8
tp855
I2323
s(I6
I5
I27
I21
I4
I4
tp856
I3490
s(I3
I3
I26
I21
I1
I2
tp857
I3965
s(I19
I17
I24
I21
I17
I16
tp858
I736
s(I9
I8
I24
I21
I8
I8
tp859
I2619
s(I11
I9
I22
I21
I9
I9
tp860
I2267
s(I8
I8
I23
I21
I6
I7
tp861
I2784
s(I17
I18
I26
I21
I17
I17
tp862
I818
s(I2
I4
I21
I21
I2
I2
tp863
I3693
s(I15
I13
I25
I21
I13
I13
tp864
I1564
s(I5
I6
I27
I21
I5
I3
tp865
I3492
s(I14
I13
I25
I21
I13
I11
tp866
I1727
s(I13
I12
I25
I21
I11
I11
tp867
I1934
s(I2
I2
I23
I21
I0
I2
tp868
I3989
s(I8
I8
I26
I21
I5
I8
tp869
I2916
s(I9
I7
I26
I21
I6
I7
tp870
I2925
s(I13
I12
I22
I21
I12
I11
tp871
I1749
s(I15
I15
I21
I21
I14
I15
tp872
I1120
s(I13
I13
I26
I21
I13
I13
tp873
I1717
s(I14
I15
I21
I21
I13
I14
tp874
I1278
s(I9
I8
I21
I21
I7
I8
tp875
I2539
s(I19
I19
I23
I21
I16
I19
tp876
I478
s(I17
I17
I25
I21
I17
I16
tp877
I885
s(I13
I15
I24
I21
I13
I13
tp878
I1520
s(I8
I9
I25
I21
I7
I8
tp879
I2718
s(I7
I6
I22
I21
I5
I6
tp880
I3006
s(I2
I3
I21
I21
I0
I2
tp881
I3851
s(I9
I9
I27
I21
I9
I8
tp882
I2651
s(I24
I21
I25
I21
I21
I21
tp883
I4
s(I11
I8
I25
I21
I8
I8
tp884
I2667
s(I27
I21
I27
I21
I20
I20
tp885
I26
s(I12
I13
I27
I21
I12
I11
tp886
I1971
s(I19
I16
I24
I21
I16
I16
tp887
I944
s(I2
I3
I25
I21
I2
I1
tp888
I3979
s(I12
I13
I25
I21
I12
I10
tp889
I1936
s(I8
I10
I26
I21
I8
I7
tp890
I2713
s(I15
I15
I23
I21
I13
I14
tp891
I1314
s(I10
I7
I22
I21
I7
I7
tp892
I2744
s(I5
I7
I27
I21
I5
I4
tp893
I3390
s(I9
I12
I22
I21
I9
I9
tp894
I2321
s(I21
I19
I24
I21
I18
I19
tp895
I337
s(I18
I18
I27
I21
I17
I16
tp896
I867
s(I22
I21
I23
I21
I21
I20
tp897
I14
s(I10
I10
I26
I21
I10
I10
tp898
I2347
s(I22
I21
I24
I21
I20
I21
tp899
I34
s(I12
I11
I21
I21
I11
I10
tp900
I1912
s(I16
I17
I27
I21
I16
I14
tp901
I1182
s(I1
I1
I24
I21
I1
I0
tp902
I4160
s(I19
I19
I25
I21
I19
I17
tp903
I519
s(I12
I14
I23
I21
I12
I11
tp904
I1740
s(I18
I19
I23
I21
I16
I18
tp905
I579
s(I9
I8
I21
I21
I8
I6
tp906
I2597
s(I9
I10
I27
I21
I8
I8
tp907
I2648
s(I1
I1
I26
I21
I0
I1
tp908
I4201
s(I8
I11
I21
I21
I8
I8
tp909
I2484
s(I8
I8
I24
I21
I8
I5
tp910
I2837
s(I10
I11
I22
I21
I10
I8
tp911
I2219
s(I15
I15
I22
I21
I15
I13
tp912
I1218
s(I20
I20
I21
I21
I20
I18
tp913
I187
s(I2
I4
I24
I21
I2
I2
tp914
I3830
s(I10
I11
I26
I21
I10
I9
tp915
I2348
s(I19
I19
I22
I21
I18
I17
tp916
I439
s(I4
I4
I24
I21
I3
I3
tp917
I3619
s(I8
I7
I22
I21
I7
I5
tp918
I2850
s(I4
I5
I27
I21
I2
I4
tp919
I3697
s(I8
I8
I22
I21
I7
I8
tp920
I2633
s(I9
I8
I22
I21
I7
I7
tp921
I2637
s(I17
I17
I25
I21
I16
I15
tp922
I983
s(I3
I1
I21
I21
I1
I1
tp923
I3904
s(I1
I2
I27
I21
I0
I1
tp924
I4196
s(I6
I7
I26
I21
I5
I6
tp925
I3185
s(I7
I7
I24
I21
I7
I5
tp926
I2992
s(I10
I9
I25
I21
I9
I8
tp927
I2512
s(I17
I16
I23
I21
I16
I14
tp928
I1003
s(I9
I9
I27
I21
I7
I9
tp929
I2701
s(I5
I5
I25
I21
I4
I5
tp930
I3400
s(I6
I6
I24
I21
I4
I5
tp931
I3247
s(I4
I5
I27
I21
I4
I4
tp932
I3595
s(I3
I3
I23
I21
I3
I3
tp933
I3680
s(I10
I11
I25
I21
I8
I10
tp934
I2351
s(I7
I7
I27
I21
I7
I4
tp935
I3184
s(I9
I9
I27
I21
I9
I7
tp936
I2705
s(I11
I8
I21
I21
I8
I8
tp937
I2487
s(I10
I9
I26
I21
I9
I7
tp938
I2610
s(I8
I11
I25
I21
I8
I8
tp939
I2664
s(I15
I15
I25
I21
I15
I12
tp940
I1410
s(I2
I4
I21
I21
I2
I1
tp941
I3746
s(I6
I6
I23
I21
I4
I6
tp942
I3151
s(I7
I5
I21
I21
I5
I4
tp943
I3119
s(I9
I9
I21
I21
I9
I9
tp944
I2330
s(I18
I17
I25
I21
I17
I17
tp945
I772
s(I5
I3
I24
I21
I2
I3
tp946
I3675
s(I5
I4
I24
I21
I4
I3
tp947
I3515
s(I13
I12
I23
I21
I10
I12
tp948
I1839
s(I17
I15
I21
I21
I14
I15
tp949
I1018
s(I7
I7
I26
I21
I6
I7
tp950
I3023
s(I9
I12
I26
I21
I9
I9
tp951
I2501
s(I20
I17
I21
I21
I17
I17
tp952
I599
s(I14
I16
I26
I21
I13
I14
tp953
I1452
s(I8
I7
I25
I21
I7
I7
tp954
I2872
s(I19
I18
I22
I21
I17
I17
tp955
I540
s(I14
I14
I24
I21
I14
I12
tp956
I1522
s(I18
I16
I22
I21
I16
I16
tp957
I797
s(I9
I8
I26
I21
I8
I6
tp958
I2820
s(I22
I21
I27
I21
I21
I21
tp959
I113
s(I11
I12
I25
I21
I11
I10
tp960
I2091
s(I9
I8
I25
I21
I8
I6
tp961
I2777
s(I5
I5
I25
I21
I5
I5
tp962
I3350
s(I13
I14
I26
I21
I13
I11
tp963
I1769
s(I19
I19
I26
I21
I18
I17
tp964
I612
s(I4
I3
I26
I21
I2
I2
tp965
I3867
s(I16
I15
I21
I21
I15
I15
tp966
I1012
s(I5
I5
I21
I21
I4
I4
tp967
I3272
s(I5
I4
I23
I21
I4
I2
tp968
I3523
s(I4
I6
I25
I21
I3
I4
tp969
I3505
s(I4
I5
I23
I21
I3
I3
tp970
I3518
s(I11
I12
I27
I21
I10
I10
tp971
I2228
s(I8
I5
I26
I21
I5
I5
tp972
I3344
s(I14
I13
I22
I21
I13
I13
tp973
I1479
s(I14
I15
I24
I21
I14
I14
tp974
I1358
s(I9
I10
I24
I21
I8
I9
tp975
I2461
s(I7
I6
I21
I21
I4
I6
tp976
I3013
s(I11
I10
I25
I21
I9
I9
tp977
I2354
s(I12
I12
I22
I21
I12
I9
tp978
I1907
s(I1
I2
I24
I21
I1
I1
tp979
I4077
s(I15
I18
I27
I21
I15
I15
tp980
I1288
s(I2
I2
I25
I21
I1
I2
tp981
I4026
s(I6
I6
I24
I21
I6
I5
tp982
I3148
s(I8
I7
I21
I21
I5
I7
tp983
I2803
s(I7
I9
I25
I21
I7
I6
tp984
I2876
s(I2
I4
I22
I21
I1
I2
tp985
I3792
s(I8
I10
I25
I21
I8
I7
tp986
I2666
s(I11
I11
I23
I21
I10
I10
tp987
I2102
s(I5
I5
I21
I21
I2
I5
tp988
I3319
s(I15
I16
I26
I21
I14
I15
tp989
I1295
s(I10
I10
I23
I21
I8
I10
tp990
I2311
s(I3
I5
I25
I21
I2
I3
tp991
I3715
s(I2
I1
I27
I21
I1
I1
tp992
I4171
s(I21
I21
I23
I21
I21
I20
tp993
I30
s(I19
I17
I22
I21
I16
I17
tp994
I646
s(I4
I5
I21
I21
I4
I2
tp995
I3436
s(I16
I16
I25
I21
I14
I16
tp996
I1141
s(I16
I14
I21
I21
I13
I14
tp997
I1228
s(I14
I14
I25
I21
I14
I11
tp998
I1620
s(I4
I6
I23
I21
I3
I4
tp999
I3419
s(I17
I18
I27
I21
I17
I15
tp1000
I972
s(I19
I17
I27
I21
I17
I17
tp1001
I814
s(I6
I8
I26
I21
I6
I6
tp1002
I3076
s(I1
I2
I22
I21
I0
I1
tp1003
I4049
s(I19
I19
I25
I21
I18
I19
tp1004
I465
s(I1
I3
I21
I21
I1
I1
tp1005
I3903
s(I16
I16
I26
I21
I14
I16
tp1006
I1184
s(I23
I21
I27
I21
I21
I19
tp1007
I176
s(I10
I10
I26
I21
I7
I10
tp1008
I2496
s(I15
I16
I27
I21
I15
I15
tp1009
I1285
s(I21
I20
I26
I21
I19
I19
tp1010
I324
s(I2
I3
I26
I21
I0
I2
tp1011
I4064
s(I17
I18
I25
I21
I17
I16
tp1012
I831
s(I6
I6
I24
I21
I5
I6
tp1013
I3143
s(I6
I5
I22
I21
I5
I5
tp1014
I3159
s(I19
I19
I22
I21
I19
I19
tp1015
I301
s(I6
I7
I24
I21
I6
I6
tp1016
I3038
s(I2
I0
I26
I21
I0
I0
tp1017
I4219
s(I4
I3
I22
I21
I1
I3
tp1018
I3686
s(I21
I21
I22
I21
I21
I19
tp1019
I32
s(I5
I4
I24
I21
I3
I4
tp1020
I3512
s(I7
I8
I21
I21
I7
I7
tp1021
I2691
s(I8
I8
I25
I21
I8
I6
tp1022
I2825
s(I7
I7
I23
I21
I6
I7
tp1023
I2886
s(I2
I4
I25
I21
I2
I1
tp1024
I3926
s(I19
I19
I27
I21
I19
I16
tp1025
I664
s(I3
I4
I23
I21
I2
I3
tp1026
I3678
s(I11
I10
I24
I21
I10
I9
tp1027
I2255
s(I17
I16
I27
I21
I16
I15
tp1028
I1132
s(I17
I17
I21
I21
I17
I14
tp1029
I810
s(I8
I7
I26
I21
I6
I7
tp1030
I2976
s(I2
I2
I27
I21
I1
I1
tp1031
I4138
s(I12
I12
I21
I21
I11
I12
tp1032
I1750
s(I9
I9
I25
I21
I8
I9
tp1033
I2560
s(I12
I13
I23
I21
I10
I12
tp1034
I1837
s(I13
I13
I26
I21
I11
I12
tp1035
I1867
s(I10
I12
I24
I21
I10
I10
tp1036
I2150
s(I7
I6
I22
I21
I4
I6
tp1037
I3056
s(I18
I18
I21
I21
I17
I17
tp1038
I545
s(I15
I15
I26
I21
I14
I15
tp1039
I1343
s(I11
I11
I27
I21
I10
I10
tp1040
I2282
s(I15
I16
I23
I21
I15
I15
tp1041
I1105
s(I9
I9
I26
I21
I7
I9
tp1042
I2654
s(I4
I2
I23
I21
I2
I1
tp1043
I3843
s(I18
I15
I24
I21
I15
I15
tp1044
I1154
s(I13
I13
I22
I21
I11
I13
tp1045
I1634
s(I12
I12
I23
I21
I12
I10
tp1046
I1895
s(I10
I11
I26
I21
I9
I10
tp1047
I2345
s(I2
I3
I26
I21
I2
I2
tp1048
I3966
s(I5
I7
I22
I21
I4
I5
tp1049
I3162
s(I0
I0
I23
I21
I0
I0
tp1050
I4212
s(I6
I6
I25
I21
I5
I6
tp1051
I3190
s(I21
I20
I27
I21
I20
I18
tp1052
I362
s(I20
I18
I23
I21
I18
I18
tp1053
I433
s(I6
I6
I24
I21
I3
I6
tp1054
I3246
s(I12
I12
I25
I21
I9
I12
tp1055
I2029
s(I15
I14
I23
I21
I12
I14
tp1056
I1419
s(I15
I13
I23
I21
I13
I12
tp1057
I1533
s(I26
I21
I27
I21
I21
I19
tp1058
I53
s(I19
I19
I26
I21
I19
I19
tp1059
I462
s(I0
I0
I22
I21
I0
I0
tp1060
I4195
s(I17
I18
I21
I21
I16
I16
tp1061
I702
s(I4
I5
I24
I21
I3
I3
tp1062
I3565
s(I23
I21
I24
I21
I20
I19
tp1063
I81
s(I1
I2
I25
I21
I1
I1
tp1064
I4112
s(I9
I9
I22
I21
I9
I7
tp1065
I2478
s(I27
I20
I27
I21
I20
I20
tp1066
I55
s(I16
I14
I26
I21
I14
I13
tp1067
I1456
s(I6
I8
I24
I21
I6
I5
tp1068
I3043
s(I7
I6
I26
I21
I6
I4
tp1069
I3240
s(I18
I20
I25
I21
I17
I18
tp1070
I567
s(I16
I18
I21
I21
I16
I16
tp1071
I753
s(I10
I11
I21
I21
I8
I10
tp1072
I2171
s(I6
I7
I27
I21
I6
I6
tp1073
I3175
s(I9
I12
I27
I21
I9
I9
tp1074
I2548
s(I6
I8
I23
I21
I6
I5
tp1075
I3000
s(I12
I10
I24
I21
I10
I9
tp1076
I2206
s(I5
I2
I21
I21
I2
I2
tp1077
I3747
s(I2
I2
I25
I21
I0
I2
tp1078
I4071
s(I14
I12
I22
I21
I11
I12
tp1079
I1695
s(I24
I21
I26
I21
I20
I20
tp1080
I85
s(I5
I5
I23
I21
I4
I3
tp1081
I3417
s(I19
I20
I23
I21
I19
I18
tp1082
I342
s(I5
I4
I25
I21
I3
I3
tp1083
I3614
s(I8
I9
I23
I21
I7
I8
tp1084
I2628
s(I13
I13
I27
I21
I12
I11
tp1085
I1917
s(I6
I6
I21
I21
I4
I5
tp1086
I3110
s(I16
I14
I25
I21
I14
I14
tp1087
I1354
s(I17
I17
I21
I21
I17
I17
tp1088
I651
s(I21
I21
I24
I21
I20
I18
tp1089
I200
s(I20
I18
I21
I21
I18
I18
tp1090
I355
s(I21
I19
I25
I21
I19
I19
tp1091
I329
s(I3
I1
I24
I21
I1
I0
tp1092
I4085
s(I16
I13
I25
I21
I13
I13
tp1093
I1617
s(I9
I9
I21
I21
I9
I6
tp1094
I2490
s(I17
I18
I25
I21
I16
I17
tp1095
I828
s(I7
I8
I25
I21
I7
I6
tp1096
I2931
s(I6
I6
I21
I21
I6
I5
tp1097
I3015
s(I20
I20
I25
I21
I20
I20
tp1098
I236
s(I5
I7
I24
I21
I5
I5
tp1099
I3200
s(I13
I13
I23
I21
I12
I13
tp1100
I1626
s(I7
I9
I23
I21
I6
I7
tp1101
I2789
s(I5
I5
I27
I21
I3
I5
tp1102
I3541
s(I12
I13
I26
I21
I12
I11
tp1103
I1928
s(I12
I12
I23
I21
I10
I11
tp1104
I1944
s(I17
I18
I21
I21
I17
I15
tp1105
I706
s(I10
I11
I24
I21
I10
I9
tp1106
I2254
s(I10
I10
I25
I21
I9
I10
tp1107
I2350
s(I12
I12
I26
I21
I12
I10
tp1108
I2028
s(I12
I12
I24
I21
I10
I11
tp1109
I1987
s(I5
I5
I27
I21
I5
I2
tp1110
I3604
s(I10
I12
I22
I21
I9
I10
tp1111
I2112
s(I16
I17
I22
I21
I16
I15
tp1112
I908
s(I4
I7
I24
I21
I4
I4
tp1113
I3461
s(I14
I16
I21
I21
I13
I14
tp1114
I1225
s(I5
I3
I22
I21
I3
I2
tp1115
I3586
s(I20
I17
I23
I21
I17
I17
tp1116
I691
s(I3
I3
I26
I21
I0
I3
tp1117
I3964
s(I15
I15
I24
I21
I15
I13
tp1118
I1312
s(I15
I15
I27
I21
I15
I13
tp1119
I1445
s(I15
I14
I21
I21
I13
I13
tp1120
I1334
s(I8
I9
I21
I21
I8
I8
tp1121
I2481
s(I1
I3
I25
I21
I1
I1
tp1122
I4073
s(I0
I0
I24
I21
I0
I0
tp1123
I4224
s(I20
I20
I27
I21
I20
I18
tp1124
I406
s(I8
I8
I23
I21
I7
I6
tp1125
I2787
s(I6
I4
I25
I21
I4
I4
tp1126
I3454
s(I6
I4
I22
I21
I3
I4
tp1127
I3375
s(I0
I2
I21
I21
I0
I0
tp1128
I4096
s(I11
I11
I22
I21
I9
I10
tp1129
I2107
s(I14
I12
I23
I21
I12
I11
tp1130
I1743
s(I7
I6
I27
I21
I6
I6
tp1131
I3176
s(I11
I11
I21
I21
I10
I9
tp1132
I2063
s(I3
I2
I27
I21
I1
I1
tp1133
I4102
s(I22
I20
I25
I21
I20
I19
tp1134
I217
s(I15
I15
I21
I21
I15
I14
tp1135
I1125
s(I16
I18
I27
I21
I16
I16
tp1136
I1023
s(I18
I16
I23
I21
I15
I16
tp1137
I902
s(I16
I16
I21
I21
I16
I14
tp1138
I965
s(I10
I12
I21
I21
I9
I10
tp1139
I2065
s(I13
I12
I22
I21
I11
I12
tp1140
I1746
s(I4
I4
I25
I21
I4
I3
tp1141
I3615
s(I12
I13
I22
I21
I12
I10
tp1142
I1799
s(I12
I14
I27
I21
I11
I12
tp1143
I1919
s(I7
I8
I23
I21
I7
I5
tp1144
I2892
s(I26
I21
I27
I21
I20
I18
tp1145
I140
s(I14
I15
I26
I21
I14
I12
tp1146
I1559
s(I13
I14
I22
I21
I13
I11
tp1147
I1589
s(I7
I6
I22
I21
I6
I5
tp1148
I3009
s(I8
I10
I26
I21
I7
I8
tp1149
I2712
s(I7
I6
I24
I21
I6
I5
tp1150
I3095
s(I4
I5
I23
I21
I4
I4
tp1151
I3415
s(I25
I21
I26
I21
I20
I21
tp1152
I22
s(I11
I13
I27
I21
I11
I10
tp1153
I2130
s(I13
I11
I21
I21
I11
I11
tp1154
I1804
s(I10
I7
I26
I21
I7
I7
tp1155
I2924
s(I7
I8
I25
I21
I6
I7
tp1156
I2928
s(I6
I8
I21
I21
I6
I6
tp1157
I2853
s(I14
I17
I21
I21
I14
I14
tp1158
I1224
s(I14
I14
I21
I21
I14
I14
tp1159
I1280
s(I5
I5
I24
I21
I3
I4
tp1160
I3457
s(I7
I9
I23
I21
I7
I6
tp1161
I2790
s(I13
I13
I23
I21
I12
I11
tp1162
I1737
s(I12
I15
I24
I21
I12
I12
tp1163
I1781
s(I1
I1
I27
I21
I1
I0
tp1164
I4216
s(I9
I6
I22
I21
I6
I6
tp1165
I2954
s(I13
I12
I23
I21
I11
I12
tp1166
I1789
s(I14
I15
I25
I21
I14
I13
tp1167
I1461
s(I9
I10
I22
I21
I7
I9
tp1168
I2424
s(I5
I3
I26
I21
I3
I3
tp1169
I3707
s(I17
I19
I25
I21
I17
I17
tp1170
I723
s(I15
I13
I24
I21
I12
I13
tp1171
I1575
s(I9
I7
I21
I21
I6
I7
tp1172
I2698
s(I10
I10
I22
I21
I10
I9
tp1173
I2218
s(I18
I16
I24
I21
I15
I16
tp1174
I945
s(I10
I9
I24
I21
I8
I9
tp1175
I2462
s(I22
I20
I26
I21
I20
I20
tp1176
I213
s(I8
I8
I24
I21
I7
I6
tp1177
I2830
s(I2
I1
I25
I21
I1
I0
tp1178
I4156
s(I13
I12
I26
I21
I12
I12
tp1179
I1869
s(I17
I19
I26
I21
I16
I17
tp1180
I822
s(I5
I5
I24
I21
I5
I5
tp1181
I3303
s(I8
I8
I27
I21
I8
I7
tp1182
I2861
s(I20
I19
I27
I21
I18
I19
tp1183
I503
s(I4
I4
I22
I21
I4
I1
tp1184
I3587
s(I9
I8
I26
I21
I6
I8
tp1185
I2816
s(I20
I21
I26
I21
I20
I20
tp1186
I232
s(I17
I19
I21
I21
I16
I17
tp1187
I597
s(I17
I17
I25
I21
I17
I14
tp1188
I990
s(I8
I6
I24
I21
I6
I5
tp1189
I3046
s(I10
I9
I21
I21
I9
I9
tp1190
I2272
s(I8
I7
I21
I21
I7
I7
tp1191
I2692
s(I11
I9
I25
I21
I8
I9
tp1192
I2458
s(I19
I17
I22
I21
I17
I17
tp1193
I589
s(I21
I21
I24
I21
I21
I18
tp1194
I153
s(I15
I15
I25
I21
I14
I15
tp1195
I1300
s(I23
I21
I25
I21
I20
I21
tp1196
I39
s(I7
I6
I25
I21
I5
I6
tp1197
I3139
s(I21
I20
I24
I21
I19
I20
tp1198
I198
s(I13
I15
I26
I21
I13
I12
tp1199
I1663
s(I17
I18
I22
I21
I15
I17
tp1200
I744
s(I17
I18
I25
I21
I17
I15
tp1201
I886
s(I9
I9
I24
I21
I8
I9
tp1202
I2513
s(I4
I7
I22
I21
I4
I4
tp1203
I3371
s(I18
I16
I26
I21
I15
I16
tp1204
I1035
s(I3
I3
I25
I21
I2
I1
tp1205
I3923
s(I18
I18
I26
I21
I16
I17
tp1206
I817
s(I9
I11
I22
I21
I8
I9
tp1207
I2322
s(I18
I18
I23
I21
I17
I17
tp1208
I633
s(I15
I15
I27
I21
I12
I15
tp1209
I1493
s(I13
I14
I23
I21
I13
I12
tp1210
I1581
s(I10
I10
I25
I21
I8
I10
tp1211
I2401
s(I7
I7
I25
I21
I6
I7
tp1212
I2980
s(I7
I5
I24
I21
I4
I5
tp1213
I3255
s(I15
I14
I24
I21
I12
I14
tp1214
I1466
s(I17
I15
I21
I21
I15
I14
tp1215
I1019
s(I17
I19
I27
I21
I16
I17
tp1216
I869
s(I8
I6
I22
I21
I6
I6
tp1217
I2897
s(I10
I11
I21
I21
I10
I10
tp1218
I2061
s(I18
I15
I22
I21
I15
I15
tp1219
I1064
s(I15
I15
I23
I21
I14
I15
tp1220
I1206
s(I8
I6
I21
I21
I5
I6
tp1221
I2908
s(I11
I11
I25
I21
I11
I9
tp1222
I2195
s(I6
I3
I22
I21
I3
I3
tp1223
I3584
s(I3
I5
I24
I21
I3
I3
tp1224
I3620
s(I15
I16
I24
I21
I15
I13
tp1225
I1259
s(I22
I20
I27
I21
I19
I20
tp1226
I304
s(I8
I8
I24
I21
I6
I7
tp1227
I2827
s(I9
I8
I22
I21
I6
I8
tp1228
I2636
s(I16
I17
I23
I21
I16
I16
tp1229
I895
s(I21
I20
I26
I21
I20
I20
tp1230
I233
s(I4
I2
I26
I21
I2
I2
tp1231
I3917
s(I4
I3
I26
I21
I3
I3
tp1232
I3759
s(I16
I15
I21
I21
I14
I14
tp1233
I1124
s(I7
I8
I27
I21
I7
I6
tp1234
I3021
s(I2
I3
I26
I21
I2
I0
tp1235
I4069
s(I12
I11
I21
I21
I10
I10
tp1236
I1964
s(I4
I5
I24
I21
I2
I4
tp1237
I3564
s(I1
I4
I24
I21
I1
I1
tp1238
I4080
s(I17
I16
I24
I21
I16
I14
tp1239
I1050
s(I12
I13
I27
I21
I10
I12
tp1240
I2017
s(I17
I18
I27
I21
I15
I17
tp1241
I967
s(I6
I8
I24
I21
I5
I6
tp1242
I3042
s(I5
I6
I26
I21
I5
I4
tp1243
I3398
s(I5
I5
I27
I21
I4
I4
tp1244
I3542
s(I4
I3
I26
I21
I1
I3
tp1245
I3866
s(I8
I9
I25
I21
I7
I7
tp1246
I2772
s(I7
I7
I22
I21
I5
I7
tp1247
I2894
s(I16
I16
I23
I21
I16
I16
tp1248
I950
s(I10
I8
I24
I21
I8
I7
tp1249
I2626
s(I6
I3
I24
I21
I3
I3
tp1250
I3674
s(I12
I13
I27
I21
I12
I12
tp1251
I1915
s(I4
I4
I24
I21
I4
I1
tp1252
I3677
s(I14
I14
I25
I21
I13
I14
tp1253
I1510
s(I11
I11
I23
I21
I11
I11
tp1254
I2000
s(I20
I19
I25
I21
I19
I17
tp1255
I472
s(I2
I4
I27
I21
I2
I2
tp1256
I3961
s(I4
I4
I21
I21
I3
I4
tp1257
I3430
s(I6
I9
I26
I21
I6
I6
tp1258
I3131
s(I3
I5
I25
I21
I3
I2
tp1259
I3716
s(I13
I11
I23
I21
I11
I11
tp1260
I1894
s(I7
I7
I25
I21
I7
I6
tp1261
I2985
s(I23
I21
I27
I21
I20
I20
tp1262
I175
s(I18
I20
I26
I21
I18
I17
tp1263
I614
s(I15
I16
I22
I21
I13
I15
tp1264
I1164
s(I9
I10
I25
I21
I9
I9
tp1265
I2451
s(I12
I12
I23
I21
I12
I12
tp1266
I1790
s(I18
I19
I27
I21
I18
I17
tp1267
I711
s(I21
I18
I22
I21
I18
I18
tp1268
I442
s(I18
I17
I22
I21
I17
I15
tp1269
I750
s(I1
I3
I23
I21
I1
I0
tp1270
I4045
s(I9
I10
I22
I21
I9
I8
tp1271
I2378
s(I21
I20
I24
I21
I20
I19
tp1272
I199
s(I9
I8
I24
I21
I7
I7
tp1273
I2727
s(I1
I1
I23
I21
I0
I1
tp1274
I4126
s(I7
I7
I21
I21
I5
I6
tp1275
I2900
s(I2
I2
I23
I21
I2
I0
tp1276
I3993
s(I20
I21
I24
I21
I20
I18
tp1277
I243
s(I15
I16
I27
I21
I14
I14
tp1278
I1388
s(I3
I3
I24
I21
I3
I2
tp1279
I3778
s(I16
I16
I21
I21
I15
I15
tp1280
I962
s(I20
I19
I27
I21
I19
I17
tp1281
I556
s(I21
I21
I22
I21
I20
I18
tp1282
I112
s(I7
I8
I21
I21
I6
I6
tp1283
I2802
s(I10
I9
I24
I21
I9
I7
tp1284
I2520
s(I21
I21
I25
I21
I21
I21
tp1285
I58
s(I12
I12
I21
I21
I10
I11
tp1286
I1850
s(I10
I9
I25
I21
I9
I7
tp1287
I2567
s(I20
I19
I26
I21
I18
I18
tp1288
I511
s(I2
I2
I26
I21
I2
I0
tp1289
I4110
s(I13
I13
I21
I21
I12
I12
tp1290
I1592
s(I18
I19
I22
I21
I17
I18
tp1291
I489
s(I16
I18
I26
I21
I15
I16
tp1292
I1032
s(I12
I13
I23
I21
I11
I11
tp1293
I1838
s(I12
I10
I25
I21
I10
I9
tp1294
I2249
s(I8
I7
I26
I21
I7
I6
tp1295
I2979
s(I19
I19
I23
I21
I17
I19
tp1296
I430
s(I6
I6
I27
I21
I6
I5
tp1297
I3281
s(I5
I6
I25
I21
I5
I5
tp1298
I3291
s(I3
I1
I27
I21
I0
I1
tp1299
I4177
s(I15
I15
I26
I21
I15
I12
tp1300
I1457
s(I13
I13
I25
I21
I11
I13
tp1301
I1771
s(I11
I10
I23
I21
I9
I10
tp1302
I2209
s(I16
I18
I25
I21
I16
I16
tp1303
I933
s(I4
I2
I24
I21
I2
I1
tp1304
I3886
s(I6
I5
I24
I21
I5
I3
tp1305
I3360
s(I18
I18
I26
I21
I18
I15
tp1306
I827
s(I2
I3
I24
I21
I1
I1
tp1307
I3983
s(I6
I6
I27
I21
I4
I5
tp1308
I3384
s(I19
I18
I25
I21
I17
I17
tp1309
I674
s(I8
I6
I25
I21
I6
I6
tp1310
I3034
s(I3
I3
I22
I21
I1
I2
tp1311
I3787
s(I11
I11
I27
I21
I11
I11
tp1312
I2180
s(I15
I16
I23
I21
I14
I14
tp1313
I1208
s(I11
I13
I24
I21
I10
I11
tp1314
I1992
s(I17
I18
I24
I21
I16
I17
tp1315
I781
s(I14
I14
I22
I21
I14
I13
tp1316
I1378
s(I11
I13
I25
I21
I10
I11
tp1317
I2035
s(I4
I4
I27
I21
I4
I4
tp1318
I3650
s(I13
I14
I24
I21
I13
I12
tp1319
I1624
s(I20
I20
I23
I21
I20
I20
tp1320
I154
s(I12
I13
I21
I21
I12
I10
tp1321
I1756
s(I1
I1
I25
I21
I1
I0
tp1322
I4187
s(I23
I21
I24
I21
I21
I20
tp1323
I17
s(I6
I6
I25
I21
I6
I5
tp1324
I3195
s(I11
I8
I22
I21
I8
I8
tp1325
I2534
s(I8
I9
I21
I21
I7
I8
tp1326
I2538
s(I19
I20
I25
I21
I19
I19
tp1327
I369
s(I12
I9
I23
I21
I9
I9
tp1328
I2371
s(I5
I4
I26
I21
I4
I4
tp1329
I3549
s(I4
I4
I26
I21
I4
I2
tp1330
I3708
s(I14
I12
I25
I21
I12
I12
tp1331
I1774
s(I4
I4
I24
I21
I2
I3
tp1332
I3667
s(I17
I14
I25
I21
I14
I14
tp1333
I1407
s(I8
I9
I22
I21
I8
I8
tp1334
I2528
s(I7
I8
I22
I21
I6
I7
tp1335
I2795
s(I18
I16
I22
I21
I15
I16
tp1336
I855
s(I2
I2
I27
I21
I1
I0
tp1337
I4172
s(I10
I11
I25
I21
I9
I10
tp1338
I2298
s(I13
I14
I25
I21
I13
I11
tp1339
I1726
s(I10
I10
I24
I21
I10
I9
tp1340
I2308
s(I21
I21
I26
I21
I20
I21
tp1341
I146
s(I13
I13
I25
I21
I13
I10
tp1342
I1830
s(I17
I17
I22
I21
I15
I16
tp1343
I847
s(I19
I20
I23
I21
I18
I19
tp1344
I339
s(I22
I21
I26
I21
I20
I20
tp1345
I167
s(I5
I6
I25
I21
I4
I5
tp1346
I3348
s(I6
I6
I26
I21
I6
I5
tp1347
I3238
s(I16
I15
I26
I21
I14
I15
tp1348
I1296
s(I15
I14
I27
I21
I14
I12
tp1349
I1603
s(I8
I9
I26
I21
I6
I8
tp1350
I2814
s(I17
I18
I27
I21
I16
I16
tp1351
I968
s(I4
I3
I22
I21
I2
I2
tp1352
I3687
s(I19
I18
I24
I21
I18
I17
tp1353
I577
s(I7
I8
I26
I21
I6
I7
tp1354
I2975
s(I14
I16
I25
I21
I14
I14
tp1355
I1353
s(I10
I9
I23
I21
I8
I9
tp1356
I2419
s(I17
I18
I22
I21
I17
I16
tp1357
I698
s(I9
I7
I25
I21
I7
I7
tp1358
I2824
s(I18
I19
I26
I21
I18
I17
tp1359
I668
s(I7
I8
I25
I21
I6
I6
tp1360
I2982
s(I13
I16
I27
I21
I13
I13
tp1361
I1708
s(I11
I12
I22
I21
I11
I9
tp1362
I2009
s(I7
I9
I26
I21
I7
I7
tp1363
I2866
s(I7
I6
I21
I21
I5
I6
tp1364
I2959
s(I12
I10
I23
I21
I10
I9
tp1365
I2163
s(I11
I10
I21
I21
I10
I10
tp1366
I2062
s(I11
I13
I21
I21
I10
I11
tp1367
I1855
s(I17
I17
I25
I21
I15
I17
tp1368
I931
s(I12
I11
I25
I21
I9
I11
tp1369
I2143
s(I12
I11
I22
I21
I9
I11
tp1370
I2006
s(I3
I2
I24
I21
I2
I2
tp1371
I3879
s(I14
I11
I24
I21
I11
I11
tp1372
I1994
s(I3
I3
I23
I21
I2
I2
tp1373
I3782
s(I24
I21
I27
I21
I20
I21
tp1374
I83
s(I5
I3
I22
I21
I2
I3
tp1375
I3585
s(I14
I17
I25
I21
I14
I14
tp1376
I1404
s(I11
I11
I24
I21
I10
I9
tp1377
I2200
s(I4
I6
I24
I21
I4
I4
tp1378
I3410
s(I21
I21
I25
I21
I20
I19
tp1379
I194
s(I4
I3
I21
I21
I2
I3
tp1380
I3589
s(I15
I15
I21
I21
I14
I13
tp1381
I1223
s(I19
I19
I21
I21
I19
I17
tp1382
I356
s(I18
I18
I26
I21
I17
I17
tp1383
I765
s(I1
I2
I21
I21
I1
I1
tp1384
I3950
s(I10
I9
I23
I21
I8
I8
tp1385
I2470
s(I2
I1
I25
I21
I0
I0
tp1386
I4186
s(I7
I6
I27
I21
I5
I5
tp1387
I3280
s(I10
I10
I25
I21
I10
I9
tp1388
I2355
s(I13
I14
I22
I21
I12
I12
tp1389
I1585
s(I1
I3
I25
I21
I1
I0
tp1390
I4117
s(I4
I6
I24
I21
I4
I3
tp1391
I3463
s(I20
I20
I23
I21
I20
I18
tp1392
I249
s(I25
I21
I26
I21
I21
I18
tp1393
I92
s(I2
I0
I22
I21
I0
I0
tp1394
I4132
s(I5
I6
I22
I21
I3
I5
tp1395
I3264
s(I13
I10
I21
I21
I10
I10
tp1396
I2067
s(I6
I5
I23
I21
I5
I5
tp1397
I3206
s(I9
I11
I27
I21
I9
I9
tp1398
I2493
s(I6
I8
I22
I21
I5
I6
tp1399
I2952
s(I7
I8
I26
I21
I7
I5
tp1400
I3029
s(I21
I20
I25
I21
I19
I19
tp1401
I284
s(I13
I11
I22
I21
I10
I11
tp1402
I1905
s(I11
I12
I23
I21
I10
I10
tp1403
I2048
s(I3
I2
I25
I21
I1
I1
tp1404
I4030
s(I5
I5
I25
I21
I5
I3
tp1405
I3455
s(I4
I5
I21
I21
I3
I4
tp1406
I3378
s(I13
I12
I26
I21
I12
I10
tp1407
I1980
s(I4
I6
I24
I21
I3
I4
tp1408
I3462
s(I8
I10
I22
I21
I7
I8
tp1409
I2532
s(I10
I10
I26
I21
I10
I8
tp1410
I2448
s(I3
I2
I22
I21
I2
I0
tp1411
I3900
s(I20
I20
I26
I21
I19
I18
tp1412
I412
s(I14
I15
I22
I21
I13
I13
tp1413
I1375
s(I9
I11
I23
I21
I8
I9
tp1414
I2369
s(I19
I19
I25
I21
I19
I19
tp1415
I419
s(I2
I2
I22
I21
I1
I1
tp1416
I3945
s(I13
I15
I22
I21
I13
I12
tp1417
I1483
s(I19
I20
I26
I21
I19
I18
tp1418
I463
s(I9
I9
I26
I21
I9
I9
tp1419
I2557
s(I14
I12
I21
I21
I12
I11
tp1420
I1649
s(I5
I5
I26
I21
I5
I2
tp1421
I3557
s(I18
I19
I23
I21
I17
I18
tp1422
I531
s(I3
I4
I22
I21
I2
I3
tp1423
I3635
s(I19
I19
I22
I21
I18
I19
tp1424
I344
s(I0
I2
I26
I21
I0
I0
tp1425
I4218
s(I9
I7
I21
I21
I7
I6
tp1426
I2699
s(I14
I13
I21
I21
I13
I12
tp1427
I1492
s(I0
I1
I26
I21
I0
I0
tp1428
I4228
s(I20
I20
I23
I21
I18
I19
tp1429
I291
s(I12
I12
I25
I21
I11
I11
tp1430
I1982
s(I3
I0
I27
I21
I0
I0
tp1431
I4236
s(I21
I19
I22
I21
I19
I18
tp1432
I258
s(I7
I7
I24
I21
I7
I7
tp1433
I2883
s(I11
I11
I26
I21
I8
I11
tp1434
I2286
s(I15
I15
I22
I21
I13
I15
tp1435
I1214
s(I10
I10
I21
I21
I9
I9
tp1436
I2222
s(I5
I6
I24
I21
I5
I3
tp1437
I3359
s(I18
I18
I27
I21
I18
I17
tp1438
I761
s(I10
I10
I21
I21
I7
I10
tp1439
I2269
s(I20
I19
I21
I21
I19
I18
tp1440
I270
s(I21
I21
I26
I21
I21
I19
tp1441
I191
s(I7
I5
I25
I21
I5
I5
tp1442
I3244
s(I16
I16
I27
I21
I15
I15
tp1443
I1232
s(I9
I9
I25
I21
I9
I8
tp1444
I2565
s(I5
I2
I22
I21
I2
I2
tp1445
I3794
s(I12
I12
I26
I21
I10
I12
tp1446
I2024
s(I5
I4
I27
I21
I4
I4
tp1447
I3596
s(I8
I7
I21
I21
I6
I6
tp1448
I2804
s(I13
I16
I26
I21
I13
I13
tp1449
I1661
s(I19
I17
I25
I21
I16
I17
tp1450
I778
s(I14
I13
I23
I21
I12
I13
tp1451
I1579
s(I13
I11
I27
I21
I11
I11
tp1452
I2074
s(I12
I14
I26
I21
I12
I12
tp1453
I1816
s(I3
I1
I21
I21
I1
I0
tp1454
I3958
s(I13
I12
I27
I21
I11
I11
tp1455
I2020
s(I20
I21
I25
I21
I20
I20
tp1456
I192
s(I20
I20
I25
I21
I20
I19
tp1457
I281
s(I3
I3
I25
I21
I2
I3
tp1458
I3820
s(I12
I12
I24
I21
I12
I12
tp1459
I1833
s(I4
I4
I26
I21
I2
I4
tp1460
I3704
s(I15
I15
I27
I21
I13
I14
tp1461
I1494
s(I10
I13
I26
I21
I10
I10
tp1462
I2291
s(I6
I6
I22
I21
I4
I6
tp1463
I3104
s(I3
I2
I27
I21
I0
I2
tp1464
I4101
s(I14
I14
I24
I21
I14
I14
tp1465
I1413
s(I13
I13
I24
I21
I11
I12
tp1466
I1777
s(I17
I18
I26
I21
I16
I17
tp1467
I875
s(I14
I15
I26
I21
I12
I14
tp1468
I1554
s(I13
I10
I22
I21
I10
I10
tp1469
I2114
s(I15
I16
I25
I21
I15
I14
tp1470
I1251
s(I7
I8
I25
I21
I5
I7
tp1471
I2981
s(I19
I19
I26
I21
I18
I19
tp1472
I507
s(I16
I17
I24
I21
I16
I14
tp1473
I1049
s(I15
I15
I23
I21
I15
I14
tp1474
I1211
s(I13
I14
I23
I21
I13
I13
tp1475
I1525
s(I18
I20
I26
I21
I17
I18
tp1476
I613
s(I4
I3
I23
I21
I3
I3
tp1477
I3626
s(I15
I14
I21
I21
I14
I14
tp1478
I1222
s(I21
I19
I26
I21
I19
I19
tp1479
I366
s(I19
I19
I24
I21
I17
I19
tp1480
I473
s(I18
I19
I27
I21
I16
I18
tp1481
I757
s(I19
I19
I21
I21
I18
I19
tp1482
I307
s(I7
I4
I25
I21
I4
I4
tp1483
I3507
s(I14
I15
I21
I21
I14
I12
tp1484
I1336
s(I12
I12
I22
I21
I12
I11
tp1485
I1798
s(I16
I16
I26
I21
I16
I13
tp1486
I1247
s(I12
I11
I23
I21
I11
I10
tp1487
I2002
s(I8
I9
I23
I21
I8
I7
tp1488
I2631
s(I7
I7
I21
I21
I7
I6
tp1489
I2805
s(I10
I11
I23
I21
I10
I10
tp1490
I2155
s(I13
I13
I27
I21
I13
I11
tp1491
I1865
s(I11
I12
I23
I21
I10
I11
tp1492
I1998
s(I20
I18
I26
I21
I17
I18
tp1493
I616
s(I14
I14
I25
I21
I12
I13
tp1494
I1610
s(I4
I4
I21
I21
I2
I3
tp1495
I3530
s(I15
I17
I23
I21
I14
I15
tp1496
I1109
s(I24
I21
I27
I21
I21
I21
tp1497
I43
s(I14
I16
I22
I21
I14
I13
tp1498
I1273
s(I18
I17
I21
I21
I17
I16
tp1499
I653
s(I10
I10
I27
I21
I10
I9
tp1500
I2441
s(I3
I2
I22
I21
I0
I2
tp1501
I3896
s(I2
I5
I26
I21
I2
I2
tp1502
I3969
s(I12
I9
I21
I21
I9
I9
tp1503
I2277
s(I14
I14
I25
I21
I14
I13
tp1504
I1515
s(I3
I2
I23
I21
I1
I2
tp1505
I3889
s(I20
I20
I22
I21
I20
I17
tp1506
I256
s(I4
I2
I27
I21
I2
I1
tp1507
I4019
s(I6
I6
I22
I21
I5
I6
tp1508
I3053
s(I19
I19
I25
I21
I18
I17
tp1509
I566
s(I15
I14
I25
I21
I14
I14
tp1510
I1402
s(I12
I12
I27
I21
I11
I10
tp1511
I2127
s(I1
I1
I26
I21
I1
I1
tp1512
I4181
s(I13
I13
I21
I21
I10
I13
tp1513
I1639
s(I19
I20
I26
I21
I18
I18
tp1514
I509
s(I18
I19
I21
I21
I16
I18
tp1515
I495
s(I10
I13
I22
I21
I10
I10
tp1516
I2111
s(I16
I16
I21
I21
I14
I16
tp1517
I961
s(I9
I7
I23
I21
I7
I7
tp1518
I2734
s(I19
I19
I22
I21
I19
I17
tp1519
I393
s(I17
I19
I24
I21
I17
I16
tp1520
I733
s(I3
I4
I26
I21
I3
I3
tp1521
I3758
s(I7
I8
I21
I21
I7
I5
tp1522
I2806
s(I4
I4
I23
I21
I2
I3
tp1523
I3624
s(I11
I10
I22
I21
I9
I9
tp1524
I2217
s(I3
I4
I27
I21
I1
I3
tp1525
I3907
s(I3
I3
I24
I21
I2
I3
tp1526
I3773
s(I9
I9
I27
I21
I6
I9
tp1527
I2753
s(I7
I7
I26
I21
I4
I7
tp1528
I3126
s(I17
I16
I24
I21
I16
I16
tp1529
I939
s(I20
I20
I24
I21
I20
I18
tp1530
I288
s(I6
I7
I26
I21
I4
I6
tp1531
I3234
s(I14
I14
I26
I21
I14
I13
tp1532
I1558
s(I9
I10
I26
I21
I9
I8
tp1533
I2558
s(I11
I12
I21
I21
I10
I11
tp1534
I1908
s(I12
I12
I21
I21
I11
I10
tp1535
I1853
s(I17
I17
I23
I21
I17
I15
tp1536
I845
s(I20
I19
I26
I21
I19
I19
tp1537
I411
s(I10
I11
I22
I21
I9
I10
tp1538
I2165
s(I17
I17
I26
I21
I16
I17
tp1539
I923
s(I3
I6
I23
I21
I3
I3
tp1540
I3628
s(I8
I7
I26
I21
I5
I7
tp1541
I3026
s(I18
I18
I24
I21
I17
I16
tp1542
I730
s(I6
I5
I26
I21
I5
I4
tp1543
I3399
s(I18
I20
I24
I21
I18
I18
tp1544
I475
s(I12
I13
I24
I21
I10
I12
tp1545
I1884
s(I9
I9
I21
I21
I8
I9
tp1546
I2380
s(I13
I14
I26
I21
I13
I12
tp1547
I1718
s(I12
I11
I27
I21
I11
I10
tp1548
I2182
s(I10
I8
I23
I21
I8
I8
tp1549
I2524
s(I16
I18
I26
I21
I16
I15
tp1550
I1033
s(I12
I12
I25
I21
I11
I12
tp1551
I1930
s(I22
I19
I24
I21
I19
I19
tp1552
I336
s(I5
I3
I26
I21
I2
I3
tp1553
I3765
s(I7
I9
I21
I21
I7
I7
tp1554
I2643
s(I6
I7
I22
I21
I6
I6
tp1555
I2948
s(I23
I21
I26
I21
I20
I21
tp1556
I76
s(I20
I20
I21
I21
I19
I20
tp1557
I141
s(I2
I4
I24
I21
I2
I1
tp1558
I3883
s(I8
I8
I24
I21
I8
I8
tp1559
I2673
s(I11
I13
I25
I21
I11
I10
tp1560
I2036
s(I8
I8
I25
I21
I7
I7
tp1561
I2822
s(I19
I19
I26
I21
I19
I17
tp1562
I561
s(I21
I21
I27
I21
I21
I21
tp1563
I145
s(I12
I15
I23
I21
I12
I12
tp1564
I1738
s(I14
I13
I25
I21
I12
I13
tp1565
I1669
s(I22
I21
I25
I21
I21
I21
tp1566
I33
s(I16
I16
I25
I21
I16
I15
tp1567
I1095
s(I14
I13
I27
I21
I11
I13
tp1568
I1809
s(I8
I8
I23
I21
I8
I8
tp1569
I2630
s(I18
I19
I27
I21
I17
I18
tp1570
I708
s(I7
I6
I26
I21
I6
I6
tp1571
I3129
s(I4
I6
I22
I21
I4
I3
tp1572
I3373
s(I3
I2
I21
I21
I2
I2
tp1573
I3742
s(I3
I5
I21
I21
I2
I3
tp1574
I3535
s(I4
I3
I25
I21
I1
I3
tp1575
I3823
s(I10
I11
I26
I21
I8
I10
tp1576
I2394
s(I14
I14
I27
I21
I13
I13
tp1577
I1652
s(I3
I2
I26
I21
I0
I2
tp1578
I4066
s(I11
I11
I24
I21
I11
I10
tp1579
I2098
s(I15
I17
I24
I21
I15
I14
tp1580
I1153
s(I6
I3
I26
I21
I3
I3
tp1581
I3764
s(I19
I19
I27
I21
I18
I19
tp1582
I549
s(I19
I18
I21
I21
I18
I17
tp1583
I450
s(I3
I5
I22
I21
I3
I3
tp1584
I3526
s(I21
I21
I24
I21
I20
I20
tp1585
I102
s(I13
I12
I24
I21
I12
I12
tp1586
I1779
s(I5
I4
I22
I21
I4
I4
tp1587
I3369
s(I10
I9
I22
I21
I9
I9
tp1588
I2319
s(I12
I11
I23
I21
I10
I10
tp1589
I2050
s(I11
I12
I24
I21
I9
I11
tp1590
I2094
s(I5
I3
I25
I21
I2
I3
tp1591
I3718
s(I16
I15
I26
I21
I15
I14
tp1592
I1299
s(I1
I3
I26
I21
I0
I1
tp1593
I4147
s(I19
I17
I27
I21
I16
I17
tp1594
I872
s(I12
I11
I22
I21
I11
I11
tp1595
I1899
s(I15
I12
I25
I21
I12
I12
tp1596
I1827
s(I14
I13
I21
I21
I12
I13
tp1597
I1489
s(I1
I1
I27
I21
I0
I1
tp1598
I4213
s(I18
I16
I26
I21
I16
I16
tp1599
I977
s(I10
I10
I22
I21
I9
I10
tp1600
I2213
s(I16
I16
I26
I21
I15
I14
tp1601
I1240
s(I6
I5
I25
I21
I4
I5
tp1602
I3349
s(I12
I12
I26
I21
I12
I12
tp1603
I1927
s(I15
I17
I27
I21
I15
I15
tp1604
I1233
s(I4
I3
I26
I21
I3
I1
tp1605
I3870
s(I13
I13
I25
I21
I13
I12
tp1606
I1725
s(I7
I10
I24
I21
I7
I7
tp1607
I2831
s(I6
I5
I27
I21
I3
I5
tp1608
I3489
s(I19
I18
I23
I21
I18
I17
tp1609
I535
s(I18
I17
I22
I21
I17
I16
tp1610
I699
s(I15
I15
I24
I21
I15
I15
tp1611
I1203
s(I9
I8
I24
I21
I7
I8
tp1612
I2672
s(I11
I13
I24
I21
I11
I10
tp1613
I1993
s(I11
I13
I21
I21
I11
I10
tp1614
I1856
s(I20
I20
I27
I21
I20
I20
tp1615
I315
s(I5
I5
I25
I21
I3
I5
tp1616
I3451
s(I2
I2
I26
I21
I0
I1
tp1617
I4142
s(I5
I6
I27
I21
I4
I4
tp1618
I3488
s(I8
I11
I22
I21
I8
I8
tp1619
I2531
s(I10
I12
I25
I21
I9
I10
tp1620
I2245
s(I6
I3
I27
I21
I3
I3
tp1621
I3811
s(I9
I9
I25
I21
I8
I7
tp1622
I2663
s(I5
I7
I22
I21
I5
I4
tp1623
I3163
s(I2
I1
I22
I21
I1
I0
tp1624
I4053
s(I21
I21
I25
I21
I21
I18
tp1625
I195
s(I11
I12
I27
I21
I11
I9
tp1626
I2232
s(I8
I8
I23
I21
I5
I8
tp1627
I2783
s(I0
I1
I25
I21
I0
I0
tp1628
I4220
s(I19
I20
I22
I21
I19
I17
tp1629
I350
s(I10
I9
I27
I21
I8
I9
tp1630
I2599
s(I2
I0
I23
I21
I0
I0
tp1631
I4163
s(I7
I10
I22
I21
I7
I7
tp1632
I2741
s(I4
I6
I21
I21
I4
I4
tp1633
I3273
s(I4
I4
I25
I21
I4
I1
tp1634
I3720
s(I18
I18
I23
I21
I18
I18
tp1635
I533
s(I8
I8
I24
I21
I8
I6
tp1636
I2782
s(I18
I18
I21
I21
I16
I17
tp1637
I592
s(I13
I11
I25
I21
I11
I11
tp1638
I1984
s(I14
I12
I27
I21
I12
I11
tp1639
I1923
s(I16
I16
I22
I21
I15
I14
tp1640
I1060
s(I6
I5
I21
I21
I4
I5
tp1641
I3169
s(I18
I17
I24
I21
I17
I16
tp1642
I785
s(I25
I21
I26
I21
I20
I19
tp1643
I91
s(I9
I10
I27
I21
I7
I9
tp1644
I2647
s(I11
I10
I26
I21
I10
I8
tp1645
I2400
s(I10
I9
I26
I21
I9
I9
tp1646
I2499
s(I13
I14
I21
I21
I12
I13
tp1647
I1488
s(I14
I14
I22
I21
I12
I14
tp1648
I1424
s(I3
I4
I21
I21
I3
I3
tp1649
I3531
s(I14
I15
I23
I21
I13
I14
tp1650
I1368
s(I18
I16
I27
I21
I15
I16
tp1651
I1082
s(I6
I6
I26
I21
I4
I6
tp1652
I3284
s(I1
I1
I22
I21
I1
I1
tp1653
I4051
s(I20
I19
I26
I21
I19
I17
tp1654
I514
s(I4
I4
I26
I21
I1
I4
tp1655
I3756
s(I1
I4
I21
I21
I1
I1
tp1656
I3953
s(I6
I6
I22
I21
I3
I6
tp1657
I3156
s(I17
I16
I23
I21
I15
I15
tp1658
I1000
s(I18
I17
I21
I21
I15
I17
tp1659
I703
s(I18
I20
I22
I21
I18
I18
tp1660
I391
s(I11
I14
I24
I21
I11
I11
tp1661
I1991
s(I20
I20
I26
I21
I18
I19
tp1662
I409
s(I22
I20
I24
I21
I20
I19
tp1663
I173
s(I4
I4
I24
I21
I4
I4
tp1664
I3513
s(I17
I15
I25
I21
I15
I15
tp1665
I1144
s(I11
I9
I21
I21
I9
I9
tp1666
I2224
s(I8
I8
I26
I21
I8
I6
tp1667
I2868
s(I10
I10
I22
I21
I10
I7
tp1668
I2327
s(I18
I18
I22
I21
I18
I17
tp1669
I541
s(I11
I10
I23
I21
I10
I10
tp1670
I2156
s(I5
I5
I24
I21
I5
I3
tp1671
I3412
s(I5
I6
I25
I21
I5
I3
tp1672
I3406
s(I4
I4
I24
I21
I2
I4
tp1673
I3618
s(I4
I3
I22
I21
I3
I1
tp1674
I3690
s(I16
I16
I22
I21
I16
I13
tp1675
I1067
s(I7
I7
I26
I21
I5
I6
tp1676
I3127
s(I18
I18
I23
I21
I15
I18
tp1677
I683
s(I1
I2
I22
I21
I1
I0
tp1678
I4052
s(I10
I9
I21
I21
I9
I7
tp1679
I2387
s(I13
I13
I24
I21
I12
I11
tp1680
I1780
s(I12
I12
I26
I21
I11
I11
tp1681
I2025
s(I21
I19
I22
I21
I18
I19
tp1682
I257
s(I7
I7
I24
I21
I6
I6
tp1683
I2989
s(I18
I17
I23
I21
I15
I17
tp1684
I789
s(I17
I17
I21
I21
I16
I17
tp1685
I700
s(I11
I14
I22
I21
I11
I11
tp1686
I1901
s(I15
I15
I25
I21
I14
I13
tp1687
I1403
s(I20
I19
I21
I21
I18
I19
tp1688
I267
s(I21
I21
I26
I21
I20
I18
tp1689
I279
s(I9
I7
I22
I21
I7
I6
tp1690
I2746
s(I13
I13
I24
I21
I13
I13
tp1691
I1623
s(I17
I18
I25
I21
I17
I17
tp1692
I771
s(I4
I4
I22
I21
I4
I3
tp1693
I3478
s(I3
I4
I24
I21
I3
I1
tp1694
I3779
s(I17
I17
I24
I21
I16
I17
tp1695
I833
s(I16
I16
I24
I21
I13
I16
tp1696
I1146
s(I10
I8
I22
I21
I7
I8
tp1697
I2535
s(I14
I12
I24
I21
I11
I12
tp1698
I1785
s(I12
I14
I24
I21
I12
I11
tp1699
I1783
s(I16
I13
I27
I21
I13
I13
tp1700
I1711
s(I14
I11
I21
I21
I11
I11
tp1701
I1857
s(I6
I6
I23
I21
I5
I5
tp1702
I3152
s(I7
I7
I25
I21
I6
I5
tp1703
I3083
s(I18
I18
I25
I21
I15
I18
tp1704
I769
s(I22
I21
I26
I21
I20
I19
tp1705
I214
s(I11
I9
I26
I21
I9
I9
tp1706
I2447
s(I10
I7
I21
I21
I7
I7
tp1707
I2697
s(I12
I12
I23
I21
I11
I11
tp1708
I1892
s(I15
I15
I27
I21
I14
I13
tp1709
I1497
s(I12
I13
I21
I21
I11
I12
tp1710
I1698
s(I2
I4
I26
I21
I2
I1
tp1711
I3971
s(I19
I18
I22
I21
I18
I16
tp1712
I543
s(I14
I14
I24
I21
I13
I13
tp1713
I1519
s(I0
I3
I22
I21
I0
I0
tp1714
I4166
s(I0
I2
I25
I21
I0
I0
tp1715
I4206
s(I19
I20
I25
I21
I18
I19
tp1716
I417
s(I4
I4
I27
I21
I3
I2
tp1717
I3807
s(I21
I20
I26
I21
I20
I18
tp1718
I325
s(I12
I15
I21
I21
I12
I12
tp1719
I1644
s(I9
I7
I26
I21
I7
I6
tp1720
I2926
s(I5
I4
I23
I21
I3
I3
tp1721
I3520
s(I18
I19
I25
I21
I17
I18
tp1722
I619
s(I11
I13
I23
I21
I11
I10
tp1723
I1950
s(I16
I14
I24
I21
I13
I14
tp1724
I1365
s(I4
I4
I23
I21
I4
I2
tp1725
I3575
s(I2
I3
I21
I21
I2
I1
tp1726
I3801
s(I19
I20
I27
I21
I17
I19
tp1727
I550
s(I4
I2
I24
I21
I1
I2
tp1728
I3885
s(I19
I20
I22
I21
I18
I19
tp1729
I299
s(I5
I4
I27
I21
I4
I3
tp1730
I3652
s(I9
I11
I24
I21
I9
I9
tp1731
I2360
s(I8
I8
I22
I21
I6
I7
tp1732
I2737
s(I4
I5
I22
I21
I4
I3
tp1733
I3428
s(I26
I21
I27
I21
I21
I20
tp1734
I25
s(I11
I8
I27
I21
I8
I8
tp1735
I2761
s(I6
I4
I24
I21
I3
I4
tp1736
I3465
s(I25
I21
I26
I21
I21
I21
tp1737
I5
s(I4
I4
I23
I21
I4
I4
tp1738
I3470
s(I13
I14
I21
I21
I13
I11
tp1739
I1546
s(I10
I10
I26
I21
I8
I9
tp1740
I2497
s(I14
I14
I21
I21
I13
I12
tp1741
I1433
s(I11
I11
I23
I21
I11
I9
tp1742
I2105
s(I20
I19
I25
I21
I19
I19
tp1743
I370
s(I4
I4
I21
I21
I3
I2
tp1744
I3533
s(I9
I11
I26
I21
I9
I8
tp1745
I2503
s(I14
I11
I27
I21
I11
I11
tp1746
I2131
s(I10
I10
I23
I21
I9
I9
tp1747
I2312
s(I8
I10
I24
I21
I7
I8
tp1748
I2622
s(I15
I13
I22
I21
I12
I13
tp1749
I1485
s(I17
I16
I21
I21
I15
I16
tp1750
I859
s(I4
I5
I21
I21
I3
I3
tp1751
I3432
s(I7
I6
I23
I21
I5
I6
tp1752
I3049
s(I4
I5
I24
I21
I4
I3
tp1753
I3514
s(I22
I20
I24
I21
I19
I20
tp1754
I172
s(I12
I11
I27
I21
I10
I11
tp1755
I2179
s(I16
I17
I22
I21
I16
I16
tp1756
I848
s(I15
I13
I24
I21
I13
I13
tp1757
I1521
s(I20
I21
I23
I21
I20
I18
tp1758
I203
s(I4
I3
I27
I21
I3
I2
tp1759
I3862
s(I18
I16
I24
I21
I16
I16
tp1760
I891
s(I20
I17
I26
I21
I17
I17
tp1761
I824
s(I5
I5
I22
I21
I4
I5
tp1762
I3263
s(I15
I14
I22
I21
I13
I14
tp1763
I1326
s(I2
I1
I23
I21
I1
I0
tp1764
I4090
s(I3
I3
I24
I21
I1
I2
tp1765
I3877
s(I6
I4
I24
I21
I4
I3
tp1766
I3466
s(I21
I20
I27
I21
I19
I19
tp1767
I361
s(I17
I19
I26
I21
I17
I17
tp1768
I766
s(I16
I15
I27
I21
I15
I15
tp1769
I1286
s(I9
I10
I24
I21
I9
I7
tp1770
I2519
s(I2
I3
I22
I21
I2
I2
tp1771
I3788
s(I14
I11
I22
I21
I11
I11
tp1772
I1904
s(I9
I9
I22
I21
I9
I9
tp1773
I2377
s(I3
I3
I23
I21
I1
I2
tp1774
I3834
s(I10
I11
I25
I21
I10
I9
tp1775
I2301
s(I8
I5
I23
I21
I5
I5
tp1776
I3211
s(I7
I7
I23
I21
I7
I4
tp1777
I3004
s(I15
I17
I25
I21
I14
I15
tp1778
I1195
s(I7
I6
I23
I21
I5
I5
tp1779
I3100
s(I12
I9
I24
I21
I9
I9
tp1780
I2414
s(I6
I7
I22
I21
I5
I6
tp1781
I3005
s(I10
I8
I27
I21
I8
I8
tp1782
I2704
s(I3
I3
I26
I21
I2
I1
tp1783
I3968
s(I16
I18
I22
I21
I16
I16
tp1784
I796
s(I12
I10
I25
I21
I9
I10
tp1785
I2248
s(I14
I15
I26
I21
I13
I13
tp1786
I1555
s(I4
I5
I25
I21
I3
I3
tp1787
I3612
s(I3
I3
I27
I21
I2
I1
tp1788
I4013
s(I11
I11
I25
I21
I10
I11
tp1789
I2140
s(I18
I18
I23
I21
I16
I17
tp1790
I684
s(I13
I13
I23
I21
I13
I11
tp1791
I1685
s(I2
I3
I23
I21
I2
I0
tp1792
I3942
s(I18
I18
I21
I21
I18
I16
tp1793
I548
s(I10
I8
I21
I21
I7
I8
tp1794
I2488
s(I15
I15
I26
I21
I13
I14
tp1795
I1447
s(I16
I17
I27
I21
I14
I16
tp1796
I1177
s(I15
I14
I23
I21
I13
I13
tp1797
I1420
s(I22
I20
I25
I21
I19
I20
tp1798
I216
s(I11
I11
I27
I21
I11
I9
tp1799
I2285
s(I7
I9
I27
I21
I7
I7
tp1800
I2913
s(I9
I10
I27
I21
I9
I8
tp1801
I2601
s(I20
I20
I21
I21
I18
I19
tp1802
I225
s(I18
I20
I21
I21
I18
I18
tp1803
I354
s(I4
I3
I23
I21
I2
I2
tp1804
I3730
s(I14
I15
I27
I21
I13
I13
tp1805
I1598
s(I14
I13
I24
I21
I13
I12
tp1806
I1625
s(I9
I8
I21
I21
I8
I7
tp1807
I2542
s(I5
I5
I23
I21
I2
I5
tp1808
I3413
s(I5
I5
I23
I21
I3
I5
tp1809
I3361
s(I7
I5
I21
I21
I4
I5
tp1810
I3118
s(I12
I10
I26
I21
I10
I10
tp1811
I2237
s(I18
I17
I27
I21
I15
I17
tp1812
I969
s(I6
I4
I23
I21
I4
I4
tp1813
I3364
s(I19
I20
I25
I21
I19
I17
tp1814
I471
s(I1
I2
I27
I21
I1
I0
tp1815
I4199
s(I16
I17
I23
I21
I15
I15
tp1816
I998
s(I5
I4
I26
I21
I4
I2
tp1817
I3660
s(I4
I4
I26
I21
I4
I4
tp1818
I3607
s(I3
I4
I22
I21
I3
I3
tp1819
I3578
s(I8
I9
I25
I21
I8
I8
tp1820
I2661
s(I4
I5
I23
I21
I3
I4
tp1821
I3468
s(I17
I17
I27
I21
I16
I16
tp1822
I1022
s(I5
I5
I26
I21
I4
I4
tp1823
I3495
s(I1
I2
I22
I21
I0
I0
tp1824
I4092
s(I17
I18
I26
I21
I16
I16
tp1825
I925
s(I20
I18
I25
I21
I18
I17
tp1826
I571
s(I17
I15
I23
I21
I15
I15
tp1827
I1054
s(I13
I13
I27
I21
I11
I12
tp1828
I1914
s(I12
I12
I22
I21
I12
I12
tp1829
I1747
s(I9
I9
I26
I21
I7
I8
tp1830
I2707
s(I17
I16
I26
I21
I16
I14
tp1831
I1140
s(I8
I8
I22
I21
I5
I8
tp1832
I2736
s(I11
I11
I24
I21
I10
I11
tp1833
I2093
s(I8
I9
I23
I21
I8
I8
tp1834
I2575
s(I15
I17
I24
I21
I14
I15
tp1835
I1152
s(I13
I12
I26
I21
I11
I12
tp1836
I1926
s(I11
I11
I21
I21
I9
I11
tp1837
I2011
s(I13
I13
I27
I21
I13
I12
tp1838
I1811
s(I9
I9
I27
I21
I8
I8
tp1839
I2702
s(I1
I3
I27
I21
I1
I0
tp1840
I4175
s(I8
I10
I25
I21
I8
I8
tp1841
I2613
s(I15
I16
I22
I21
I14
I15
tp1842
I1115
s(I15
I14
I27
I21
I14
I14
tp1843
I1496
s(I9
I10
I26
I21
I9
I9
tp1844
I2498
s(I8
I10
I25
I21
I7
I8
tp1845
I2665
s(I9
I8
I27
I21
I6
I8
tp1846
I2859
s(I2
I2
I22
I21
I0
I1
tp1847
I3994
s(I6
I5
I24
I21
I5
I4
tp1848
I3305
s(I12
I11
I24
I21
I11
I9
tp1849
I2100
s(I11
I10
I22
I21
I10
I8
tp1850
I2220
s(I8
I10
I26
I21
I8
I8
tp1851
I2656
s(I12
I12
I22
I21
I11
I10
tp1852
I1900
s(I9
I10
I26
I21
I8
I9
tp1853
I2555
s(I4
I4
I21
I21
I4
I2
tp1854
I3485
s(I6
I7
I21
I21
I6
I6
tp1855
I2901
s(I17
I20
I27
I21
I17
I17
tp1856
I868
s(I8
I8
I22
I21
I7
I7
tp1857
I2685
s(I5
I6
I23
I21
I4
I4
tp1858
I3308
s(I11
I10
I21
I21
I10
I8
tp1859
I2177
s(I16
I16
I26
I21
I14
I15
tp1860
I1237
s(I12
I10
I21
I21
I10
I9
tp1861
I2069
s(I11
I9
I21
I21
I9
I8
tp1862
I2279
s(I5
I4
I27
I21
I3
I3
tp1863
I3700
s(I19
I19
I27
I21
I17
I19
tp1864
I603
s(I3
I3
I21
I21
I3
I0
tp1865
I3750
s(I8
I9
I27
I21
I8
I7
tp1866
I2811
s(I14
I12
I23
I21
I11
I12
tp1867
I1742
s(I10
I12
I21
I21
I10
I10
tp1868
I2013
s(I15
I15
I24
I21
I14
I14
tp1869
I1309
s(I11
I11
I25
I21
I9
I11
tp1870
I2191
s(I14
I14
I26
I21
I12
I14
tp1871
I1604
s(I21
I21
I22
I21
I21
I20
tp1872
I11
s(I3
I6
I24
I21
I3
I3
tp1873
I3671
s(I14
I16
I23
I21
I13
I14
tp1874
I1319
s(I19
I19
I27
I21
I16
I19
tp1875
I654
s(I10
I10
I21
I21
I9
I8
tp1876
I2273
s(I19
I19
I24
I21
I16
I19
tp1877
I520
s(I19
I19
I21
I21
I19
I19
tp1878
I268
s(I10
I9
I27
I21
I9
I7
tp1879
I2653
s(I11
I12
I25
I21
I10
I11
tp1880
I2088
s(I9
I11
I25
I21
I9
I9
tp1881
I2403
s(I19
I18
I25
I21
I18
I17
tp1882
I623
s(I12
I14
I22
I21
I12
I11
tp1883
I1693
s(I16
I16
I23
I21
I16
I13
tp1884
I1114
s(I15
I14
I26
I21
I13
I13
tp1885
I1557
s(I15
I15
I21
I21
I12
I15
tp1886
I1219
s(I20
I19
I22
I21
I17
I19
tp1887
I347
s(I20
I19
I27
I21
I19
I18
tp1888
I506
s(I14
I14
I22
I21
I13
I13
tp1889
I1425
s(I8
I9
I26
I21
I8
I7
tp1890
I2768
s(I13
I11
I26
I21
I11
I10
tp1891
I2086
s(I4
I4
I26
I21
I3
I3
tp1892
I3705
s(I13
I15
I21
I21
I13
I12
tp1893
I1436
s(I5
I6
I25
I21
I3
I5
tp1894
I3401
s(I16
I16
I22
I21
I14
I15
tp1895
I1057
s(I3
I5
I24
I21
I3
I2
tp1896
I3673
s(I11
I13
I22
I21
I11
I11
tp1897
I1846
s(I16
I15
I23
I21
I15
I14
tp1898
I1162
s(I13
I14
I23
I21
I12
I12
tp1899
I1628
s(I21
I19
I23
I21
I18
I19
tp1900
I297
s(I21
I20
I22
I21
I20
I20
tp1901
I64
s(I2
I3
I27
I21
I0
I2
tp1902
I4099
s(I15
I14
I23
I21
I14
I13
tp1903
I1372
s(I3
I2
I22
I21
I2
I2
tp1904
I3789
s(I8
I10
I27
I21
I8
I8
tp1905
I2703
s(I6
I6
I22
I21
I5
I5
tp1906
I3105
s(I7
I6
I24
I21
I5
I6
tp1907
I3092
s(I21
I21
I22
I21
I20
I21
tp1908
I10
s(I14
I13
I27
I21
I13
I12
tp1909
I1762
s(I17
I18
I23
I21
I16
I16
tp1910
I788
s(I6
I7
I25
I21
I6
I5
tp1911
I3141
s(I13
I12
I21
I21
I12
I10
tp1912
I1757
s(I23
I21
I26
I21
I21
I20
tp1913
I77
s(I18
I20
I27
I21
I17
I18
tp1914
I659
s(I10
I11
I21
I21
I10
I9
tp1915
I2121
s(I11
I9
I23
I21
I8
I9
tp1916
I2372
s(I5
I8
I22
I21
I5
I5
tp1917
I3161
s(I18
I19
I24
I21
I17
I17
tp1918
I626
s(I18
I19
I23
I21
I18
I18
tp1919
I480
s(I2
I1
I21
I21
I1
I0
tp1920
I4008
s(I6
I7
I23
I21
I6
I5
tp1921
I3051
s(I21
I21
I25
I21
I21
I20
tp1922
I101
s(I19
I18
I21
I21
I16
I18
tp1923
I497
s(I11
I12
I27
I21
I9
I11
tp1924
I2227
s(I17
I16
I24
I21
I15
I15
tp1925
I1047
s(I16
I16
I27
I21
I16
I13
tp1926
I1294
s(I20
I20
I24
I21
I19
I20
tp1927
I241
s(I12
I13
I26
I21
I11
I12
tp1928
I1925
s(I21
I21
I26
I21
I21
I21
tp1929
I99
s(I9
I10
I24
I21
I7
I9
tp1930
I2514
s(I3
I4
I25
I21
I3
I1
tp1931
I3826
s(I10
I12
I23
I21
I9
I10
tp1932
I2159
s(I13
I14
I27
I21
I12
I12
tp1933
I1808
s(I5
I5
I22
I21
I2
I5
tp1934
I3366
s(I11
I12
I22
I21
I10
I11
tp1935
I1955
s(I22
I19
I27
I21
I19
I19
tp1936
I457
s(I12
I11
I26
I21
I10
I11
tp1937
I2136
s(I16
I15
I22
I21
I13
I15
tp1938
I1166
s(I18
I19
I25
I21
I16
I18
tp1939
I671
s(I17
I14
I24
I21
I14
I14
tp1940
I1364
s(I19
I16
I25
I21
I16
I16
tp1941
I987
s(I20
I20
I24
I21
I17
I20
tp1942
I330
s(I5
I4
I22
I21
I4
I3
tp1943
I3429
s(I20
I21
I27
I21
I20
I19
tp1944
I316
s(I23
I21
I25
I21
I21
I18
tp1945
I130
s(I9
I7
I22
I21
I6
I7
tp1946
I2745
s(I21
I21
I23
I21
I20
I21
tp1947
I29
s(I17
I17
I24
I21
I15
I16
tp1948
I937
s(I12
I15
I25
I21
I12
I12
tp1949
I1824
s(I3
I4
I25
I21
I2
I2
tp1950
I3822
s(I9
I6
I27
I21
I6
I6
tp1951
I3181
s(I20
I21
I25
I21
I20
I18
tp1952
I282
s(I20
I20
I25
I21
I20
I17
tp1953
I372
s(I18
I17
I27
I21
I16
I17
tp1954
I919
s(I6
I5
I27
I21
I5
I4
tp1955
I3442
s(I12
I13
I26
I21
I12
I12
tp1956
I1868
s(I11
I9
I25
I21
I9
I9
tp1957
I2404
s(I3
I3
I26
I21
I2
I2
tp1958
I3915
s(I9
I8
I21
I21
I8
I8
tp1959
I2482
s(I19
I18
I27
I21
I17
I18
tp1960
I709
s(I17
I17
I25
I21
I14
I17
tp1961
I979
s(I11
I12
I23
I21
I11
I9
tp1962
I2052
s(I19
I20
I21
I21
I19
I19
tp1963
I226
s(I15
I14
I24
I21
I13
I13
tp1964
I1467
s(I7
I6
I24
I21
I6
I6
tp1965
I3039
s(I6
I5
I22
I21
I4
I4
tp1966
I3267
s(I6
I4
I23
I21
I3
I4
tp1967
I3422
s(I7
I7
I26
I21
I7
I7
tp1968
I2977
s(I15
I15
I23
I21
I15
I12
tp1969
I1324
s(I17
I17
I26
I21
I15
I16
tp1970
I1027
s(I15
I14
I21
I21
I14
I12
tp1971
I1337
s(I6
I7
I22
I21
I5
I5
tp1972
I3055
s(I19
I19
I21
I21
I18
I17
tp1973
I398
s(I3
I2
I21
I21
I1
I1
tp1974
I3854
s(I14
I15
I21
I21
I14
I14
tp1975
I1221
s(I10
I11
I27
I21
I9
I9
tp1976
I2438
s(I17
I17
I25
I21
I16
I16
tp1977
I932
s(I16
I16
I26
I21
I16
I15
tp1978
I1138
s(I17
I17
I22
I21
I17
I17
tp1979
I697
s(I5
I5
I23
I21
I5
I5
tp1980
I3260
s(I17
I17
I27
I21
I14
I17
tp1981
I1073
s(I17
I17
I26
I21
I17
I14
tp1982
I1037
s(I10
I11
I23
I21
I10
I8
tp1983
I2262
s(I4
I6
I26
I21
I4
I3
tp1984
I3553
s(I3
I3
I25
I21
I3
I3
tp1985
I3770
s(I19
I16
I21
I21
I16
I16
tp1986
I807
s(I9
I11
I27
I21
I8
I9
tp1987
I2549
s(I14
I13
I25
I21
I11
I13
tp1988
I1723
s(I14
I15
I22
I21
I14
I13
tp1989
I1328
s(I24
I21
I27
I21
I21
I19
tp1990
I133
s(I8
I8
I26
I21
I6
I8
tp1991
I2864
s(I1
I0
I21
I21
I0
I0
tp1992
I4134
s(I7
I5
I22
I21
I4
I5
tp1993
I3165
s(I2
I3
I27
I21
I1
I2
tp1994
I4058
s(I3
I4
I26
I21
I2
I3
tp1995
I3815
s(I17
I15
I22
I21
I15
I14
tp1996
I1066
s(I9
I11
I22
I21
I9
I9
tp1997
I2266
s(I20
I19
I25
I21
I18
I18
tp1998
I469
s(I19
I20
I27
I21
I18
I19
tp1999
I502
s(I16
I16
I27
I21
I13
I16
tp2000
I1283
s(I4
I2
I25
I21
I1
I2
tp2001
I3928
s(I20
I20
I22
I21
I20
I19
tp2002
I160
s(I3
I3
I22
I21
I3
I2
tp2003
I3688
s(I15
I14
I25
I21
I14
I12
tp2004
I1517
s(I5
I5
I22
I21
I5
I2
tp2005
I3377
s(I18
I18
I22
I21
I16
I18
tp2006
I586
s(I18
I19
I26
I21
I16
I18
tp2007
I714
s(I9
I10
I22
I21
I8
I8
tp2008
I2425
s(I13
I15
I25
I21
I13
I13
tp2009
I1563
s(I22
I20
I24
I21
I20
I20
tp2010
I118
s(I7
I7
I26
I21
I6
I6
tp2011
I3075
s(I4
I5
I27
I21
I3
I4
tp2012
I3648
s(I6
I4
I21
I21
I4
I3
tp2013
I3329
s(I12
I12
I27
I21
I9
I12
tp2014
I2123
s(I15
I14
I22
I21
I14
I13
tp2015
I1329
s(I2
I2
I22
I21
I2
I1
tp2016
I3898
s(I7
I7
I22
I21
I4
I7
tp2017
I2946
s(I19
I18
I21
I21
I17
I18
tp2018
I447
s(I21
I19
I23
I21
I19
I18
tp2019
I298
s(I8
I7
I25
I21
I5
I7
tp2020
I2983
s(I16
I15
I27
I21
I14
I14
tp2021
I1390
s(I17
I16
I27
I21
I14
I16
tp2022
I1179
s(I6
I8
I25
I21
I6
I5
tp2023
I3086
s(I11
I10
I27
I21
I10
I8
tp2024
I2443
s(I0
I0
I25
I21
I0
I0
tp2025
I4232
s(I9
I8
I21
I21
I7
I7
tp2026
I2594
s(I14
I14
I26
I21
I14
I11
tp2027
I1667
s(I3
I3
I23
I21
I2
I1
tp2028
I3837
s(I7
I8
I21
I21
I5
I7
tp2029
I2801
s(I6
I5
I25
I21
I3
I5
tp2030
I3403
s(I3
I1
I26
I21
I1
I0
tp2031
I4151
s(I20
I20
I27
I21
I19
I18
tp2032
I455
s(I16
I16
I24
I21
I15
I15
tp2033
I1099
s(I17
I15
I26
I21
I15
I14
tp2034
I1246
s(I7
I8
I22
I21
I7
I6
tp2035
I2798
s(I10
I9
I26
I21
I8
I9
tp2036
I2556
s(I4
I4
I23
I21
I4
I1
tp2037
I3634
s(I15
I17
I25
I21
I15
I14
tp2038
I1196
s(I18
I18
I24
I21
I17
I18
tp2039
I624
s(I23
I21
I25
I21
I20
I18
tp2040
I180
s(I14
I13
I23
I21
I13
I13
tp2041
I1526
s(I19
I19
I23
I21
I18
I18
tp2042
I431
s(I6
I7
I27
I21
I4
I6
tp2043
I3277
s(I16
I17
I27
I21
I15
I15
tp2044
I1178
s(I7
I8
I24
I21
I7
I6
tp2045
I2884
s(I3
I3
I25
I21
I3
I0
tp2046
I3930
s(I14
I15
I23
I21
I14
I13
tp2047
I1371
s(I20
I21
I22
I21
I20
I19
tp2048
I109
s(I10
I10
I26
I21
I10
I7
tp2049
I2507
s(I13
I12
I22
I21
I11
I11
tp2050
I1797
s(I7
I8
I26
I21
I5
I7
tp2051
I3024
s(I5
I4
I26
I21
I3
I4
tp2052
I3606
s(I3
I3
I26
I21
I3
I2
tp2053
I3868
s(I6
I6
I27
I21
I5
I6
tp2054
I3276
s(I10
I11
I27
I21
I10
I9
tp2055
I2391
s(I14
I16
I26
I21
I14
I14
tp2056
I1396
s(I15
I15
I26
I21
I12
I15
tp2057
I1446
s(I11
I14
I26
I21
I11
I11
tp2058
I2081
s(I7
I5
I23
I21
I5
I4
tp2059
I3213
s(I20
I20
I21
I21
I19
I18
tp2060
I228
s(I3
I2
I25
I21
I0
I2
tp2061
I4029
s(I12
I14
I26
I21
I11
I12
tp2062
I1872
s(I4
I3
I24
I21
I3
I1
tp2063
I3780
s(I9
I8
I25
I21
I7
I7
tp2064
I2774
s(I2
I2
I23
I21
I2
I2
tp2065
I3890
s(I12
I13
I21
I21
I11
I11
tp2066
I1752
s(I2
I2
I21
I21
I0
I1
tp2067
I3949
s(I22
I21
I25
I21
I21
I19
tp2068
I117
s(I16
I16
I25
I21
I16
I13
tp2069
I1200
s(I15
I16
I21
I21
I15
I15
tp2070
I1011
s(I14
I15
I24
I21
I13
I14
tp2071
I1411
s(I3
I2
I21
I21
I2
I0
tp2072
I3857
s(I13
I13
I22
I21
I12
I13
tp2073
I1583
s(I4
I2
I21
I21
I2
I1
tp2074
I3749
s(I2
I3
I24
I21
I2
I2
tp2075
I3878
s(I11
I11
I25
I21
I11
I10
tp2076
I2145
s(I18
I18
I23
I21
I18
I15
tp2077
I694
s(I2
I5
I22
I21
I2
I2
tp2078
I3791
s(I15
I17
I21
I21
I15
I15
tp2079
I963
s(I1
I1
I22
I21
I0
I1
tp2080
I4091
s(I4
I4
I23
I21
I1
I4
tp2081
I3623
s(I2
I4
I22
I21
I2
I2
tp2082
I3736
s(I16
I14
I21
I21
I14
I14
tp2083
I1174
s(I0
I1
I22
I21
I0
I0
tp2084
I4164
s(I11
I11
I23
I21
I9
I10
tp2085
I2154
s(I11
I9
I26
I21
I8
I9
tp2086
I2505
s(I9
I12
I25
I21
I9
I9
tp2087
I2454
s(I10
I10
I24
I21
I9
I8
tp2088
I2410
s(I6
I6
I21
I21
I3
I6
tp2089
I3109
s(I10
I11
I27
I21
I8
I10
tp2090
I2437
s(I6
I5
I21
I21
I5
I4
tp2091
I3172
s(I17
I17
I23
I21
I17
I16
tp2092
I791
s(I9
I9
I22
I21
I7
I8
tp2093
I2527
s(I1
I2
I26
I21
I1
I0
tp2094
I4182
s(I22
I21
I26
I21
I21
I19
tp2095
I168
s(I4
I3
I25
I21
I3
I2
tp2096
I3772
s(I5
I6
I27
I21
I3
I5
tp2097
I3487
s(I16
I16
I25
I21
I13
I16
tp2098
I1189
s(I15
I16
I22
I21
I15
I14
tp2099
I1118
s(I15
I14
I27
I21
I13
I13
tp2100
I1600
s(I3
I2
I23
I21
I2
I0
tp2101
I3943
s(I12
I12
I27
I21
I11
I11
tp2102
I2072
s(I5
I6
I24
I21
I5
I4
tp2103
I3304
s(I10
I10
I22
I21
I9
I8
tp2104
I2320
s(I18
I18
I25
I21
I18
I15
tp2105
I780
s(I16
I16
I26
I21
I15
I16
tp2106
I1133
s(I7
I7
I27
I21
I6
I6
tp2107
I3122
s(I3
I3
I25
I21
I1
I3
tp2108
I3871
s(I5
I7
I21
I21
I5
I4
tp2109
I3116
s(I15
I14
I22
I21
I12
I14
tp2110
I1376
s(I7
I10
I26
I21
I7
I7
tp2111
I2921
s(I6
I7
I21
I21
I5
I5
tp2112
I3012
s(I16
I14
I27
I21
I14
I14
tp2113
I1444
s(I8
I7
I23
I21
I7
I6
tp2114
I2842
s(I6
I7
I24
I21
I5
I6
tp2115
I3091
s(I21
I20
I24
I21
I20
I20
tp2116
I151
s(I14
I14
I26
I21
I13
I13
tp2117
I1605
s(I2
I1
I24
I21
I0
I0
tp2118
I4159
s(I20
I19
I23
I21
I18
I18
tp2119
I385
s(I9
I9
I25
I21
I7
I9
tp2120
I2611
s(I8
I8
I25
I21
I7
I6
tp2121
I2873
s(I12
I11
I22
I21
I10
I10
tp2122
I2007
s(I6
I9
I24
I21
I6
I6
tp2123
I3041
s(I19
I20
I24
I21
I17
I19
tp2124
I423
s(I3
I4
I23
I21
I3
I1
tp2125
I3732
s(I18
I17
I26
I21
I15
I17
tp2126
I926
s(I9
I10
I24
I21
I9
I8
tp2127
I2464
s(I13
I13
I23
I21
I11
I13
tp2128
I1681
s(I5
I4
I21
I21
I4
I2
tp2129
I3437
s(I14
I16
I23
I21
I14
I13
tp2130
I1320
s(I16
I16
I22
I21
I13
I16
tp2131
I1056
s(I25
I21
I27
I21
I20
I21
tp2132
I48
s(I12
I12
I21
I21
I10
I12
tp2133
I1801
s(I19
I19
I24
I21
I19
I16
tp2134
I530
s(I17
I17
I26
I21
I17
I17
tp2135
I877
s(I19
I20
I22
I21
I19
I19
tp2136
I253
s(I12
I13
I23
I21
I11
I12
tp2137
I1788
s(I15
I18
I24
I21
I15
I15
tp2138
I1151
s(I13
I13
I26
I21
I12
I12
tp2139
I1815
s(I18
I18
I23
I21
I18
I16
tp2140
I636
s(I7
I6
I27
I21
I4
I6
tp2141
I3279
s(I7
I8
I26
I21
I7
I7
tp2142
I2918
s(I17
I18
I21
I21
I15
I17
tp2143
I701
s(I7
I7
I27
I21
I7
I6
tp2144
I3071
s(I11
I11
I27
I21
I9
I10
tp2145
I2334
s(I15
I15
I21
I21
I13
I14
tp2146
I1220
s(I2
I3
I26
I21
I1
I1
tp2147
I4065
s(I24
I21
I25
I21
I20
I20
tp2148
I46
s(I27
I21
I27
I21
I21
I21
tp2149
I0
s(I3
I4
I21
I21
I3
I1
tp2150
I3646
s(I8
I7
I22
I21
I5
I7
tp2151
I2846
s(I20
I21
I26
I21
I20
I19
tp2152
I276
s(I10
I8
I24
I21
I7
I8
tp2153
I2625
s(I16
I15
I26
I21
I15
I13
tp2154
I1350
s(I16
I15
I23
I21
I14
I15
tp2155
I1159
s(I20
I18
I23
I21
I17
I18
tp2156
I486
s(I16
I17
I21
I21
I15
I15
tp2157
I912
s(I15
I13
I27
I21
I13
I13
tp2158
I1654
s(I13
I10
I23
I21
I10
I10
tp2159
I2161
s(I22
I21
I23
I21
I20
I21
tp2160
I13
s(I10
I10
I25
I21
I10
I10
tp2161
I2300
s(I4
I7
I25
I21
I4
I4
tp2162
I3504
s(I2
I2
I26
I21
I1
I0
tp2163
I4145
s(I22
I21
I24
I21
I21
I20
tp2164
I35
s(I17
I18
I21
I21
I17
I16
tp2165
I652
s(I3
I3
I22
I21
I0
I3
tp2166
I3786
s(I14
I15
I27
I21
I12
I14
tp2167
I1597
s(I11
I12
I21
I21
I11
I11
tp2168
I1851
s(I9
I10
I26
I21
I7
I9
tp2169
I2604
s(I21
I18
I27
I21
I18
I18
tp2170
I661
s(I4
I3
I21
I21
I1
I3
tp2171
I3643
s(I18
I20
I27
I21
I18
I17
tp2172
I660
s(I18
I15
I26
I21
I15
I15
tp2173
I1244
s(I14
I17
I23
I21
I14
I14
tp2174
I1318
s(I19
I19
I22
I21
I17
I18
tp2175
I436
s(I14
I14
I27
I21
I12
I13
tp2176
I1704
s(I16
I16
I22
I21
I16
I15
tp2177
I958
s(I14
I12
I22
I21
I12
I12
tp2178
I1637
s(I9
I6
I25
I21
I6
I6
tp2179
I3087
s(I11
I11
I21
I21
I11
I8
tp2180
I2070
s(I10
I11
I21
I21
I9
I10
tp2181
I2118
s(I20
I20
I27
I21
I20
I17
tp2182
I456
s(I3
I3
I27
I21
I3
I3
tp2183
I3860
s(I13
I14
I25
I21
I13
I12
tp2184
I1671
s(I18
I20
I23
I21
I18
I18
tp2185
I432
s(I10
I9
I27
I21
I7
I9
tp2186
I2649
s(I14
I13
I21
I21
I11
I13
tp2187
I1543
s(I4
I4
I26
I21
I4
I1
tp2188
I3767
s(I10
I9
I22
I21
I8
I9
tp2189
I2376
s(I10
I10
I23
I21
I10
I10
tp2190
I2210
s(I8
I7
I27
I21
I7
I7
tp2191
I2966
s(I8
I11
I26
I21
I8
I8
tp2192
I2711
s(I17
I18
I26
I21
I15
I17
tp2193
I924
s(I13
I13
I24
I21
I13
I11
tp2194
I1732
s(I18
I17
I26
I21
I17
I16
tp2195
I879
s(I20
I20
I25
I21
I19
I20
tp2196
I280
s(I4
I6
I22
I21
I3
I4
tp2197
I3372
s(I1
I3
I26
I21
I1
I1
tp2198
I4108
s(I15
I16
I25
I21
I14
I15
tp2199
I1248
s(I15
I15
I25
I21
I12
I15
tp2200
I1399
s(I14
I16
I21
I21
I14
I14
tp2201
I1173
s(I5
I6
I22
I21
I4
I4
tp2202
I3265
s(I10
I10
I27
I21
I10
I7
tp2203
I2554
s(I15
I17
I23
I21
I15
I14
tp2204
I1110
s(I11
I9
I27
I21
I8
I9
tp2205
I2552
s(I18
I17
I25
I21
I16
I16
tp2206
I884
s(I6
I4
I26
I21
I4
I3
tp2207
I3556
s(I5
I6
I24
I21
I3
I5
tp2208
I3354
s(I12
I11
I27
I21
I9
I11
tp2209
I2229
s(I10
I12
I22
I21
I10
I10
tp2210
I2056
s(I8
I9
I27
I21
I6
I8
tp2211
I2857
s(I19
I17
I21
I21
I17
I17
tp2212
I547
s(I15
I15
I27
I21
I14
I15
tp2213
I1386
s(I18
I17
I24
I21
I15
I17
tp2214
I836
s(I8
I8
I27
I21
I7
I7
tp2215
I2912
s(I9
I8
I24
I21
I8
I7
tp2216
I2675
s(I11
I12
I26
I21
I11
I9
tp2217
I2189
s(I7
I9
I22
I21
I7
I7
tp2218
I2686
s(I19
I18
I22
I21
I18
I18
tp2219
I438
s(I5
I5
I25
I21
I5
I2
tp2220
I3510
s(I22
I21
I27
I21
I20
I20
tp2221
I211
s(I20
I20
I24
I21
I20
I19
tp2222
I242
s(I11
I11
I22
I21
I10
I10
tp2223
I2055
s(I19
I19
I26
I21
I17
I18
tp2224
I609
s(I12
I13
I25
I21
I11
I11
tp2225
I1932
s(I14
I13
I23
I21
I11
I13
tp2226
I1629
s(I9
I8
I23
I21
I6
I8
tp2227
I2679
s(I18
I15
I21
I21
I15
I15
tp2228
I1017
s(I14
I13
I22
I21
I13
I11
tp2229
I1590
s(I6
I5
I21
I21
I3
I5
tp2230
I3223
s(I4
I7
I23
I21
I4
I4
tp2231
I3418
s(I10
I9
I21
I21
I8
I8
tp2232
I2384
s(I2
I2
I21
I21
I2
I0
tp2233
I3905
s(I10
I10
I21
I21
I8
I9
tp2234
I2270
s(I16
I18
I22
I21
I16
I15
tp2235
I853
s(I0
I2
I24
I21
I0
I0
tp2236
I4189
s(I8
I5
I22
I21
I5
I5
tp2237
I3164
s(I5
I5
I27
I21
I4
I3
tp2238
I3597
s(I14
I15
I21
I21
I13
I13
tp2239
I1332
s(I7
I5
I22
I21
I5
I5
tp2240
I3107
s(I9
I9
I27
I21
I7
I8
tp2241
I2754
s(I20
I20
I23
I21
I19
I19
tp2242
I248
s(I1
I2
I21
I21
I1
I0
tp2243
I4007
s(I8
I7
I27
I21
I6
I6
tp2244
I3070
s(I13
I12
I21
I21
I10
I12
tp2245
I1753
s(I17
I17
I26
I21
I16
I15
tp2246
I1030
s(I3
I2
I27
I21
I2
I0
tp2247
I4105
s(I4
I2
I22
I21
I2
I1
tp2248
I3796
s(I13
I14
I21
I21
I13
I13
tp2249
I1431
s(I4
I6
I23
I21
I4
I4
tp2250
I3363
s(I14
I14
I21
I21
I13
I14
tp2251
I1330
s(I13
I13
I22
I21
I10
I13
tp2252
I1686
s(I11
I11
I24
I21
I11
I8
tp2253
I2207
s(I1
I1
I27
I21
I0
I0
tp2254
I4225
s(I18
I16
I26
I21
I16
I15
tp2255
I1036
s(I21
I20
I22
I21
I20
I19
tp2256
I111
s(I11
I12
I23
I21
I11
I10
tp2257
I2001
s(I13
I12
I23
I21
I12
I12
tp2258
I1736
s(I17
I15
I22
I21
I14
I15
tp2259
I1065
s(I12
I12
I21
I21
I11
I11
tp2260
I1802
s(I16
I17
I25
I21
I16
I16
tp2261
I981
s(I1
I2
I23
I21
I1
I1
tp2262
I4040
s(I12
I11
I21
I21
I11
I9
tp2263
I1967
s(I9
I9
I23
I21
I8
I7
tp2264
I2577
s(I20
I21
I23
I21
I20
I20
tp2265
I104
s(I13
I12
I21
I21
I11
I11
tp2266
I1754
s(I5
I5
I22
I21
I4
I3
tp2267
I3370
s(I7
I7
I25
I21
I5
I6
tp2268
I3080
s(I2
I3
I23
I21
I1
I2
tp2269
I3888
s(I6
I7
I23
I21
I4
I6
tp2270
I3097
s(I17
I16
I22
I21
I16
I15
tp2271
I909
s(I11
I11
I26
I21
I10
I10
tp2272
I2235
s(I18
I19
I27
I21
I18
I18
tp2273
I656
s(I4
I4
I27
I21
I4
I1
tp2274
I3814
s(I16
I15
I27
I21
I15
I13
tp2275
I1393
s(I5
I6
I21
I21
I4
I4
tp2276
I3222
s(I2
I2
I22
I21
I0
I2
tp2277
I3944
s(I12
I13
I24
I21
I12
I11
tp2278
I1834
s(I0
I3
I21
I21
I0
I0
tp2279
I4135
s(I4
I2
I27
I21
I2
I2
tp2280
I3962
s(I13
I13
I26
I21
I13
I12
tp2281
I1768
s(I13
I14
I25
I21
I12
I12
tp2282
I1722
s(I20
I20
I24
I21
I19
I19
tp2283
I287
s(I13
I12
I25
I21
I12
I11
tp2284
I1882
s(I16
I17
I26
I21
I14
I16
tp2285
I1134
s(I18
I17
I23
I21
I17
I17
tp2286
I686
s(I9
I9
I23
I21
I9
I7
tp2287
I2525
s(I17
I17
I24
I21
I17
I17
tp2288
I783
s(I23
I20
I25
I21
I20
I20
tp2289
I128
s(I18
I17
I24
I21
I16
I17
tp2290
I782
s(I5
I3
I23
I21
I3
I3
tp2291
I3574
s(I20
I21
I27
I21
I20
I20
tp2292
I271
s(I19
I19
I23
I21
I19
I19
tp2293
I341
s(I6
I6
I23
I21
I4
I5
tp2294
I3204
s(I18
I18
I21
I21
I18
I18
tp2295
I448
s(I12
I14
I26
I21
I12
I11
tp2296
I1873
s(I3
I1
I26
I21
I0
I1
tp2297
I4150
s(I10
I12
I27
I21
I9
I10
tp2298
I2339
s(I12
I12
I24
I21
I12
I11
tp2299
I1888
s(I21
I19
I23
I21
I19
I19
tp2300
I250
s(I1
I0
I22
I21
I0
I0
tp2301
I4165
s(I1
I4
I27
I21
I1
I1
tp2302
I4173
s(I21
I21
I27
I21
I20
I20
tp2303
I230
s(I22
I19
I25
I21
I19
I19
tp2304
I373
s(I20
I17
I24
I21
I17
I17
tp2305
I734
s(I11
I12
I26
I21
I10
I11
tp2306
I2135
s(I9
I8
I22
I21
I8
I8
tp2307
I2529
s(I6
I5
I26
I21
I5
I3
tp2308
I3450
s(I3
I4
I25
I21
I3
I2
tp2309
I3771
s(I15
I16
I24
I21
I14
I15
tp2310
I1201
s(I11
I11
I25
I21
I10
I9
tp2311
I2243
s(I17
I19
I22
I21
I17
I16
tp2312
I644
s(I23
I21
I26
I21
I20
I18
tp2313
I222
s(I13
I13
I22
I21
I13
I10
tp2314
I1697
s(I18
I19
I25
I21
I18
I16
tp2315
I676
s(I12
I12
I27
I21
I12
I12
tp2316
I1970
s(I1
I2
I25
I21
I0
I0
tp2317
I4185
s(I3
I1
I23
I21
I1
I0
tp2318
I4048
s(I4
I3
I25
I21
I3
I1
tp2319
I3827
s(I8
I6
I27
I21
I6
I6
tp2320
I3124
s(I19
I18
I26
I21
I17
I17
tp2321
I717
s(I14
I11
I25
I21
I11
I11
tp2322
I2037
s(I16
I14
I26
I21
I13
I14
tp2323
I1455
s(I15
I16
I21
I21
I14
I14
tp2324
I1122
s(I14
I15
I24
I21
I14
I13
tp2325
I1414
s(I5
I6
I22
I21
I5
I5
tp2326
I3158
s(I11
I9
I27
I21
I9
I8
tp2327
I2553
s(I12
I13
I27
I21
I11
I12
tp2328
I1968
s(I5
I6
I26
I21
I4
I4
tp2329
I3445
s(I21
I20
I23
I21
I20
I18
tp2330
I206
s(I10
I11
I26
I21
I9
I9
tp2331
I2395
s(I16
I16
I26
I21
I16
I16
tp2332
I1087
s(I7
I7
I22
I21
I6
I5
tp2333
I2950
s(I24
I21
I26
I21
I21
I21
tp2334
I18
s(I1
I2
I23
I21
I0
I0
tp2335
I4127
s(I8
I10
I22
I21
I8
I8
tp2336
I2476
s(I12
I11
I27
I21
I11
I9
tp2337
I2233
s(I18
I18
I27
I21
I18
I15
tp2338
I874
s(I12
I12
I25
I21
I12
I12
tp2339
I1880
s(I9
I7
I24
I21
I7
I7
tp2340
I2781
s(I11
I11
I23
I21
I10
I9
tp2341
I2157
s(I0
I1
I24
I21
I0
I0
tp2342
I4208
s(I2
I4
I27
I21
I1
I2
tp2343
I4015
s(I4
I4
I21
I21
I2
I4
tp2344
I3481
s(I18
I18
I27
I21
I16
I18
tp2345
I811
s(I20
I20
I22
I21
I18
I20
tp2346
I207
s(I10
I10
I23
I21
I8
I9
tp2347
I2364
s(I7
I8
I23
I21
I7
I6
tp2348
I2841
s(I12
I11
I23
I21
I9
I11
tp2349
I2049
s(I4
I5
I23
I21
I4
I2
tp2350
I3522
s(I12
I11
I24
I21
I11
I11
tp2351
I1989
s(I7
I7
I21
I21
I6
I6
tp2352
I2852
s(I7
I6
I23
I21
I6
I4
tp2353
I3103
s(I11
I12
I24
I21
I10
I10
tp2354
I2095
s(I18
I19
I21
I21
I18
I17
tp2355
I449
s(I16
I17
I22
I21
I15
I16
tp2356
I905
s(I14
I14
I21
I21
I14
I13
tp2357
I1335
s(I8
I10
I24
I21
I8
I8
tp2358
I2570
s(I11
I10
I26
I21
I9
I9
tp2359
I2397
s(I3
I3
I27
I21
I1
I2
tp2360
I4010
s(I20
I20
I22
I21
I20
I20
tp2361
I108
s(I4
I1
I26
I21
I1
I1
tp2362
I4149
s(I7
I5
I24
I21
I5
I5
tp2363
I3201
s(I10
I10
I27
I21
I8
I10
tp2364
I2491
s(I20
I21
I21
I21
I20
I18
tp2365
I143
s(I2
I1
I24
I21
I1
I1
tp2366
I4078
s(I19
I20
I21
I21
I18
I19
tp2367
I266
s(I21
I20
I26
I21
I19
I20
tp2368
I277
s(I11
I11
I26
I21
I11
I10
tp2369
I2188
s(I5
I6
I27
I21
I5
I5
tp2370
I3385
s(I8
I7
I23
I21
I6
I7
tp2371
I2839
s(I3
I3
I21
I21
I3
I2
tp2372
I3645
s(I6
I7
I24
I21
I6
I5
tp2373
I3094
s(I9
I10
I21
I21
I8
I8
tp2374
I2382
s(I2
I3
I24
I21
I2
I1
tp2375
I3934
s(I18
I18
I22
I21
I18
I15
tp2376
I648
s(I17
I17
I27
I21
I17
I15
tp2377
I1025
s(I15
I17
I22
I21
I15
I15
tp2378
I1006
s(I20
I19
I24
I21
I19
I17
tp2379
I429
s(I13
I12
I22
I21
I12
I10
tp2380
I1800
s(I6
I4
I23
I21
I4
I3
tp2381
I3423
s(I15
I14
I26
I21
I12
I14
tp2382
I1556
s(I2
I1
I27
I21
I0
I1
tp2383
I4197
s(I3
I1
I22
I21
I1
I0
tp2384
I4003
s(I20
I19
I23
I21
I19
I18
tp2385
I343
s(I12
I10
I23
I21
I9
I10
tp2386
I2162
s(I3
I3
I22
I21
I3
I0
tp2387
I3797
s(I7
I9
I24
I21
I7
I7
tp2388
I2780
s(I8
I10
I21
I21
I8
I8
tp2389
I2433
s(I3
I1
I25
I21
I1
I0
tp2390
I4120
s(I8
I8
I26
I21
I7
I6
tp2391
I2920
s(I16
I16
I23
I21
I16
I15
tp2392
I1001
s(I17
I17
I23
I21
I15
I17
tp2393
I841
s(I14
I15
I23
I21
I12
I14
tp2394
I1417
s(I3
I5
I26
I21
I2
I3
tp2395
I3762
s(I27
I21
I27
I21
I20
I18
tp2396
I98
s(I2
I5
I25
I21
I2
I2
tp2397
I3924
s(I4
I5
I22
I21
I2
I4
tp2398
I3474
s(I20
I20
I23
I21
I17
I20
tp2399
I290
s(I5
I5
I21
I21
I3
I5
tp2400
I3271
s(I2
I2
I22
I21
I2
I2
tp2401
I3847
s(I24
I21
I27
I21
I20
I19
tp2402
I181
s(I0
I1
I21
I21
I0
I0
tp2403
I4133
s(I11
I11
I27
I21
I10
I9
tp2404
I2337
s(I7
I7
I24
I21
I4
I7
tp2405
I3036
s(I17
I16
I22
I21
I15
I15
tp2406
I957
s(I4
I3
I21
I21
I3
I2
tp2407
I3592
s(I22
I21
I23
I21
I21
I18
tp2408
I74
s(I7
I7
I27
I21
I5
I7
tp2409
I3121
s(I7
I5
I26
I21
I5
I5
tp2410
I3287
s(I23
I21
I27
I21
I21
I21
tp2411
I75
s(I18
I18
I25
I21
I17
I17
tp2412
I722
s(I6
I3
I25
I21
I3
I3
tp2413
I3717
s(I19
I17
I26
I21
I17
I16
tp2414
I826
s(I15
I17
I26
I21
I15
I15
tp2415
I1186
s(I9
I8
I23
I21
I8
I7
tp2416
I2632
s(I20
I18
I23
I21
I18
I17
tp2417
I487
s(I3
I4
I24
I21
I1
I3
tp2418
I3774
s(I9
I11
I21
I21
I9
I9
tp2419
I2223
s(I13
I12
I21
I21
I12
I12
tp2420
I1642
s(I17
I18
I24
I21
I17
I15
tp2421
I839
s(I13
I14
I25
I21
I11
I13
tp2422
I1721
s(I14
I15
I25
I21
I13
I14
tp2423
I1458
s(I23
I21
I26
I21
I21
I18
tp2424
I179
s(I19
I18
I24
I21
I16
I18
tp2425
I627
s(I9
I9
I23
I21
I8
I9
tp2426
I2466
s(I4
I3
I27
I21
I1
I3
tp2427
I3909
s(I19
I19
I25
I21
I17
I19
tp2428
I515
s(I16
I14
I23
I21
I14
I14
tp2429
I1264
s(I18
I19
I23
I21
I18
I16
tp2430
I584
s(I9
I10
I25
I21
I8
I8
tp2431
I2562
s(I10
I9
I24
I21
I9
I8
tp2432
I2465
s(I16
I15
I24
I21
I15
I13
tp2433
I1260
s(I6
I8
I24
I21
I6
I6
tp2434
I2990
s(I5
I5
I25
I21
I4
I4
tp2435
I3452
s(I16
I16
I27
I21
I16
I15
tp2436
I1181
s(I19
I19
I22
I21
I16
I19
tp2437
I435
s(I12
I10
I24
I21
I10
I10
tp2438
I2151
s(I4
I5
I27
I21
I4
I2
tp2439
I3702
s(I17
I19
I21
I21
I17
I16
tp2440
I598
s(I24
I21
I26
I21
I20
I19
tp2441
I134
s(I5
I3
I25
I21
I3
I2
tp2442
I3719
s(I19
I20
I23
I21
I19
I17
tp2443
I387
s(I7
I7
I27
I21
I7
I5
tp2444
I3125
s(I8
I9
I23
I21
I7
I7
tp2445
I2678
s(I9
I9
I24
I21
I9
I6
tp2446
I2627
s(I7
I10
I23
I21
I7
I7
tp2447
I2788
s(I16
I19
I26
I21
I16
I16
tp2448
I1031
s(I2
I2
I23
I21
I1
I0
tp2449
I4042
s(I17
I16
I23
I21
I14
I16
tp2450
I999
s(I16
I18
I23
I21
I16
I15
tp2451
I900
s(I9
I9
I26
I21
I9
I7
tp2452
I2658
s(I21
I21
I23
I21
I20
I19
tp2453
I106
s(I11
I13
I26
I21
I11
I10
tp2454
I2083
s(I12
I12
I27
I21
I12
I11
tp2455
I2021
s(I11
I8
I26
I21
I8
I8
tp2456
I2714
s(I22
I21
I26
I21
I21
I20
tp2457
I115
s(I10
I10
I21
I21
I8
I10
tp2458
I2221
s(I17
I18
I22
I21
I16
I16
tp2459
I745
s(I12
I12
I21
I21
I12
I11
tp2460
I1755
s(I10
I8
I22
I21
I8
I7
tp2461
I2536
s(I12
I14
I25
I21
I11
I12
tp2462
I1825
s(I15
I15
I27
I21
I14
I14
tp2463
I1442
s(I15
I15
I25
I21
I13
I14
tp2464
I1400
s(I23
I20
I24
I21
I20
I20
tp2465
I80
s(I5
I4
I21
I21
I2
I4
tp2466
I3433
s(I5
I4
I27
I21
I2
I4
tp2467
I3699
s(I2
I2
I27
I21
I2
I0
tp2468
I4141
s(I7
I8
I21
I21
I6
I7
tp2469
I2748
s(I2
I2
I27
I21
I2
I1
tp2470
I4103
s(I4
I4
I25
I21
I3
I2
tp2471
I3713
s(I10
I10
I25
I21
I7
I10
tp2472
I2449
s(I9
I8
I23
I21
I7
I8
tp2473
I2629
s(I19
I20
I21
I21
I19
I17
tp2474
I313
s(I1
I1
I25
I21
I0
I0
tp2475
I4205
s(I9
I8
I26
I21
I8
I8
tp2476
I2709
s(I13
I14
I24
I21
I12
I13
tp2477
I1621
s(I11
I12
I25
I21
I11
I9
tp2478
I2146
s(I6
I6
I22
I21
I6
I5
tp2479
I3058
s(I17
I19
I27
I21
I17
I16
tp2480
I870
s(I3
I3
I21
I21
I2
I2
tp2481
I3692
s(I2
I2
I24
I21
I1
I2
tp2482
I3981
s(I7
I7
I26
I21
I7
I5
tp2483
I3078
s(I15
I12
I26
I21
I12
I12
tp2484
I1874
s(I15
I15
I27
I21
I15
I14
tp2485
I1391
s(I9
I10
I24
I21
I8
I8
tp2486
I2515
s(I5
I4
I23
I21
I4
I4
tp2487
I3416
s(I8
I9
I25
I21
I8
I7
tp2488
I2721
s(I6
I6
I22
I21
I6
I6
tp2489
I3007
s(I22
I21
I25
I21
I20
I19
tp2490
I170
s(I18
I16
I25
I21
I16
I16
tp2491
I934
s(I20
I19
I24
I21
I18
I19
tp2492
I377
s(I14
I14
I23
I21
I14
I13
tp2493
I1421
s(I12
I12
I22
I21
I10
I12
tp2494
I1844
s(I14
I14
I24
I21
I12
I13
tp2495
I1567
s(I19
I19
I26
I21
I16
I19
tp2496
I608
s(I17
I17
I22
I21
I16
I16
tp2497
I795
s(I10
I9
I23
I21
I9
I8
tp2498
I2422
s(I5
I4
I23
I21
I2
I4
tp2499
I3519
s(I12
I11
I25
I21
I11
I10
tp2500
I2092
s(I18
I17
I23
I21
I17
I15
tp2501
I793
s(I17
I16
I24
I21
I15
I16
tp2502
I992
s(I27
I20
I27
I21
I20
I18
tp2503
I144
s(I3
I5
I26
I21
I3
I3
tp2504
I3706
s(I14
I14
I21
I21
I12
I13
tp2505
I1430
s(I9
I9
I26
I21
I6
I9
tp2506
I2706
s(I5
I3
I21
I21
I3
I3
tp2507
I3484
s(I6
I6
I23
I21
I6
I5
tp2508
I3101
s(I0
I2
I22
I21
I0
I0
tp2509
I4131
s(I2
I1
I27
I21
I1
I0
tp2510
I4200
s(I3
I1
I21
I21
I0
I1
tp2511
I3957
s(I13
I11
I27
I21
I11
I10
tp2512
I2133
s(I14
I15
I27
I21
I14
I13
tp2513
I1551
s(I4
I5
I21
I21
I4
I4
tp2514
I3321
s(I16
I18
I23
I21
I16
I16
tp2515
I843
s(I8
I8
I21
I21
I6
I8
tp2516
I2641
s(I17
I20
I23
I21
I17
I17
tp2517
I688
s(I1
I0
I26
I21
I0
I0
tp2518
I4229
s(I8
I6
I21
I21
I6
I6
tp2519
I2854
s(I8
I8
I27
I21
I8
I5
tp2520
I2974
s(I9
I10
I23
I21
I8
I8
tp2521
I2468
s(I14
I17
I24
I21
I14
I14
tp2522
I1361
s(I3
I4
I26
I21
I3
I2
tp2523
I3818
s(I4
I5
I21
I21
I2
I4
tp2524
I3431
s(I16
I17
I27
I21
I16
I15
tp2525
I1131
s(I6
I7
I23
I21
I5
I5
tp2526
I3098
s(I8
I8
I25
I21
I6
I8
tp2527
I2821
s(I18
I20
I25
I21
I18
I17
tp2528
I568
s(I5
I4
I26
I21
I2
I4
tp2529
I3656
s(I12
I11
I25
I21
I10
I10
tp2530
I2144
s(I13
I12
I24
I21
I11
I11
tp2531
I1887
s(I16
I17
I23
I21
I16
I14
tp2532
I1002
s(I4
I4
I24
I21
I4
I3
tp2533
I3568
s(I10
I10
I22
I21
I10
I10
tp2534
I2167
s(I10
I12
I26
I21
I10
I9
tp2535
I2293
s(I12
I12
I26
I21
I9
I12
tp2536
I2076
s(I11
I11
I22
I21
I11
I10
tp2537
I2008
s(I21
I19
I27
I21
I19
I18
tp2538
I459
s(I15
I15
I22
I21
I14
I13
tp2539
I1270
s(I16
I18
I25
I21
I15
I16
tp2540
I985
s(I10
I9
I27
I21
I9
I8
tp2541
I2602
s(I11
I9
I24
I21
I9
I9
tp2542
I2361
s(I11
I10
I27
I21
I10
I10
tp2543
I2336
s(I3
I3
I23
I21
I2
I3
tp2544
I3726
s(I9
I9
I25
I21
I8
I8
tp2545
I2612
s(I10
I9
I23
I21
I9
I7
tp2546
I2473
s(I11
I9
I23
I21
I9
I9
tp2547
I2314
s(I12
I12
I26
I21
I11
I12
tp2548
I1973
s(I13
I13
I21
I21
I13
I13
tp2549
I1490
s(I21
I21
I24
I21
I21
I21
tp2550
I28
s(I5
I3
I24
I21
I3
I2
tp2551
I3676
s(I8
I6
I26
I21
I5
I6
tp2552
I3135
s(I3
I1
I25
I21
I0
I1
tp2553
I4119
s(I8
I9
I24
I21
I8
I8
tp2554
I2618
s(I3
I1
I27
I21
I1
I0
tp2555
I4178
s(I3
I5
I21
I21
I3
I2
tp2556
I3536
s(I16
I13
I22
I21
I13
I13
tp2557
I1484
s(I20
I20
I27
I21
I17
I20
tp2558
I451
s(I15
I14
I24
I21
I14
I13
tp2559
I1415
s(I18
I17
I27
I21
I17
I17
tp2560
I866
s(I16
I18
I27
I21
I15
I16
tp2561
I1079
s(I18
I18
I23
I21
I17
I18
tp2562
I578
s(I7
I4
I24
I21
I4
I4
tp2563
I3464
s(I6
I6
I27
I21
I5
I4
tp2564
I3387
s(I19
I18
I27
I21
I18
I16
tp2565
I763
s(I2
I2
I26
I21
I1
I1
tp2566
I4107
s(I20
I18
I22
I21
I18
I17
tp2567
I444
s(I6
I5
I25
I21
I5
I4
tp2568
I3352
s(I10
I12
I27
I21
I10
I9
tp2569
I2340
s(I6
I7
I22
I21
I6
I5
tp2570
I3008
s(I17
I18
I24
I21
I17
I16
tp2571
I784
s(I4
I3
I23
I21
I1
I3
tp2572
I3729
s(I26
I21
I27
I21
I21
I18
tp2573
I94
s(I3
I4
I24
I21
I2
I2
tp2574
I3775
s(I4
I6
I26
I21
I4
I4
tp2575
I3496
s(I23
I21
I24
I21
I20
I21
tp2576
I16
s(I18
I20
I26
I21
I18
I18
tp2577
I559
s(I7
I8
I27
I21
I6
I7
tp2578
I3018
s(I4
I5
I26
I21
I3
I3
tp2579
I3655
s(I15
I13
I26
I21
I13
I13
tp2580
I1607
s(I5
I6
I23
I21
I5
I5
tp2581
I3205
s(I15
I16
I24
I21
I15
I14
tp2582
I1204
s(I8
I8
I23
I21
I8
I6
tp2583
I2735
s(I15
I16
I21
I21
I15
I13
tp2584
I1126
s(I14
I14
I22
I21
I11
I14
tp2585
I1476
s(I4
I4
I23
I21
I3
I2
tp2586
I3627
s(I13
I13
I22
I21
I12
I11
tp2587
I1690
s(I5
I6
I23
I21
I4
I5
tp2588
I3258
s(I8
I8
I27
I21
I5
I8
tp2589
I2963
s(I5
I5
I26
I21
I3
I5
tp2590
I3494
s(I7
I7
I22
I21
I7
I6
tp2591
I2848
s(I3
I4
I23
I21
I3
I2
tp2592
I3681
s(I16
I16
I24
I21
I16
I15
tp2593
I1048
s(I5
I7
I25
I21
I5
I4
tp2594
I3296
s(I13
I13
I27
I21
I12
I13
tp2595
I1806
s(I20
I18
I26
I21
I18
I18
tp2596
I560
s(I4
I3
I22
I21
I3
I3
tp2597
I3579
s(I13
I10
I26
I21
I10
I10
tp2598
I2294
s(I25
I21
I26
I21
I21
I19
tp2599
I51
s(I22
I20
I26
I21
I19
I20
tp2600
I262
s(I17
I17
I22
I21
I14
I17
tp2601
I846
s(I18
I17
I23
I21
I16
I17
tp2602
I739
s(I12
I12
I25
I21
I10
I11
tp2603
I2030
s(I6
I6
I21
I21
I6
I3
tp2604
I3120
s(I11
I10
I25
I21
I10
I9
tp2605
I2302
s(I5
I6
I21
I21
I3
I5
tp2606
I3221
s(I2
I4
I27
I21
I2
I1
tp2607
I4016
s(I3
I2
I23
I21
I2
I2
tp2608
I3836
s(I6
I6
I26
I21
I6
I3
tp2609
I3347
s(I7
I8
I23
I21
I6
I7
tp2610
I2838
s(I16
I16
I24
I21
I14
I15
tp2611
I1147
s(I16
I14
I22
I21
I14
I13
tp2612
I1276
s(I18
I18
I22
I21
I17
I16
tp2613
I641
s(I23
I21
I27
I21
I20
I19
tp2614
I220
s(I11
I12
I24
I21
I11
I11
tp2615
I1988
s(I5
I2
I24
I21
I2
I2
tp2616
I3884
s(I16
I16
I21
I21
I13
I16
tp2617
I1009
s(I2
I4
I23
I21
I2
I2
tp2618
I3783
s(I9
I10
I21
I21
I9
I7
tp2619
I2386
s(I2
I1
I26
I21
I1
I0
tp2620
I4183
s(I7
I7
I23
I21
I5
I7
tp2621
I2941
s(I17
I16
I21
I21
I16
I16
tp2622
I802
s(I25
I21
I27
I21
I21
I19
tp2623
I90
s(I3
I4
I23
I21
I3
I3
tp2624
I3625
s(I16
I17
I26
I21
I16
I14
tp2625
I1139
s(I13
I12
I25
I21
I10
I12
tp2626
I1933
s(I5
I4
I21
I21
I4
I4
tp2627
I3322
s(I17
I15
I26
I21
I14
I15
tp2628
I1245
s(I6
I6
I25
I21
I4
I6
tp2629
I3241
s(I25
I21
I27
I21
I20
I19
tp2630
I137
s(I4
I4
I22
I21
I3
I2
tp2631
I3580
s(I19
I19
I24
I21
I19
I18
tp2632
I427
s(I14
I15
I23
I21
I13
I13
tp2633
I1418
s(I10
I8
I27
I21
I7
I8
tp2634
I2762
s(I5
I5
I22
I21
I5
I5
tp2635
I3217
s(I18
I18
I24
I21
I18
I16
tp2636
I682
s(I8
I7
I24
I21
I7
I5
tp2637
I2940
s(I18
I17
I22
I21
I15
I17
tp2638
I746
s(I13
I15
I21
I21
I12
I13
tp2639
I1435
s(I15
I15
I26
I21
I15
I15
tp2640
I1297
s(I13
I14
I22
I21
I13
I13
tp2641
I1478
s(I8
I8
I26
I21
I6
I7
tp2642
I2917
s(I11
I10
I23
I21
I9
I9
tp2643
I2260
s(I3
I2
I25
I21
I1
I2
tp2644
I3977
s(I13
I14
I26
I21
I12
I12
tp2645
I1765
s(I4
I2
I24
I21
I2
I2
tp2646
I3831
s(I20
I19
I22
I21
I18
I18
tp2647
I348
s(I10
I8
I23
I21
I7
I8
tp2648
I2582
s(I27
I21
I27
I21
I21
I19
tp2649
I27
s(I11
I14
I23
I21
I11
I11
tp2650
I1948
s(I11
I10
I24
I21
I9
I9
tp2651
I2307
s(I6
I5
I23
I21
I4
I4
tp2652
I3310
s(I13
I14
I22
I21
I11
I13
tp2653
I1584
s(I20
I18
I24
I21
I18
I17
tp2654
I529
s(I20
I20
I21
I21
I18
I20
tp2655
I185
s(I3
I3
I24
I21
I2
I1
tp2656
I3880
s(I17
I20
I21
I21
I17
I17
tp2657
I596
s(I22
I21
I23
I21
I20
I19
tp2658
I73
s(I14
I14
I22
I21
I14
I14
tp2659
I1327
s(I8
I9
I27
I21
I7
I7
tp2660
I2858
s(I14
I13
I24
I21
I13
I11
tp2661
I1680
s(I21
I21
I27
I21
I20
I19
tp2662
I273
s(I23
I21
I24
I21
I21
I19
tp2663
I42
s(I17
I17
I22
I21
I17
I14
tp2664
I857
s(I11
I12
I21
I21
I11
I9
tp2665
I1966
s(I10
I11
I24
I21
I8
I10
tp2666
I2304
s(I16
I15
I24
I21
I14
I14
tp2667
I1257
s(I7
I6
I26
I21
I5
I6
tp2668
I3186
s(I14
I16
I27
I21
I14
I14
tp2669
I1443
s(I2
I2
I25
I21
I1
I1
tp2670
I4072
s(I12
I12
I22
I21
I10
I11
tp2671
I1897
s(I13
I13
I22
I21
I13
I13
tp2672
I1537
s(I8
I9
I26
I21
I8
I6
tp2673
I2819
s(I6
I4
I22
I21
I4
I3
tp2674
I3376
s(I18
I19
I24
I21
I18
I16
tp2675
I630
s(I13
I14
I27
I21
I13
I13
tp2676
I1705
s(I4
I4
I27
I21
I3
I4
tp2677
I3696
s(I8
I9
I24
I21
I8
I7
tp2678
I2674
s(I17
I16
I21
I21
I16
I15
tp2679
I862
s(I11
I11
I21
I21
I11
I10
tp2680
I1965
s(I8
I8
I24
I21
I5
I8
tp2681
I2826
s(I10
I11
I24
I21
I10
I10
tp2682
I2198
s(I9
I8
I25
I21
I6
I8
tp2683
I2773
s(I10
I10
I21
I21
I10
I10
tp2684
I2120
s(I20
I20
I26
I21
I20
I18
tp2685
I365
s(I3
I1
I24
I21
I0
I1
tp2686
I4084
s(I20
I20
I24
I21
I18
I19
tp2687
I331
s(I21
I19
I25
I21
I18
I19
tp2688
I374
s(I10
I10
I23
I21
I10
I8
tp2689
I2315
s(I8
I7
I27
I21
I7
I5
tp2690
I3073
s(I24
I21
I26
I21
I21
I18
tp2691
I135
s(I17
I16
I25
I21
I14
I16
tp2692
I1093
s(I15
I16
I26
I21
I15
I13
tp2693
I1349
s(I16
I16
I23
I21
I15
I15
tp2694
I1052
s(I6
I6
I21
I21
I5
I5
tp2695
I3062
s(I6
I6
I26
I21
I6
I6
tp2696
I3187
s(I16
I15
I22
I21
I14
I14
tp2697
I1167
s(I17
I16
I21
I21
I15
I15
tp2698
I914
s(I19
I17
I25
I21
I17
I16
tp2699
I779
s(I16
I18
I26
I21
I16
I16
tp2700
I976
s(I13
I11
I24
I21
I10
I11
tp2701
I1995
s(I11
I13
I26
I21
I10
I11
tp2702
I2082
s(I22
I20
I23
I21
I20
I20
tp2703
I72
s(I5
I2
I27
I21
I2
I2
tp2704
I4017
s(I14
I11
I26
I21
I11
I11
tp2705
I2084
s(I20
I20
I23
I21
I20
I19
tp2706
I202
s(I16
I17
I21
I21
I14
I16
tp2707
I911
s(I12
I13
I22
I21
I10
I12
tp2708
I1794
s(I13
I13
I21
I21
I11
I13
tp2709
I1591
s(I18
I17
I22
I21
I16
I16
tp2710
I747
s(I11
I14
I27
I21
I11
I11
tp2711
I2128
s(I6
I6
I24
I21
I5
I4
tp2712
I3250
s(I3
I3
I26
I21
I1
I3
tp2713
I3914
s(I8
I7
I25
I21
I7
I5
tp2714
I2987
s(I12
I14
I22
I21
I11
I12
tp2715
I1692
s(I17
I15
I25
I21
I14
I15
tp2716
I1198
s(I11
I12
I26
I21
I11
I11
tp2717
I2078
s(I3
I0
I22
I21
I0
I0
tp2718
I4167
s(I13
I13
I24
I21
I10
I13
tp2719
I1776
s(I17
I18
I26
I21
I17
I16
tp2720
I878
s(I15
I13
I25
I21
I13
I12
tp2721
I1619
s(I10
I11
I23
I21
I9
I9
tp2722
I2258
s(I14
I13
I25
I21
I13
I12
tp2723
I1672
s(I8
I8
I22
I21
I8
I6
tp2724
I2688
s(I13
I13
I23
I21
I10
I13
tp2725
I1733
s(I5
I5
I21
I21
I5
I3
tp2726
I3275
s(I2
I2
I21
I21
I2
I2
tp2727
I3800
s(I14
I16
I24
I21
I14
I13
tp2728
I1363
s(I22
I20
I25
I21
I20
I20
tp2729
I169
s(I4
I3
I27
I21
I2
I2
tp2730
I3910
s(I4
I3
I24
I21
I3
I3
tp2731
I3669
s(I2
I4
I23
I21
I2
I1
tp2732
I3840
s(I17
I16
I26
I21
I14
I16
tp2733
I1136
s(I17
I16
I25
I21
I15
I15
tp2734
I1094
s(I13
I16
I24
I21
I13
I13
tp2735
I1571
s(I1
I1
I24
I21
I0
I1
tp2736
I4157
s(I13
I13
I26
I21
I13
I10
tp2737
I1877
s(I8
I8
I25
I21
I6
I7
tp2738
I2870
s(I11
I10
I26
I21
I10
I9
tp2739
I2349
s(I21
I20
I23
I21
I19
I20
tp2740
I156
s(I10
I13
I23
I21
I10
I10
tp2741
I2158
s(I7
I9
I26
I21
I6
I7
tp2742
I2922
s(I7
I6
I22
I21
I5
I5
tp2743
I3057
s(I6
I5
I21
I21
I5
I3
tp2744
I3227
s(I13
I13
I25
I21
I12
I13
tp2745
I1720
s(I18
I17
I24
I21
I16
I16
tp2746
I837
s(I3
I1
I24
I21
I1
I1
tp2747
I4037
s(I24
I21
I25
I21
I21
I18
tp2748
I88
s(I13
I11
I21
I21
I10
I11
tp2749
I1858
s(I27
I21
I27
I21
I20
I21
tp2750
I7
s(I2
I3
I24
I21
I0
I2
tp2751
I3982
s(I12
I13
I27
I21
I12
I10
tp2752
I2022
s(I17
I14
I27
I21
I14
I14
tp2753
I1501
s(I3
I1
I23
I21
I1
I1
tp2754
I3992
s(I10
I8
I26
I21
I8
I8
tp2755
I2657
s(I5
I8
I26
I21
I5
I5
tp2756
I3341
s(I9
I7
I24
I21
I7
I6
tp2757
I2836
s(I2
I3
I25
I21
I2
I0
tp2758
I4032
s(I14
I16
I22
I21
I13
I14
tp2759
I1272
s(I18
I17
I21
I21
I16
I17
tp2760
I650
s(I8
I8
I24
I21
I7
I8
tp2761
I2723
s(I10
I8
I25
I21
I8
I7
tp2762
I2669
s(I15
I13
I27
I21
I12
I13
tp2763
I1712
s(I3
I3
I22
I21
I3
I3
tp2764
I3637
s(I3
I3
I22
I21
I2
I1
tp2765
I3790
s(I22
I21
I23
I21
I21
I21
tp2766
I2
s(I22
I21
I24
I21
I20
I18
tp2767
I174
s(I12
I11
I21
I21
I11
I11
tp2768
I1852
s(I14
I15
I22
I21
I13
I14
tp2769
I1325
s(I9
I10
I22
I21
I9
I9
tp2770
I2318
s(I5
I4
I25
I21
I3
I4
tp2771
I3559
s(I19
I19
I25
I21
I19
I16
tp2772
I572
s(I12
I14
I23
I21
I12
I12
tp2773
I1683
s(I8
I9
I22
I21
I7
I8
tp2774
I2585
s(I8
I8
I21
I21
I8
I8
tp2775
I2540
s(I1
I1
I26
I21
I0
I0
tp2776
I4217
s(I9
I9
I25
I21
I7
I8
tp2777
I2660
s(I15
I14
I26
I21
I14
I12
tp2778
I1560
s(I18
I19
I26
I21
I17
I17
tp2779
I715
s(I13
I16
I21
I21
I13
I13
tp2780
I1434
s(I15
I15
I22
I21
I15
I14
tp2781
I1168
s(I20
I20
I21
I21
I20
I19
tp2782
I142
s(I5
I5
I27
I21
I5
I3
tp2783
I3545
s(I12
I12
I23
I21
I9
I12
tp2784
I1943
s(I17
I19
I24
I21
I16
I17
tp2785
I732
s(I7
I7
I26
I21
I5
I7
tp2786
I3074
s(I3
I4
I24
I21
I3
I2
tp2787
I3724
s(I9
I7
I27
I21
I7
I7
tp2788
I2914
s(I18
I15
I27
I21
I15
I15
tp2789
I1291
s(I2
I5
I23
I21
I2
I2
tp2790
I3838
s(I12
I11
I25
I21
I10
I11
tp2791
I2089
s(I3
I2
I23
I21
I1
I1
tp2792
I3940
s(I10
I9
I25
I21
I9
I9
tp2793
I2452
s(I17
I14
I23
I21
I14
I14
tp2794
I1321
s(I16
I15
I27
I21
I13
I15
tp2795
I1389
s(I3
I5
I27
I21
I2
I3
tp2796
I3809
s(I2
I2
I26
I21
I0
I2
tp2797
I4106
s(I20
I19
I21
I21
I19
I17
tp2798
I314
s(I11
I11
I26
I21
I9
I10
tp2799
I2287
s(I10
I8
I27
I21
I8
I7
tp2800
I2763
s(I5
I6
I25
I21
I5
I4
tp2801
I3351
s(I10
I9
I24
I21
I7
I9
tp2802
I2516
s(I19
I16
I27
I21
I16
I16
tp2803
I1081
s(I1
I2
I25
I21
I0
I1
tp2804
I4152
s(I6
I9
I22
I21
I6
I6
tp2805
I2951
s(I16
I16
I24
I21
I14
I16
tp2806
I1098
s(I10
I8
I22
I21
I8
I8
tp2807
I2477
s(I7
I5
I27
I21
I4
I5
tp2808
I3392
s(I18
I18
I24
I21
I16
I17
tp2809
I727
s(I6
I8
I22
I21
I6
I6
tp2810
I2896
s(I23
I21
I25
I21
I21
I21
tp2811
I15
s(I19
I19
I23
I21
I19
I17
tp2812
I434
s(I5
I5
I27
I21
I4
I5
tp2813
I3486
s(I11
I10
I21
I21
I9
I9
tp2814
I2174
s(I18
I16
I23
I21
I16
I15
tp2815
I903
s(I3
I4
I27
I21
I3
I2
tp2816
I3861
s(I21
I21
I25
I21
I20
I21
tp2817
I100
s(I12
I12
I24
I21
I12
I9
tp2818
I1997
s(I17
I18
I23
I21
I15
I17
tp2819
I787
s(I5
I5
I24
I21
I4
I5
tp2820
I3353
s(I19
I17
I21
I21
I16
I17
tp2821
I600
s(I15
I15
I23
I21
I13
I15
tp2822
I1261
s(I12
I13
I21
I21
I12
I12
tp2823
I1641
s(I12
I13
I22
I21
I12
I12
tp2824
I1688
s(I3
I2
I25
I21
I2
I1
tp2825
I3980
s(I13
I11
I22
I21
I11
I11
tp2826
I1847
s(I15
I16
I21
I21
I14
I15
tp2827
I1068
s(I11
I9
I23
I21
I9
I8
tp2828
I2373
s(I9
I8
I26
I21
I8
I7
tp2829
I2769
s(I22
I21
I27
I21
I21
I18
tp2830
I261
s(I5
I2
I26
I21
I2
I2
tp2831
I3972
s(I5
I5
I25
I21
I5
I4
tp2832
I3405
s(I8
I6
I22
I21
I6
I5
tp2833
I2956
s(I23
I21
I26
I21
I20
I20
tp2834
I126
s(I9
I6
I23
I21
I6
I6
tp2835
I3001
s(I4
I3
I26
I21
I2
I3
tp2836
I3816
s(I3
I4
I24
I21
I3
I3
tp2837
I3668
s(I12
I13
I21
I21
I10
I12
tp2838
I1751
s(I9
I9
I22
I21
I8
I9
tp2839
I2423
s(I18
I19
I25
I21
I18
I18
tp2840
I564
s(I8
I9
I22
I21
I8
I6
tp2841
I2639
s(I14
I13
I22
I21
I13
I12
tp2842
I1539
s(I5
I5
I25
I21
I3
I4
tp2843
I3500
s(I13
I14
I27
I21
I13
I11
tp2844
I1812
s(I10
I9
I23
I21
I7
I9
tp2845
I2469
s(I3
I4
I22
I21
I1
I3
tp2846
I3684
s(I2
I2
I21
I21
I0
I2
tp2847
I3901
s(I3
I4
I27
I21
I2
I2
tp2848
I3908
s(I10
I10
I23
I21
I10
I7
tp2849
I2374
s(I13
I13
I25
I21
I13
I11
tp2850
I1775
s(I5
I4
I25
I21
I2
I4
tp2851
I3613
s(I16
I16
I23
I21
I15
I16
tp2852
I996
s(I16
I16
I21
I21
I16
I16
tp2853
I860
s(I14
I17
I26
I21
I14
I14
tp2854
I1451
s(I11
I11
I23
I21
I10
I11
tp2855
I2046
s(I9
I11
I24
I21
I9
I8
tp2856
I2413
s(I4
I4
I25
I21
I3
I4
tp2857
I3610
s(I3
I2
I27
I21
I1
I2
tp2858
I4059
s(I4
I2
I27
I21
I1
I2
tp2859
I4018
s(I21
I21
I23
I21
I21
I19
tp2860
I62
s(I8
I5
I27
I21
I5
I5
tp2861
I3391
s(I5
I4
I25
I21
I4
I4
tp2862
I3502
s(I7
I6
I23
I21
I6
I6
tp2863
I2996
s(I21
I19
I24
I21
I19
I18
tp2864
I338
s(I15
I14
I27
I21
I12
I14
tp2865
I1599
s(I17
I18
I27
I21
I17
I16
tp2866
I921
s(I19
I17
I27
I21
I17
I16
tp2867
I873
s(I6
I8
I26
I21
I6
I5
tp2868
I3133
s(I16
I18
I24
I21
I16
I16
tp2869
I890
s(I11
I12
I22
I21
I11
I10
tp2870
I1958
s(I14
I13
I26
I21
I11
I13
tp2871
I1766
s(I9
I11
I25
I21
I8
I9
tp2872
I2455
s(I1
I3
I21
I21
I1
I0
tp2873
I3955
s(I3
I2
I24
I21
I1
I1
tp2874
I3985
s(I10
I10
I25
I21
I10
I7
tp2875
I2460
s(I12
I10
I26
I21
I10
I9
tp2876
I2296
s(I23
I21
I27
I21
I21
I18
tp2877
I221
s(I20
I18
I25
I21
I18
I18
tp2878
I518
s(I11
I11
I26
I21
I11
I8
tp2879
I2297
s(I6
I7
I21
I21
I4
I6
tp2880
I3011
s(I19
I18
I23
I21
I17
I18
tp2881
I532
s(I16
I16
I21
I21
I14
I15
tp2882
I1010
s(I6
I5
I22
I21
I5
I4
tp2883
I3219
s(I14
I13
I26
I21
I13
I13
tp2884
I1659
s(I16
I16
I27
I21
I16
I16
tp2885
I1130
s(I3
I3
I25
I21
I3
I1
tp2886
I3875
s(I20
I19
I23
I21
I17
I19
tp2887
I384
s(I8
I8
I25
I21
I8
I7
tp2888
I2775
s(I17
I16
I25
I21
I16
I15
tp2889
I1042
s(I11
I10
I23
I21
I10
I8
tp2890
I2263
s(I19
I20
I24
I21
I18
I18
tp2891
I424
s(I19
I19
I27
I21
I19
I19
tp2892
I504
s(I3
I4
I23
I21
I2
I2
tp2893
I3728
s(I18
I17
I26
I21
I16
I16
tp2894
I927
s(I11
I10
I24
I21
I10
I10
tp2895
I2199
s(I17
I16
I27
I21
I16
I14
tp2896
I1183
s(I12
I13
I26
I21
I11
I11
tp2897
I1975
s(I9
I8
I21
I21
I6
I8
tp2898
I2593
s(I14
I14
I26
I21
I14
I14
tp2899
I1507
s(I13
I12
I27
I21
I12
I11
tp2900
I1972
s(I1
I1
I26
I21
I1
I0
tp2901
I4204
s(I5
I5
I22
I21
I3
I4
tp2902
I3367
s(I4
I4
I22
I21
I2
I3
tp2903
I3577
s(I11
I10
I22
I21
I10
I9
tp2904
I2169
s(I19
I20
I27
I21
I19
I18
tp2905
I505
s(I19
I19
I24
I21
I18
I19
tp2906
I422
s(I12
I10
I27
I21
I10
I9
tp2907
I2343
s(I12
I12
I25
I21
I10
I12
tp2908
I1981
s(I21
I18
I26
I21
I18
I18
tp2909
I615
s(I14
I14
I23
I21
I13
I13
tp2910
I1472
s(I13
I13
I26
I21
I11
I13
tp2911
I1814
s(I18
I18
I21
I21
I17
I16
tp2912
I595
s(I15
I15
I26
I21
I14
I14
tp2913
I1395
s(I16
I17
I27
I21
I15
I16
tp2914
I1128
s(I11
I11
I27
I21
I10
I11
tp2915
I2226
s(I7
I8
I22
I21
I7
I5
tp2916
I2849
s(I20
I19
I22
I21
I19
I19
tp2917
I254
s(I11
I10
I24
I21
I8
I10
tp2918
I2306
s(I14
I13
I24
I21
I12
I12
tp2919
I1677
s(I15
I14
I25
I21
I13
I14
tp2920
I1459
s(I1
I1
I22
I21
I0
I0
tp2921
I4130
s(I8
I7
I22
I21
I6
I6
tp2922
I2847
s(I3
I5
I23
I21
I3
I3
tp2923
I3573
s(I6
I6
I25
I21
I5
I5
tp2924
I3242
s(I6
I5
I21
I21
I5
I5
tp2925
I3112
s(I2
I3
I27
I21
I2
I2
tp2926
I4011
s(I9
I9
I26
I21
I9
I8
tp2927
I2608
s(I12
I12
I22
I21
I11
I12
tp2928
I1793
s(I20
I17
I27
I21
I17
I17
tp2929
I871
s(I5
I3
I23
I21
I3
I2
tp2930
I3633
s(I23
I21
I24
I21
I20
I18
tp2931
I131
s(I10
I9
I22
I21
I9
I7
tp2932
I2430
s(I9
I9
I25
I21
I6
I9
tp2933
I2659
s(I17
I17
I22
I21
I16
I15
tp2934
I850
s(I1
I1
I24
I21
I0
I0
tp2935
I4188
s(I7
I6
I25
I21
I4
I6
tp2936
I3193
s(I3
I6
I27
I21
I3
I3
tp2937
I3808
s(I16
I15
I24
I21
I15
I15
tp2938
I1149
s(I10
I7
I23
I21
I7
I7
tp2939
I2791
s(I7
I6
I26
I21
I6
I5
tp2940
I3189
s(I2
I2
I27
I21
I0
I2
tp2941
I4137
s(I4
I6
I22
I21
I4
I4
tp2942
I3316
s(I1
I4
I23
I21
I1
I1
tp2943
I4043
s(I14
I14
I27
I21
I13
I14
tp2944
I1596
s(I24
I21
I26
I21
I20
I21
tp2945
I44
s(I5
I5
I23
I21
I4
I4
tp2946
I3362
s(I19
I20
I23
I21
I19
I19
tp2947
I292
s(I13
I12
I26
I21
I10
I12
tp2948
I1976
s(I6
I6
I21
I21
I4
I6
tp2949
I3061
s(I19
I18
I21
I21
I18
I18
tp2950
I397
s(I16
I15
I26
I21
I13
I15
tp2951
I1346
s(I17
I17
I21
I21
I17
I16
tp2952
I705
s(I15
I14
I25
I21
I12
I14
tp2953
I1513
s(I20
I19
I25
I21
I17
I19
tp2954
I468
s(I7
I5
I27
I21
I5
I5
tp2955
I3334
s(I21
I19
I25
I21
I19
I18
tp2956
I375
s(I20
I20
I22
I21
I19
I18
tp2957
I255
s(I13
I12
I27
I21
I11
I12
tp2958
I1969
s(I18
I18
I21
I21
I18
I15
tp2959
I602
s(I6
I5
I24
I21
I4
I4
tp2960
I3357
s(I3
I6
I22
I21
I3
I3
tp2961
I3581
s(I17
I18
I25
I21
I16
I16
tp2962
I882
s(I7
I8
I25
I21
I7
I7
tp2963
I2871
s(I12
I12
I21
I21
I12
I9
tp2964
I1860
s(I16
I15
I22
I21
I15
I15
tp2965
I1059
s(I17
I18
I23
I21
I17
I15
tp2966
I792
s(I0
I0
I27
I21
I0
I0
tp2967
I4238
s(I12
I12
I23
I21
I10
I12
tp2968
I1891
s(I5
I3
I21
I21
I2
I3
tp2969
I3538
s(I15
I15
I24
I21
I13
I14
tp2970
I1357
s(I14
I14
I26
I21
I11
I14
tp2971
I1656
s(I10
I10
I25
I21
I9
I9
tp2972
I2402
s(I10
I7
I27
I21
I7
I7
tp2973
I2971
s(I12
I12
I26
I21
I12
I9
tp2974
I2087
s(I15
I18
I23
I21
I15
I15
tp2975
I1108
s(I2
I3
I24
I21
I2
I0
tp2976
I3987
s(I15
I16
I25
I21
I15
I13
tp2977
I1306
s(I13
I12
I22
I21
I12
I12
tp2978
I1689
s(I5
I3
I22
I21
I3
I3
tp2979
I3527
s(I16
I17
I24
I21
I16
I16
tp2980
I938
s(I15
I15
I27
I21
I15
I12
tp2981
I1504
s(I15
I14
I21
I21
I13
I14
tp2982
I1279
s(I2
I2
I24
I21
I1
I1
tp2983
I4035
s(I6
I6
I22
I21
I6
I4
tp2984
I3108
s(I22
I21
I25
I21
I20
I21
tp2985
I68
s(I4
I3
I23
I21
I3
I2
tp2986
I3682
s(I20
I20
I27
I21
I20
I19
tp2987
I358
s(I7
I7
I24
I21
I5
I6
tp2988
I3037
s(I14
I14
I23
I21
I14
I11
tp2989
I1534
s(I11
I11
I22
I21
I9
I11
tp2990
I2054
s(I15
I14
I26
I21
I14
I14
tp2991
I1449
s(I4
I4
I25
I21
I2
I4
tp2992
I3661
s(I2
I2
I23
I21
I1
I2
tp2993
I3936
s(I7
I6
I27
I21
I6
I5
tp2994
I3232
s(I6
I7
I25
I21
I5
I6
tp2995
I3138
s(I11
I11
I21
I21
I10
I10
tp2996
I2012
s(I2
I3
I21
I21
I1
I2
tp2997
I3798
s(I15
I15
I21
I21
I15
I13
tp2998
I1175
s(I17
I17
I23
I21
I14
I17
tp2999
I893
s(I7
I7
I21
I21
I7
I7
tp3000
I2750
s(I18
I19
I27
I21
I18
I16
tp3001
I762
s(I8
I10
I22
I21
I8
I7
tp3002
I2533
s(I16
I16
I21
I21
I16
I15
tp3003
I915
s(I8
I9
I27
I21
I7
I8
tp3004
I2808
s(I13
I13
I26
I21
I12
I11
tp3005
I1870
s(I14
I15
I21
I21
I12
I14
tp3006
I1331
s(I4
I3
I25
I21
I2
I3
tp3007
I3769
s(I6
I6
I23
I21
I6
I3
tp3008
I3214
s(I26
I21
I27
I21
I20
I21
tp3009
I24
s(I14
I15
I26
I21
I14
I13
tp3010
I1508
s(I10
I12
I27
I21
I10
I10
tp3011
I2283
s(I8
I7
I27
I21
I5
I7
tp3012
I3069
s(I8
I8
I27
I21
I8
I6
tp3013
I2915
s(I25
I21
I26
I21
I20
I20
tp3014
I50
s(I24
I21
I25
I21
I20
I19
tp3015
I87
s(I13
I11
I21
I21
I11
I10
tp3016
I1859
s(I21
I20
I22
I21
I19
I20
tp3017
I110
s(I16
I17
I26
I21
I15
I15
tp3018
I1135
s(I3
I2
I22
I21
I1
I2
tp3019
I3846
s(I5
I5
I24
I21
I3
I5
tp3020
I3408
s(I9
I11
I26
I21
I8
I9
tp3021
I2502
s(I9
I7
I24
I21
I6
I7
tp3022
I2835
s(I18
I18
I25
I21
I16
I17
tp3023
I770
s(I18
I18
I24
I21
I15
I18
tp3024
I726
s(I6
I8
I25
I21
I5
I6
tp3025
I3085
s(I17
I18
I23
I21
I17
I16
tp3026
I741
s(I9
I11
I21
I21
I8
I9
tp3027
I2275
s(I16
I16
I25
I21
I16
I16
tp3028
I1040
s(I7
I6
I21
I21
I6
I6
tp3029
I2902
s(I14
I15
I25
I21
I14
I12
tp3030
I1516
s(I20
I20
I26
I21
I18
I20
tp3031
I363
s(I22
I21
I24
I21
I21
I19
tp3032
I71
s(I17
I19
I25
I21
I17
I16
tp3033
I776
s(I12
I13
I23
I21
I12
I12
tp3034
I1735
s(I5
I5
I22
I21
I5
I4
tp3035
I3268
s(I17
I18
I25
I21
I15
I17
tp3036
I881
s(I9
I8
I22
I21
I8
I6
tp3037
I2640
s(I5
I7
I23
I21
I5
I5
tp3038
I3153
s(I10
I10
I22
I21
I10
I8
tp3039
I2268
s(I5
I4
I24
I21
I3
I3
tp3040
I3567
s(I18
I18
I22
I21
I18
I18
tp3041
I491
s(I2
I1
I23
I21
I0
I1
tp3042
I4087
s(I16
I17
I21
I21
I16
I15
tp3043
I861
s(I8
I8
I24
I21
I7
I7
tp3044
I2779
s(I11
I11
I22
I21
I11
I8
tp3045
I2117
s(I11
I11
I26
I21
I9
I11
tp3046
I2234
s(I3
I2
I24
I21
I2
I1
tp3047
I3935
s(I15
I15
I22
I21
I14
I15
tp3048
I1163
s(I3
I3
I27
I21
I3
I2
tp3049
I3911
s(I20
I20
I24
I21
I20
I20
tp3050
I196
s(I19
I16
I22
I21
I16
I16
tp3051
I854
s(I9
I9
I22
I21
I8
I8
tp3052
I2475
s(I14
I12
I22
I21
I12
I11
tp3053
I1696
s(I12
I15
I22
I21
I12
I12
tp3054
I1691
s(I1
I2
I24
I21
I0
I0
tp3055
I4158
s(I7
I4
I26
I21
I4
I4
tp3056
I3554
s(I5
I6
I24
I21
I4
I4
tp3057
I3355
s(I13
I13
I21
I21
I13
I11
tp3058
I1595
s(I21
I21
I24
I21
I21
I19
tp3059
I103
s(I20
I20
I24
I21
I18
I20
tp3060
I286
s(I13
I15
I27
I21
I13
I13
tp3061
I1653
s(I16
I15
I26
I21
I15
I15
tp3062
I1239
s(I8
I7
I25
I21
I6
I6
tp3063
I2984
s(I21
I20
I24
I21
I19
I19
tp3064
I245
s(I13
I15
I26
I21
I13
I13
tp3065
I1606
s(I11
I11
I25
I21
I8
I11
tp3066
I2239
s(I2
I1
I25
I21
I0
I1
tp3067
I4153
s(I16
I16
I22
I21
I14
I16
tp3068
I1004
s(I8
I8
I22
I21
I8
I5
tp3069
I2747
s(I9
I9
I24
I21
I8
I8
tp3070
I2569
s(I20
I20
I25
I21
I19
I19
tp3071
I327
s(I3
I3
I24
I21
I0
I3
tp3072
I3876
s(I2
I2
I24
I21
I1
I0
tp3073
I4079
s(I8
I10
I23
I21
I8
I8
tp3074
I2523
s(I6
I6
I25
I21
I4
I5
tp3075
I3290
s(I4
I5
I26
I21
I2
I4
tp3076
I3654
s(I18
I18
I23
I21
I17
I16
tp3077
I687
s(I17
I17
I21
I21
I15
I17
tp3078
I751
s(I6
I6
I23
I21
I5
I6
tp3079
I3096
s(I19
I18
I27
I21
I18
I18
tp3080
I657
s(I22
I20
I23
I21
I20
I19
tp3081
I122
s(I11
I10
I26
I21
I10
I10
tp3082
I2289
s(I13
I11
I24
I21
I11
I10
tp3083
I1996
s(I19
I17
I23
I21
I17
I17
tp3084
I635
s(I12
I12
I27
I21
I12
I9
tp3085
I2134
s(I12
I12
I24
I21
I11
I10
tp3086
I1990
s(I8
I5
I21
I21
I5
I5
tp3087
I3117
s(I4
I4
I21
I21
I4
I4
tp3088
I3380
s(I17
I15
I24
I21
I15
I14
tp3089
I1156
s(I12
I13
I23
I21
I12
I11
tp3090
I1791
s(I10
I12
I25
I21
I10
I9
tp3091
I2246
s(I2
I2
I24
I21
I2
I0
tp3092
I4038
s(I21
I21
I27
I21
I21
I19
tp3093
I231
s(I17
I16
I27
I21
I15
I15
tp3094
I1180
s(I9
I9
I23
I21
I9
I8
tp3095
I2471
s(I6
I7
I22
I21
I4
I6
tp3096
I3054
s(I4
I3
I25
I21
I2
I2
tp3097
I3824
s(I3
I4
I25
I21
I3
I3
tp3098
I3711
s(I22
I21
I27
I21
I20
I19
tp3099
I260
s(I9
I10
I21
I21
I8
I9
tp3100
I2328
s(I3
I4
I27
I21
I2
I3
tp3101
I3858
s(I6
I7
I26
I21
I6
I5
tp3102
I3188
s(I4
I2
I26
I21
I2
I1
tp3103
I3974
s(I4
I3
I26
I21
I3
I2
tp3104
I3819
s(I18
I19
I25
I21
I17
I17
tp3105
I672
s(I17
I17
I27
I21
I17
I17
tp3106
I920
s(I7
I7
I22
I21
I7
I4
tp3107
I2957
s(I19
I18
I26
I21
I18
I16
tp3108
I720
s(I16
I16
I24
I21
I16
I13
tp3109
I1157
s(I15
I16
I21
I21
I13
I15
tp3110
I1121
s(I19
I19
I27
I21
I18
I18
tp3111
I604
s(I17
I16
I24
I21
I16
I15
tp3112
I995
s(I4
I2
I25
I21
I2
I2
tp3113
I3874
s(I17
I15
I27
I21
I15
I15
tp3114
I1234
s(I8
I7
I24
I21
I6
I6
tp3115
I2937
s(I21
I20
I23
I21
I19
I19
tp3116
I205
s(I13
I12
I24
I21
I12
I10
tp3117
I1890
s(I9
I8
I27
I21
I7
I7
tp3118
I2860
s(I13
I14
I25
I21
I12
I13
tp3119
I1668
s(I8
I8
I26
I21
I7
I8
tp3120
I2813
s(I6
I7
I26
I21
I6
I4
tp3121
I3239
s(I1
I3
I22
I21
I1
I0
tp3122
I4000
s(I8
I7
I24
I21
I7
I7
tp3123
I2829
s(I5
I5
I24
I21
I5
I2
tp3124
I3467
s(I16
I15
I25
I21
I15
I14
tp3125
I1252
s(I14
I14
I25
I21
I13
I13
tp3126
I1562
s(I11
I11
I23
I21
I11
I10
tp3127
I2051
s(I20
I19
I24
I21
I19
I18
tp3128
I380
s(I4
I4
I23
I21
I3
I3
tp3129
I3572
s(I18
I16
I21
I21
I15
I16
tp3130
I808
s(I10
I10
I23
I21
I9
I10
tp3131
I2256
s(I8
I8
I22
I21
I8
I7
tp3132
I2638
s(I12
I12
I27
I21
I10
I12
tp3133
I2071
s(I13
I11
I23
I21
I11
I10
tp3134
I1953
s(I7
I7
I25
I21
I7
I5
tp3135
I3035
s(I23
I21
I27
I21
I20
I21
tp3136
I124
s(I11
I12
I24
I21
I11
I9
tp3137
I2099
s(I13
I12
I23
I21
I12
I11
tp3138
I1792
s(I12
I11
I26
I21
I9
I11
tp3139
I2186
s(I5
I5
I26
I21
I4
I3
tp3140
I3550
s(I16
I17
I25
I21
I16
I15
tp3141
I1041
s(I1
I1
I25
I21
I1
I1
tp3142
I4154
s(I3
I3
I27
I21
I2
I3
tp3143
I3906
s(I3
I2
I26
I21
I2
I1
tp3144
I4025
s(I20
I18
I27
I21
I18
I18
tp3145
I606
s(I6
I3
I21
I21
I3
I3
tp3146
I3537
s(I5
I8
I27
I21
I5
I5
tp3147
I3388
s(I10
I10
I27
I21
I9
I9
tp3148
I2492
s(I8
I8
I22
I21
I6
I8
tp3149
I2684
s(I9
I9
I21
I21
I7
I9
tp3150
I2431
s(I20
I21
I24
I21
I20
I19
tp3151
I197
s(I7
I7
I21
I21
I7
I5
tp3152
I2855
s(I3
I3
I24
I21
I3
I3
tp3153
I3723
s(I25
I21
I27
I21
I21
I21
tp3154
I21
s(I16
I16
I21
I21
I15
I14
tp3155
I1013
s(I17
I16
I27
I21
I15
I16
tp3156
I1129
s(I3
I3
I21
I21
I0
I3
tp3157
I3739
s(I16
I17
I26
I21
I16
I16
tp3158
I1028
s(I17
I16
I23
I21
I15
I16
tp3159
I949
s(I17
I16
I26
I21
I16
I16
tp3160
I1029
s(I18
I20
I21
I21
I17
I18
tp3161
I399
s(I18
I19
I22
I21
I18
I17
tp3162
I492
s(I4
I4
I22
I21
I3
I4
tp3163
I3473
s(I17
I17
I23
I21
I16
I15
tp3164
I897
s(I20
I19
I26
I21
I18
I19
tp3165
I461
s(I19
I20
I24
I21
I19
I19
tp3166
I332
s(I13
I13
I21
I21
I12
I13
tp3167
I1540
s(I15
I12
I21
I21
I12
I12
tp3168
I1647
s(I2
I1
I22
I21
I0
I0
tp3169
I4093
s(I18
I18
I24
I21
I18
I18
tp3170
I575
s(I11
I9
I24
I21
I8
I9
tp3171
I2415
s(I19
I19
I23
I21
I17
I18
tp3172
I479
s(I6
I6
I27
I21
I6
I6
tp3173
I3230
s(I15
I15
I26
I21
I15
I13
tp3174
I1398
s(I13
I13
I25
I21
I11
I12
tp3175
I1820
s(I4
I5
I26
I21
I4
I2
tp3176
I3659
s(I8
I9
I21
I21
I8
I7
tp3177
I2541
s(I17
I17
I24
I21
I17
I14
tp3178
I947
s(I9
I9
I23
I21
I7
I9
tp3179
I2521
s(I13
I16
I25
I21
I13
I13
tp3180
I1614
s(I19
I20
I22
I21
I17
I19
tp3181
I345
s(I16
I19
I21
I21
I16
I16
tp3182
I804
s(I12
I10
I27
I21
I9
I10
tp3183
I2342
s(I4
I5
I22
I21
I3
I3
tp3184
I3475
s(I21
I20
I25
I21
I18
I20
tp3185
I283
s(I19
I18
I25
I21
I17
I18
tp3186
I620
s(I7
I9
I21
I21
I6
I7
tp3187
I2695
s(I11
I11
I27
I21
I11
I10
tp3188
I2231
s(I11
I9
I25
I21
I9
I8
tp3189
I2459
s(I17
I17
I21
I21
I16
I16
tp3190
I752
s(I15
I14
I23
I21
I13
I14
tp3191
I1369
s(I14
I14
I22
I21
I14
I12
tp3192
I1428
s(I11
I11
I23
I21
I8
I11
tp3193
I2153
s(I13
I14
I24
I21
I13
I11
tp3194
I1679
s(I15
I18
I26
I21
I15
I15
tp3195
I1241
s(I21
I20
I25
I21
I20
I20
tp3196
I193
s(I18
I18
I25
I21
I18
I16
tp3197
I725
s(I23
I21
I24
I21
I21
I21
tp3198
I3
s(I3
I1
I25
I21
I1
I1
tp3199
I4074
s(I16
I16
I25
I21
I15
I15
tp3200
I1142
s(I14
I13
I27
I21
I12
I13
tp3201
I1759
s(I3
I2
I27
I21
I2
I2
tp3202
I4012
s(I13
I12
I25
I21
I12
I12
tp3203
I1822
s(I5
I5
I23
I21
I5
I2
tp3204
I3424
s(I8
I8
I21
I21
I8
I6
tp3205
I2645
s(I19
I18
I24
I21
I17
I17
tp3206
I628
s(I11
I12
I27
I21
I11
I11
tp3207
I2125
s(I15
I13
I21
I21
I13
I13
tp3208
I1384
s(I14
I15
I27
I21
I14
I14
tp3209
I1495
s(I18
I19
I24
I21
I18
I18
tp3210
I522
s(I2
I1
I21
I21
I0
I1
tp3211
I4005
s(I13
I13
I24
I21
I12
I12
tp3212
I1729
s(I14
I12
I21
I21
I11
I12
tp3213
I1648
s(I20
I20
I26
I21
I20
I20
tp3214
I275
s(I17
I19
I23
I21
I17
I17
tp3215
I634
s(I10
I10
I24
I21
I10
I8
tp3216
I2362
s(I21
I21
I26
I21
I20
I20
tp3217
I190
s(I2
I2
I25
I21
I2
I1
tp3218
I4031
s(I7
I8
I23
I21
I5
I7
tp3219
I2887
s(I17
I17
I23
I21
I16
I16
tp3220
I842
s(I17
I17
I22
I21
I15
I17
tp3221
I794
s(I1
I2
I26
I21
I0
I0
tp3222
I4202
s(I19
I20
I23
I21
I18
I18
tp3223
I383
s(I15
I16
I26
I21
I15
I15
tp3224
I1238
s(I22
I21
I26
I21
I20
I21
tp3225
I114
s(I5
I3
I23
I21
I2
I3
tp3226
I3632
s(I8
I6
I24
I21
I5
I6
tp3227
I3045
s(I6
I6
I26
I21
I6
I4
tp3228
I3288
s(I8
I10
I23
I21
I8
I7
tp3229
I2580
s(I20
I20
I22
I21
I18
I19
tp3230
I252
s(I12
I12
I25
I21
I12
I10
tp3231
I1985
s(I19
I18
I24
I21
I18
I18
tp3232
I523
s(I17
I17
I24
I21
I14
I17
tp3233
I936
s(I10
I9
I21
I21
I7
I9
tp3234
I2383
s(I15
I17
I27
I21
I14
I15
tp3235
I1289
s(I18
I18
I26
I21
I18
I17
tp3236
I718
s(I8
I6
I23
I21
I5
I6
tp3237
I3002
s(I18
I19
I26
I21
I18
I18
tp3238
I610
s(I6
I5
I27
I21
I4
I5
tp3239
I3439
s(I16
I14
I27
I21
I13
I14
tp3240
I1502
s(I7
I4
I22
I21
I4
I4
tp3241
I3374
s(I5
I3
I21
I21
I3
I2
tp3242
I3539
s(I15
I15
I24
I21
I12
I15
tp3243
I1356
s(I2
I4
I26
I21
I2
I2
tp3244
I3916
s(I17
I17
I25
I21
I15
I16
tp3245
I980
s(I11
I9
I22
I21
I9
I8
tp3246
I2326
s(I7
I5
I21
I21
I5
I5
tp3247
I3064
s(I1
I3
I24
I21
I1
I0
tp3248
I4082
s(I15
I16
I26
I21
I14
I14
tp3249
I1345
s(I4
I3
I21
I21
I3
I3
tp3250
I3532
s(I6
I4
I21
I21
I3
I4
tp3251
I3328
s(I6
I6
I27
I21
I3
I6
tp3252
I3383
s(I4
I6
I25
I21
I4
I4
tp3253
I3453
s(I20
I20
I22
I21
I17
I20
tp3254
I251
s(I17
I17
I26
I21
I14
I17
tp3255
I1026
s(I12
I12
I21
I21
I9
I12
tp3256
I1849
s(I15
I15
I21
I21
I14
I14
tp3257
I1172
s(I3
I0
I23
I21
I0
I0
tp3258
I4194
s(I19
I19
I21
I21
I19
I16
tp3259
I403
s(I18
I18
I26
I21
I17
I18
tp3260
I713
s(I10
I10
I27
I21
I10
I10
tp3261
I2390
s(I1
I1
I25
I21
I0
I1
tp3262
I4184
s(I17
I17
I25
I21
I17
I17
tp3263
I830
s(I18
I15
I23
I21
I15
I15
tp3264
I1111
s(I13
I15
I24
I21
I13
I12
tp3265
I1573
s(I13
I14
I22
I21
I12
I13
tp3266
I1535
s(I12
I14
I22
I21
I12
I12
tp3267
I1636
s(I7
I5
I27
I21
I5
I4
tp3268
I3393
s(I17
I17
I27
I21
I15
I16
tp3269
I1074
s(I24
I21
I25
I21
I21
I20
tp3270
I20
s(I14
I14
I23
I21
I13
I14
tp3271
I1416
s(I6
I8
I27
I21
I5
I6
tp3272
I3179
s(I6
I3
I23
I21
I3
I3
tp3273
I3631
s(I9
I11
I27
I21
I9
I8
tp3274
I2550
s(I3
I3
I23
I21
I3
I0
tp3275
I3844
s(I10
I10
I23
I21
I7
I10
tp3276
I2363
s(I2
I3
I25
I21
I2
I2
tp3277
I3921
s(I12
I13
I25
I21
I12
I11
tp3278
I1881
s(I12
I12
I25
I21
I12
I9
tp3279
I2040
s(I5
I7
I27
I21
I5
I5
tp3280
I3333
s(I7
I6
I26
I21
I4
I6
tp3281
I3236
s(I13
I12
I26
I21
I12
I11
tp3282
I1929
s(I18
I18
I27
I21
I17
I17
tp3283
I812
s(I3
I2
I22
I21
I2
I1
tp3284
I3849
s(I20
I20
I26
I21
I19
I19
tp3285
I364
s(I22
I21
I24
I21
I20
I20
tp3286
I70
s(I6
I6
I26
I21
I5
I5
tp3287
I3285
s(I19
I19
I25
I21
I19
I18
tp3288
I470
s(I14
I13
I27
I21
I13
I11
tp3289
I1813
s(I9
I10
I27
I21
I8
I9
tp3290
I2598
s(I13
I15
I22
I21
I13
I13
tp3291
I1426
s(I19
I20
I26
I21
I19
I17
tp3292
I513
s(I0
I0
I21
I21
I0
I0
tp3293
I4168
s(I15
I15
I22
I21
I15
I12
tp3294
I1277
s(I20
I20
I21
I21
I20
I17
tp3295
I229
s(I10
I11
I26
I21
I10
I8
tp3296
I2399
s(I19
I19
I22
I21
I18
I18
tp3297
I390
s(I4
I4
I24
I21
I3
I2
tp3298
I3670
s(I17
I20
I22
I21
I17
I17
tp3299
I642
s(I20
I20
I23
I21
I18
I20
tp3300
I247
s(I6
I7
I23
I21
I6
I6
tp3301
I2995
s(I21
I19
I22
I21
I19
I19
tp3302
I210
s(I7
I7
I24
I21
I7
I4
tp3303
I3047
s(I6
I4
I26
I21
I3
I4
tp3304
I3555
s(I17
I16
I23
I21
I16
I15
tp3305
I952
s(I16
I18
I27
I21
I16
I15
tp3306
I1080
s(I18
I20
I23
I21
I17
I18
tp3307
I483
s(I18
I18
I27
I21
I18
I18
tp3308
I710
s(I20
I19
I21
I21
I19
I19
tp3309
I227
s(I7
I5
I25
I21
I5
I4
tp3310
I3299
s(I12
I10
I22
I21
I9
I10
tp3311
I2115
s(I16
I16
I27
I21
I15
I14
tp3312
I1287
s(I2
I5
I24
I21
I2
I2
tp3313
I3881
s(I2
I1
I22
I21
I1
I1
tp3314
I3996
s(I12
I14
I23
I21
I11
I12
tp3315
I1739
s(I20
I20
I25
I21
I18
I20
tp3316
I326
s(I15
I15
I25
I21
I15
I13
tp3317
I1355
s(I10
I7
I25
I21
I7
I7
tp3318
I2877
s(I16
I18
I24
I21
I15
I16
tp3319
I942
s(I14
I13
I23
I21
I12
I12
tp3320
I1630
s(I8
I7
I22
I21
I6
I7
tp3321
I2796
s(I8
I8
I24
I21
I8
I7
tp3322
I2728
s(I12
I13
I24
I21
I11
I11
tp3323
I1885
s(I11
I13
I27
I21
I10
I11
tp3324
I2129
s(I18
I17
I25
I21
I17
I16
tp3325
I832
s(I5
I4
I24
I21
I4
I2
tp3326
I3570
s(I6
I5
I27
I21
I5
I3
tp3327
I3493
s(I17
I20
I24
I21
I17
I17
tp3328
I731
s(I14
I12
I26
I21
I12
I11
tp3329
I1876
s(I2
I3
I27
I21
I2
I1
tp3330
I4061
s(I10
I10
I22
I21
I8
I9
tp3331
I2317
s(I16
I15
I23
I21
I13
I15
tp3332
I1209
s(I19
I18
I27
I21
I17
I17
tp3333
I760
s(I8
I7
I25
I21
I7
I6
tp3334
I2932
s(I6
I6
I22
I21
I4
I5
tp3335
I3157
s(I19
I18
I22
I21
I17
I18
tp3336
I490
s(I14
I14
I24
I21
I14
I13
tp3337
I1468
s(I15
I14
I24
I21
I13
I14
tp3338
I1412
s(I3
I3
I27
I21
I2
I2
tp3339
I3960
s(I22
I21
I27
I21
I21
I20
tp3340
I166
s(I17
I15
I24
I21
I14
I15
tp3341
I1155
s(I9
I7
I23
I21
I6
I7
tp3342
I2792
s(I4
I4
I27
I21
I2
I4
tp3343
I3751
s(I19
I19
I26
I21
I18
I18
tp3344
I558
s(I12
I12
I23
I21
I11
I12
tp3345
I1836
s(I16
I17
I24
I21
I16
I15
tp3346
I994
s(I16
I15
I21
I21
I15
I14
tp3347
I1072
s(I5
I4
I23
I21
I4
I3
tp3348
I3472
s(I2
I2
I21
I21
I1
I0
tp3349
I3952
s(I6
I5
I26
I21
I4
I5
tp3350
I3396
s(I3
I5
I23
I21
I2
I3
tp3351
I3629
s(I4
I4
I22
I21
I1
I4
tp3352
I3576
s(I13
I15
I23
I21
I12
I13
tp3353
I1529
s(I5
I7
I25
I21
I4
I5
tp3354
I3295
s(I6
I4
I27
I21
I4
I4
tp3355
I3544
s(I14
I13
I26
I21
I12
I13
tp3356
I1716
s(I12
I12
I22
I21
I12
I10
tp3357
I1848
s(I9
I11
I23
I21
I9
I8
tp3358
I2370
s(I12
I11
I23
I21
I11
I11
tp3359
I1946
s(I8
I9
I23
I21
I8
I6
tp3360
I2682
s(I13
I12
I21
I21
I11
I12
tp3361
I1699
s(I2
I3
I23
I21
I2
I2
tp3362
I3835
s(I13
I13
I27
I21
I13
I10
tp3363
I1924
s(I13
I10
I27
I21
I10
I10
tp3364
I2341
s(I3
I3
I21
I21
I1
I3
tp3365
I3691
s(I14
I14
I25
I21
I12
I14
tp3366
I1561
s(I3
I1
I23
I21
I0
I1
tp3367
I4047
s(I20
I19
I21
I21
I17
I19
tp3368
I310
s(I10
I10
I24
I21
I8
I9
tp3369
I2407
s(I23
I20
I26
I21
I20
I20
tp3370
I177
s(I18
I17
I21
I21
I17
I17
tp3371
I594
s(I21
I21
I23
I21
I21
I21
tp3372
I9
s(I4
I5
I21
I21
I4
I3
tp3373
I3381
s(I16
I15
I25
I21
I14
I15
tp3374
I1249
s(I16
I17
I26
I21
I15
I16
tp3375
I1085
s(I9
I10
I26
I21
I8
I8
tp3376
I2605
s(I4
I4
I27
I21
I4
I3
tp3377
I3701
s(I9
I7
I23
I21
I7
I6
tp3378
I2793
s(I12
I10
I27
I21
I10
I10
tp3379
I2284
s(I19
I19
I25
I21
I18
I18
tp3380
I516
s(I7
I8
I27
I21
I5
I7
tp3381
I3067
s(I12
I11
I26
I21
I11
I9
tp3382
I2190
s(I12
I11
I24
I21
I9
I11
tp3383
I2096
s(I5
I3
I27
I21
I2
I3
tp3384
I3812
s(I19
I20
I26
I21
I18
I19
tp3385
I460
s(I15
I16
I27
I21
I15
I14
tp3386
I1341
s(I14
I11
I23
I21
I11
I11
tp3387
I1951
s(I2
I2
I26
I21
I1
I2
tp3388
I4063
s(I1
I1
I21
I21
I1
I0
tp3389
I4057
s(I4
I5
I27
I21
I3
I3
tp3390
I3698
s(I20
I18
I25
I21
I17
I18
tp3391
I570
s(I18
I18
I27
I21
I15
I18
tp3392
I863
s(I19
I19
I22
I21
I19
I18
tp3393
I349
s(I17
I19
I24
I21
I17
I17
tp3394
I680
s(I16
I17
I23
I21
I14
I16
tp3395
I997
s(I16
I13
I21
I21
I13
I13
tp3396
I1437
s(I21
I21
I22
I21
I21
I18
tp3397
I66
s(I9
I10
I21
I21
I9
I9
tp3398
I2271
s(I7
I8
I21
I21
I7
I6
tp3399
I2751
s(I4
I4
I23
I21
I2
I4
tp3400
I3571
s(I14
I14
I23
I21
I12
I13
tp3401
I1524
s(I7
I7
I23
I21
I6
I6
tp3402
I2942
s(I5
I5
I26
I21
I5
I5
tp3403
I3397
s(I3
I3
I24
I21
I2
I2
tp3404
I3829
s(I18
I19
I22
I21
I16
I18
tp3405
I537
s(I16
I17
I24
I21
I15
I16
tp3406
I991
s(I8
I9
I26
I21
I8
I8
tp3407
I2708
s(I3
I3
I21
I21
I1
I2
tp3408
I3740
s(I11
I10
I24
I21
I10
I8
tp3409
I2310
s(I17
I17
I21
I21
I17
I15
tp3410
I755
s(I8
I7
I26
I21
I6
I6
tp3411
I3027
s(I14
I14
I26
I21
I14
I12
tp3412
I1608
s(I4
I4
I27
I21
I3
I3
tp3413
I3752
s(I7
I8
I24
I21
I5
I7
tp3414
I2934
s(I17
I17
I23
I21
I17
I14
tp3415
I904
s(I15
I14
I26
I21
I13
I14
tp3416
I1506
s(I20
I19
I26
I21
I19
I18
tp3417
I464
s(I19
I19
I24
I21
I18
I17
tp3418
I524
s(I17
I17
I26
I21
I16
I16
tp3419
I975
s(I9
I10
I23
I21
I9
I9
tp3420
I2365
s(I18
I18
I24
I21
I17
I17
tp3421
I679
s(I19
I19
I23
I21
I18
I17
tp3422
I482
s(I18
I18
I21
I21
I17
I18
tp3423
I494
s(I11
I10
I23
I21
I8
I10
tp3424
I2259
s(I17
I17
I24
I21
I16
I15
tp3425
I940
s(I9
I8
I26
I21
I7
I8
tp3426
I2766
s(I14
I15
I23
I21
I14
I14
tp3427
I1315
s(I20
I19
I22
I21
I19
I17
tp3428
I351
s(I3
I4
I25
I21
I2
I3
tp3429
I3768
s(I13
I13
I22
I21
I11
I12
tp3430
I1687
s(I6
I5
I25
I21
I5
I3
tp3431
I3407
s(I2
I2
I21
I21
I2
I1
tp3432
I3855
s(I6
I6
I24
I21
I6
I6
tp3433
I3093
s(I13
I14
I21
I21
I11
I13
tp3434
I1541
s(I7
I9
I21
I21
I7
I6
tp3435
I2696
s(I18
I16
I24
I21
I16
I15
tp3436
I946
s(I9
I8
I22
I21
I7
I8
tp3437
I2586
s(I21
I20
I27
I21
I20
I19
tp3438
I318
s(I10
I10
I21
I21
I10
I9
tp3439
I2175
s(I19
I19
I27
I21
I19
I17
tp3440
I607
s(I2
I3
I27
I21
I2
I0
tp3441
I4104
s(I3
I4
I26
I21
I1
I3
tp3442
I3864
s(I15
I13
I23
I21
I13
I13
tp3443
I1474
s(I19
I19
I26
I21
I19
I18
tp3444
I512
s(I21
I21
I27
I21
I21
I20
tp3445
I189
s(I17
I18
I21
I21
I16
I17
tp3446
I649
s(I14
I13
I25
I21
I12
I12
tp3447
I1724
s(I5
I5
I25
I21
I4
I3
tp3448
I3503
s(I9
I9
I22
I21
I9
I6
tp3449
I2537
s(I8
I6
I27
I21
I5
I6
tp3450
I3182
s(I16
I14
I26
I21
I14
I14
tp3451
I1397
s(I15
I13
I21
I21
I12
I13
tp3452
I1438
s(I18
I19
I22
I21
I18
I16
tp3453
I542
s(I10
I10
I26
I21
I9
I8
tp3454
I2500
s(I13
I11
I26
I21
I10
I11
tp3455
I2085
s(I9
I10
I25
I21
I7
I9
tp3456
I2561
s(I6
I4
I26
I21
I4
I4
tp3457
I3497
s(I16
I19
I22
I21
I16
I16
tp3458
I851
s(I14
I14
I27
I21
I13
I12
tp3459
I1707
s(I11
I11
I24
I21
I11
I11
tp3460
I2043
s(I7
I7
I23
I21
I7
I6
tp3461
I2891
s(I15
I17
I24
I21
I15
I15
tp3462
I1100
s(I1
I2
I23
I21
I1
I0
tp3463
I4089
s(I11
I11
I21
I21
I8
I11
tp3464
I2059
s(I6
I5
I26
I21
I5
I5
tp3465
I3339
s(I12
I11
I26
I21
I10
I10
tp3466
I2187
s(I19
I18
I21
I21
I18
I16
tp3467
I501
s(I21
I21
I24
I21
I20
I19
tp3468
I152
s(I20
I18
I21
I21
I18
I17
tp3469
I402
s(I16
I16
I27
I21
I14
I15
tp3470
I1284
s(I4
I5
I27
I21
I4
I3
tp3471
I3651
s(I4
I2
I25
I21
I2
I1
tp3472
I3929
s(I20
I20
I22
I21
I19
I20
tp3473
I159
s(I10
I9
I22
I21
I9
I8
tp3474
I2379
s(I2
I2
I22
I21
I1
I0
tp3475
I3997
s(I9
I9
I21
I21
I9
I7
tp3476
I2435
s(I18
I17
I25
I21
I17
I15
tp3477
I887
s(I7
I8
I25
I21
I7
I5
tp3478
I2986
s(I6
I6
I21
I21
I6
I4
tp3479
I3065
s(I16
I17
I22
I21
I14
I16
tp3480
I954
s(I10
I13
I24
I21
I10
I10
tp3481
I2201
s(I13
I13
I23
I21
I12
I12
tp3482
I1682
s(I3
I1
I22
I21
I1
I1
tp3483
I3947
s(I14
I13
I21
I21
I12
I12
tp3484
I1544
s(I12
I13
I26
I21
I12
I10
tp3485
I1979
s(I7
I5
I23
I21
I5
I5
tp3486
I3154
s(I10
I11
I24
I21
I10
I8
tp3487
I2309
s(I12
I12
I27
I21
I10
I11
tp3488
I2124
s(I16
I16
I26
I21
I15
I15
tp3489
I1185
s(I6
I5
I25
I21
I4
I4
tp3490
I3404
s(I12
I12
I26
I21
I12
I11
tp3491
I1978
s(I15
I17
I27
I21
I15
I14
tp3492
I1290
s(I21
I20
I26
I21
I18
I20
tp3493
I323
s(I8
I6
I23
I21
I6
I5
tp3494
I3003
s(I12
I13
I22
I21
I11
I11
tp3495
I1795
s(I15
I13
I25
I21
I12
I13
tp3496
I1618
s(I5
I4
I22
I21
I3
I3
tp3497
I3477
s(I19
I18
I23
I21
I18
I16
tp3498
I585
s(I16
I17
I22
I21
I16
I14
tp3499
I959
s(I19
I18
I25
I21
I16
I18
tp3500
I673
s(I9
I9
I27
I21
I9
I9
tp3501
I2600
s(I9
I9
I24
I21
I9
I9
tp3502
I2463
s(I15
I15
I24
I21
I15
I12
tp3503
I1367
s(I8
I6
I26
I21
I6
I5
tp3504
I3136
s(I4
I3
I21
I21
I3
I1
tp3505
I3647
s(I13
I11
I25
I21
I10
I11
tp3506
I2038
s(I12
I11
I26
I21
I11
I10
tp3507
I2139
s(I8
I8
I23
I21
I7
I7
tp3508
I2732
s(I16
I13
I26
I21
I13
I13
tp3509
I1664
s(I4
I5
I25
I21
I4
I2
tp3510
I3616
s(I14
I16
I24
I21
I14
I14
tp3511
I1310
s(I5
I7
I22
I21
I5
I5
tp3512
I3106
s(I2
I0
I21
I21
I0
I0
tp3513
I4097
s(I3
I4
I25
I21
I1
I3
tp3514
I3821
s(I2
I2
I25
I21
I2
I2
tp3515
I3978
s(I15
I15
I21
I21
I15
I15
tp3516
I1070
s(I16
I19
I27
I21
I16
I16
tp3517
I1078
s(I16
I16
I21
I21
I16
I13
tp3518
I1020
s(I13
I14
I24
I21
I11
I13
tp3519
I1674
s(I4
I4
I25
I21
I4
I2
tp3520
I3665
s(I26
I21
I27
I21
I20
I19
tp3521
I93
s(I16
I14
I24
I21
I14
I13
tp3522
I1366
s(I16
I16
I22
I21
I15
I15
tp3523
I1005
s(I7
I6
I22
I21
I6
I4
tp3524
I3060
s(I6
I5
I21
I21
I4
I4
tp3525
I3224
s(I7
I6
I24
I21
I6
I4
tp3526
I3150
s(I25
I21
I26
I21
I20
I18
tp3527
I139
s(I11
I13
I27
I21
I11
I11
tp3528
I2073
s(I19
I16
I26
I21
I16
I16
tp3529
I1034
s(I10
I9
I26
I21
I9
I8
tp3530
I2559
s(I4
I2
I22
I21
I1
I2
tp3531
I3795
s(I13
I14
I21
I21
I12
I12
tp3532
I1542
s(I14
I14
I22
I21
I12
I13
tp3533
I1477
s(I4
I5
I22
I21
I3
I4
tp3534
I3425
s(I9
I9
I24
I21
I8
I7
tp3535
I2620
s(I20
I18
I24
I21
I17
I18
tp3536
I528
s(I2
I3
I25
I21
I1
I1
tp3537
I4028
s(I5
I7
I23
I21
I5
I4
tp3538
I3210
s(I19
I17
I24
I21
I16
I17
tp3539
I735
s(I1
I2
I22
I21
I1
I1
tp3540
I3995
s(I2
I3
I22
I21
I1
I1
tp3541
I3895
s(I8
I11
I27
I21
I8
I8
tp3542
I2758
s(I18
I20
I22
I21
I18
I17
tp3543
I441
s(I5
I8
I24
I21
I5
I5
tp3544
I3251
s(I14
I15
I25
I21
I14
I14
tp3545
I1401
s(I13
I12
I22
I21
I10
I12
tp3546
I1796
s(I17
I15
I25
I21
I15
I14
tp3547
I1199
s(I16
I14
I23
I21
I13
I14
tp3548
I1322
s(I8
I8
I26
I21
I8
I5
tp3549
I2927
s(I8
I8
I22
I21
I7
I6
tp3550
I2740
s(I18
I18
I22
I21
I18
I16
tp3551
I590
s(I10
I9
I24
I21
I8
I8
tp3552
I2517
s(I5
I5
I24
I21
I5
I4
tp3553
I3358
s(I16
I13
I23
I21
I13
I13
tp3554
I1531
s(I6
I6
I24
I21
I6
I4
tp3555
I3202
s(I17
I17
I25
I21
I17
I15
tp3556
I935
s(I20
I20
I26
I21
I17
I20
tp3557
I408
s(I16
I19
I23
I21
I16
I16
tp3558
I898
s(I0
I3
I26
I21
I0
I0
tp3559
I4230
s(I22
I21
I26
I21
I21
I21
tp3560
I67
s(I6
I6
I26
I21
I4
I5
tp3561
I3337
s(I12
I11
I21
I21
I10
I11
tp3562
I1909
s(I19
I17
I22
I21
I17
I16
tp3563
I647
s(I10
I10
I21
I21
I10
I7
tp3564
I2280
s(I14
I13
I21
I21
I13
I11
tp3565
I1547
s(I18
I20
I23
I21
I18
I17
tp3566
I484
s(I15
I15
I25
I21
I14
I14
tp3567
I1352
s(I20
I19
I21
I21
I18
I18
tp3568
I311
s(I23
I21
I25
I21
I20
I20
tp3569
I78
s(I14
I13
I23
I21
I13
I11
tp3570
I1633
s(I11
I8
I23
I21
I8
I8
tp3571
I2581
s(I5
I4
I21
I21
I3
I3
tp3572
I3434
s(I4
I4
I22
I21
I4
I2
tp3573
I3528
s(I12
I11
I27
I21
I11
I11
tp3574
I2126
s(I17
I17
I24
I21
I16
I16
tp3575
I889
s(I9
I9
I24
I21
I6
I9
tp3576
I2616
s(I18
I18
I26
I21
I16
I18
tp3577
I764
s(I5
I8
I21
I21
I5
I5
tp3578
I3114
s(I9
I8
I27
I21
I8
I6
tp3579
I2863
s(I4
I1
I24
I21
I1
I1
tp3580
I4083
s(I16
I18
I23
I21
I15
I16
tp3581
I899
s(I5
I4
I21
I21
I3
I4
tp3582
I3379
s(I6
I6
I23
I21
I5
I4
tp3583
I3207
s(I13
I14
I23
I21
I13
I11
tp3584
I1632
s(I10
I10
I25
I21
I8
I9
tp3585
I2450
s(I7
I7
I25
I21
I6
I6
tp3586
I3032
s(I2
I4
I21
I21
I1
I2
tp3587
I3745
s(I9
I8
I23
I21
I8
I8
tp3588
I2576
s(I4
I6
I21
I21
I3
I4
tp3589
I3325
s(I10
I11
I24
I21
I9
I9
tp3590
I2305
s(I17
I15
I21
I21
I15
I15
tp3591
I964
s(I12
I12
I23
I21
I11
I10
tp3592
I1947
s(I15
I15
I23
I21
I14
I14
tp3593
I1262
s(I20
I18
I21
I21
I17
I18
tp3594
I401
s(I4
I3
I23
I21
I3
I1
tp3595
I3733
s(I8
I5
I24
I21
I5
I5
tp3596
I3254
s(I19
I18
I22
I21
I18
I17
tp3597
I493
s(I8
I10
I24
I21
I8
I7
tp3598
I2623
s(I17
I18
I26
I21
I17
I15
tp3599
I929
s(I3
I3
I25
I21
I2
I2
tp3600
I3872
s(I17
I19
I22
I21
I16
I17
tp3601
I643
s(I19
I20
I25
I21
I18
I18
tp3602
I467
s(I4
I3
I24
I21
I1
I3
tp3603
I3776
s(I21
I20
I26
I21
I20
I19
tp3604
I278
s(I9
I7
I26
I21
I7
I7
tp3605
I2867
s(I16
I15
I21
I21
I14
I15
tp3606
I1069
s(I6
I7
I25
I21
I6
I4
tp3607
I3196
s(I6
I9
I23
I21
I6
I6
tp3608
I2998
s(I2
I3
I21
I21
I2
I0
tp3609
I3856
s(I19
I18
I26
I21
I18
I18
tp3610
I611
s(I16
I17
I25
I21
I14
I16
tp3611
I1091
s(I22
I19
I26
I21
I19
I19
tp3612
I414
s(I5
I6
I26
I21
I5
I5
tp3613
I3338
s(I14
I14
I24
I21
I11
I14
tp3614
I1566
s(I26
I21
I27
I21
I21
I21
tp3615
I6
s(I3
I2
I26
I21
I2
I2
tp3616
I3967
s(I3
I3
I21
I21
I3
I3
tp3617
I3590
s(I7
I7
I22
I21
I5
I6
tp3618
I2947
s(I4
I4
I22
I21
I2
I4
tp3619
I3524
s(I10
I8
I24
I21
I8
I8
tp3620
I2571
s(I8
I8
I21
I21
I5
I8
tp3621
I2689
s(I11
I11
I23
I21
I11
I8
tp3622
I2164
s(I10
I8
I26
I21
I8
I7
tp3623
I2716
s(I14
I14
I24
I21
I12
I14
tp3624
I1518
s(I16
I18
I24
I21
I16
I15
tp3625
I943
s(I10
I10
I23
I21
I9
I8
tp3626
I2367
s(I3
I5
I25
I21
I3
I3
tp3627
I3663
s(I19
I18
I22
I21
I16
I18
tp3628
I539
s(I7
I7
I25
I21
I7
I7
tp3629
I2930
s(I4
I7
I21
I21
I4
I4
tp3630
I3324
s(I18
I15
I25
I21
I15
I15
tp3631
I1197
s(I18
I19
I21
I21
I17
I18
tp3632
I446
s(I9
I10
I25
I21
I9
I8
tp3633
I2511
s(I4
I6
I27
I21
I4
I3
tp3634
I3600
s(I3
I2
I23
I21
I0
I2
tp3635
I3939
s(I1
I3
I23
I21
I1
I1
tp3636
I3991
s(I4
I3
I27
I21
I3
I3
tp3637
I3806
s(I21
I20
I24
I21
I20
I18
tp3638
I246
s(I11
I10
I22
I21
I8
I10
tp3639
I2216
s(I1
I1
I23
I21
I0
I0
tp3640
I4161
s(I5
I5
I22
I21
I4
I4
tp3641
I3315
s(I15
I14
I22
I21
I13
I13
tp3642
I1377
s(I2
I1
I23
I21
I1
I1
tp3643
I4041
s(I18
I16
I25
I21
I16
I15
tp3644
I989
s(I15
I16
I27
I21
I14
I15
tp3645
I1338
s(I21
I20
I27
I21
I19
I20
tp3646
I317
s(I7
I8
I22
I21
I7
I7
tp3647
I2738
s(I9
I10
I23
I21
I9
I8
tp3648
I2421
s(I9
I10
I23
I21
I7
I9
tp3649
I2467
s(I9
I8
I24
I21
I6
I8
tp3650
I2726
s(I21
I21
I22
I21
I20
I19
tp3651
I65
s(I10
I11
I25
I21
I10
I8
tp3652
I2356
s(I12
I10
I24
I21
I9
I10
tp3653
I2205
s(I6
I9
I27
I21
I6
I6
tp3654
I3178
s(I20
I20
I27
I21
I18
I20
tp3655
I404
s(I4
I6
I21
I21
I4
I3
tp3656
I3326
s(I10
I11
I21
I21
I9
I9
tp3657
I2172
s(I7
I9
I27
I21
I6
I7
tp3658
I2969
s(I19
I20
I24
I21
I19
I17
tp3659
I428
s(I18
I17
I26
I21
I17
I15
tp3660
I930
s(I7
I10
I25
I21
I7
I7
tp3661
I2874
s(I14
I12
I24
I21
I12
I12
tp3662
I1731
s(I13
I15
I27
I21
I12
I13
tp3663
I1709
s(I3
I2
I26
I21
I1
I1
tp3664
I4067
s(I8
I6
I26
I21
I6
I6
tp3665
I3077
s(I8
I7
I26
I21
I7
I7
tp3666
I2919
s(I16
I18
I25
I21
I16
I15
tp3667
I986
s(I13
I15
I25
I21
I12
I13
tp3668
I1615
s(I7
I7
I27
I21
I7
I7
tp3669
I3020
s(I3
I3
I21
I21
I2
I1
tp3670
I3743
s(I18
I17
I21
I21
I17
I15
tp3671
I707
s(I3
I3
I27
I21
I3
I1
tp3672
I3963
s(I8
I8
I21
I21
I6
I7
tp3673
I2690
s(I17
I17
I21
I21
I14
I17
tp3674
I799
s(I18
I18
I21
I21
I18
I17
tp3675
I499
s(I15
I15
I26
I21
I13
I15
tp3676
I1394
s(I8
I8
I27
I21
I8
I8
tp3677
I2810
s(I11
I11
I27
I21
I11
I8
tp3678
I2344
s(I15
I16
I23
I21
I14
I15
tp3679
I1158
s(I19
I17
I23
I21
I16
I17
tp3680
I692
s(I6
I4
I27
I21
I4
I3
tp3681
I3603
s(I9
I10
I27
I21
I9
I9
tp3682
I2545
s(I20
I19
I23
I21
I19
I19
tp3683
I293
s(I17
I18
I24
I21
I16
I16
tp3684
I835
s(I13
I14
I24
I21
I13
I13
tp3685
I1568
s(I11
I10
I22
I21
I10
I10
tp3686
I2109
s(I2
I2
I27
I21
I2
I2
tp3687
I4060
s(I18
I16
I21
I21
I16
I15
tp3688
I809
s(I12
I13
I21
I21
I12
I11
tp3689
I1701
s(I18
I18
I25
I21
I18
I18
tp3690
I621
s(I19
I17
I26
I21
I16
I17
tp3691
I825
s(I7
I8
I27
I21
I7
I5
tp3692
I3072
s(I1
I2
I25
I21
I1
I0
tp3693
I4155
s(I5
I5
I23
I21
I3
I4
tp3694
I3414
s(I8
I9
I21
I21
I7
I7
tp3695
I2592
s(I11
I12
I25
I21
I11
I11
tp3696
I2031
s(I19
I20
I25
I21
I19
I18
tp3697
I420
s(I4
I4
I27
I21
I2
I3
tp3698
I3804
s(I1
I2
I27
I21
I1
I1
tp3699
I4170
s(I5
I4
I26
I21
I4
I3
tp3700
I3609
s(I4
I4
I26
I21
I4
I3
tp3701
I3658
s(I3
I4
I22
I21
I3
I2
tp3702
I3638
s(I8
I8
I21
I21
I8
I5
tp3703
I2700
s(I11
I13
I23
I21
I10
I11
tp3704
I1949
s(I7
I9
I22
I21
I7
I6
tp3705
I2743
s(I17
I17
I27
I21
I16
I17
tp3706
I966
s(I9
I9
I22
I21
I8
I7
tp3707
I2530
s(I8
I6
I27
I21
I6
I5
tp3708
I3183
s(I11
I11
I25
I21
I10
I10
tp3709
I2192
s(I15
I17
I21
I21
I14
I15
tp3710
I1015
s(I17
I15
I23
I21
I15
I14
tp3711
I1113
s(I17
I14
I26
I21
I14
I14
tp3712
I1454
s(I12
I13
I27
I21
I11
I11
tp3713
I2018
s(I11
I14
I25
I21
I11
I11
tp3714
I2034
s(I15
I12
I24
I21
I12
I12
tp3715
I1784
s(I17
I16
I26
I21
I16
I15
tp3716
I1089
s(I10
I10
I24
I21
I10
I10
tp3717
I2253
s(I11
I11
I24
I21
I10
I10
tp3718
I2149
s(I3
I4
I22
I21
I3
I1
tp3719
I3689
s(I3
I5
I26
I21
I3
I2
tp3720
I3763
s(I11
I11
I21
I21
I9
I10
tp3721
I2060
s(I9
I8
I25
I21
I7
I8
tp3722
I2719
s(I16
I15
I26
I21
I14
I14
tp3723
I1347
s(I15
I14
I27
I21
I14
I13
tp3724
I1552
s(I6
I5
I26
I21
I3
I5
tp3725
I3446
s(I6
I9
I21
I21
I6
I6
tp3726
I2904
s(I17
I18
I27
I21
I16
I17
tp3727
I918
s(I25
I21
I27
I21
I20
I18
tp3728
I184
s(I19
I18
I24
I21
I18
I16
tp3729
I631
s(I7
I4
I21
I21
I4
I4
tp3730
I3327
s(I1
I4
I22
I21
I1
I1
tp3731
I3998
s(I14
I16
I25
I21
I14
I13
tp3732
I1406
s(I17
I18
I22
I21
I17
I17
tp3733
I639
s(I3
I3
I25
I21
I0
I3
tp3734
I3919
s(I18
I19
I26
I21
I18
I16
tp3735
I719
s(I6
I7
I21
I21
I6
I5
tp3736
I2961
s(I7
I6
I24
I21
I5
I5
tp3737
I3147
s(I2
I4
I23
I21
I1
I2
tp3738
I3839
s(I7
I9
I26
I21
I7
I6
tp3739
I2923
s(I7
I6
I21
I21
I5
I5
tp3740
I3014
s(I10
I10
I27
I21
I8
I9
tp3741
I2544
s(I2
I2
I24
I21
I2
I1
tp3742
I3986
s(I10
I10
I25
I21
I10
I8
tp3743
I2405
s(I9
I9
I21
I21
I6
I9
tp3744
I2479
s(I12
I10
I21
I21
I10
I10
tp3745
I2014
s(I2
I1
I26
I21
I0
I0
tp3746
I4203
s(I5
I4
I27
I21
I3
I4
tp3747
I3649
s(I19
I19
I27
I21
I17
I18
tp3748
I655
s(I2
I3
I25
I21
I1
I2
tp3749
I3976
s(I8
I9
I27
I21
I8
I6
tp3750
I2862
s(I13
I12
I25
I21
I11
I12
tp3751
I1879
s(I14
I14
I26
I21
I12
I13
tp3752
I1657
s(I21
I21
I22
I21
I21
I21
tp3753
I1
s(I13
I15
I23
I21
I13
I13
tp3754
I1473
s(I11
I12
I26
I21
I9
I11
tp3755
I2184
s(I21
I21
I25
I21
I20
I18
tp3756
I240
s(I2
I5
I27
I21
I2
I2
tp3757
I4014
s(I13
I10
I24
I21
I10
I10
tp3758
I2204
s(I19
I19
I21
I21
I19
I18
tp3759
I312
s(I18
I18
I26
I21
I17
I16
tp3760
I820
s(I12
I10
I22
I21
I10
I9
tp3761
I2116
s(I2
I2
I25
I21
I0
I1
tp3762
I4111
s(I10
I10
I24
I21
I10
I7
tp3763
I2417
s(I10
I11
I27
I21
I10
I10
tp3764
I2335
s(I9
I9
I23
I21
I8
I8
tp3765
I2522
s(I9
I9
I23
I21
I6
I9
tp3766
I2573
s(I14
I12
I26
I21
I11
I12
tp3767
I1875
s(I14
I14
I23
I21
I13
I12
tp3768
I1527
s(I2
I2
I26
I21
I2
I1
tp3769
I4068
s(I14
I14
I22
I21
I13
I14
tp3770
I1373
s(I4
I2
I23
I21
I1
I2
tp3771
I3842
s(I10
I13
I25
I21
I10
I10
tp3772
I2244
s(I12
I11
I21
I21
I9
I11
tp3773
I1963
s(I10
I10
I27
I21
I7
I10
tp3774
I2543
s(I13
I16
I22
I21
I13
I13
tp3775
I1481
s(I16
I15
I23
I21
I15
I15
tp3776
I1106
s(I20
I20
I21
I21
I17
I20
tp3777
I224
s(I17
I16
I22
I21
I15
I16
tp3778
I906
s(I15
I14
I23
I21
I14
I12
tp3779
I1423
s(I10
I10
I26
I21
I10
I9
tp3780
I2398
s(I13
I12
I25
I21
I12
I10
tp3781
I1937
s(I5
I6
I26
I21
I3
I5
tp3782
I3444
s(I14
I15
I26
I21
I13
I14
tp3783
I1505
s(I13
I12
I24
I21
I10
I12
tp3784
I1886
s(I4
I7
I27
I21
I4
I4
tp3785
I3598
s(I10
I10
I24
I21
I7
I10
tp3786
I2406
s(I10
I12
I23
I21
I10
I10
tp3787
I2103
s(I14
I13
I27
I21
I13
I13
tp3788
I1706
s(I5
I6
I24
I21
I5
I5
tp3789
I3248
s(I2
I3
I23
I21
I1
I1
tp3790
I3938
s(I19
I20
I26
I21
I19
I19
tp3791
I410
s(I15
I13
I26
I21
I12
I13
tp3792
I1665
s(I14
I15
I25
I21
I13
I13
tp3793
I1512
s(I23
I21
I26
I21
I21
I21
tp3794
I38
s(I9
I10
I22
I21
I9
I7
tp3795
I2429
s(I10
I11
I21
I21
I10
I8
tp3796
I2176
s(I5
I6
I21
I21
I4
I5
tp3797
I3168
s(I18
I19
I23
I21
I17
I17
tp3798
I580
s(I3
I4
I22
I21
I2
I2
tp3799
I3685
s(I9
I10
I23
I21
I9
I7
tp3800
I2472
s(I16
I14
I25
I21
I14
I13
tp3801
I1409
s(I16
I14
I23
I21
I14
I13
tp3802
I1323
s(I2
I1
I21
I21
I1
I1
tp3803
I3951
s(I6
I7
I23
I21
I6
I4
tp3804
I3102
s(I8
I8
I24
I21
I6
I8
tp3805
I2778
s(I7
I7
I24
I21
I7
I6
tp3806
I2938
s(I6
I6
I26
I21
I5
I6
tp3807
I3233
s(I3
I1
I26
I21
I1
I1
tp3808
I4109
s(I15
I15
I22
I21
I13
I14
tp3809
I1267
s(I10
I10
I21
I21
I9
I10
tp3810
I2170
s(I17
I19
I23
I21
I16
I17
tp3811
I689
s(I18
I18
I27
I21
I18
I16
tp3812
I815
s(I20
I19
I27
I21
I17
I19
tp3813
I552
s(I5
I4
I22
I21
I2
I4
tp3814
I3476
s(I21
I21
I26
I21
I21
I18
tp3815
I235
s(I7
I8
I22
I21
I5
I7
tp3816
I2844
s(I9
I9
I25
I21
I9
I9
tp3817
I2510
s(I17
I16
I25
I21
I15
I16
tp3818
I1039
s(I18
I17
I23
I21
I17
I16
tp3819
I742
s(I8
I9
I24
I21
I7
I8
tp3820
I2671
s(I8
I7
I21
I21
I6
I7
tp3821
I2749
s(I7
I8
I24
I21
I6
I6
tp3822
I2935
s(I3
I4
I26
I21
I3
I1
tp3823
I3869
s(I4
I4
I21
I21
I1
I4
tp3824
I3529
s(I15
I15
I25
I21
I15
I15
tp3825
I1250
s(I20
I21
I27
I21
I20
I18
tp3826
I359
s(I4
I2
I21
I21
I1
I2
tp3827
I3748
s(I1
I3
I24
I21
I1
I1
tp3828
I4036
s(I17
I17
I24
I21
I15
I17
tp3829
I888
s(I3
I2
I24
I21
I2
I0
tp3830
I3988
s(I22
I20
I23
I21
I19
I20
tp3831
I121
s(I20
I20
I25
I21
I20
I18
tp3832
I328
s(I16
I17
I21
I21
I15
I16
tp3833
I858
s(I18
I17
I27
I21
I16
I16
tp3834
I970
s(I6
I5
I27
I21
I5
I5
tp3835
I3386
s(I17
I14
I21
I21
I14
I14
tp3836
I1227
s(I5
I5
I27
I21
I3
I4
tp3837
I3594
s(I7
I5
I26
I21
I4
I5
tp3838
I3345
s(I15
I15
I27
I21
I13
I15
tp3839
I1441
s(I11
I9
I21
I21
I8
I9
tp3840
I2278
s(I2
I2
I23
I21
I2
I1
tp3841
I3941
s(I20
I18
I22
I21
I17
I18
tp3842
I443
s(I18
I16
I22
I21
I16
I15
tp3843
I856
s(I12
I13
I22
I21
I11
I12
tp3844
I1745
s(I3
I4
I23
I21
I1
I3
tp3845
I3727
s(I6
I5
I22
I21
I4
I5
tp3846
I3216
s(I8
I8
I22
I21
I8
I8
tp3847
I2587
s(I11
I10
I22
I21
I9
I10
tp3848
I2166
s(I15
I15
I23
I21
I15
I15
tp3849
I1160
s(I2
I2
I21
I21
I1
I2
tp3850
I3850
s(I6
I6
I22
I21
I6
I3
tp3851
I3167
s(I17
I17
I26
I21
I15
I17
tp3852
I974
s(I4
I4
I22
I21
I4
I4
tp3853
I3427
s(I8
I8
I23
I21
I7
I8
tp3854
I2676
s(I21
I19
I26
I21
I19
I18
tp3855
I416
s(I19
I19
I24
I21
I17
I18
tp3856
I521
s(I18
I17
I25
I21
I15
I17
tp3857
I883
s(I19
I19
I21
I21
I18
I18
tp3858
I353
s(I4
I4
I26
I21
I3
I4
tp3859
I3653
s(I14
I15
I21
I21
I14
I13
tp3860
I1281
s(I21
I20
I23
I21
I20
I20
tp3861
I105
s(I4
I1
I21
I21
I1
I1
tp3862
I3956
s(I17
I17
I25
I21
I16
I17
tp3863
I880
s(I16
I16
I26
I21
I16
I14
tp3864
I1188
s(I17
I15
I23
I21
I14
I15
tp3865
I1112
s(I12
I11
I23
I21
I11
I9
tp3866
I2053
s(I13
I13
I23
I21
I13
I12
tp3867
I1631
s(I5
I5
I23
I21
I5
I4
tp3868
I3311
s(I6
I5
I23
I21
I5
I4
tp3869
I3262
s(I17
I17
I26
I21
I17
I15
tp3870
I978
s(I2
I3
I23
I21
I2
I1
tp3871
I3891
s(I14
I17
I22
I21
I14
I14
tp3872
I1271
s(I12
I13
I22
I21
I12
I11
tp3873
I1748
s(I21
I20
I23
I21
I18
I20
tp3874
I204
s(I16
I15
I22
I21
I15
I13
tp3875
I1170
s(I14
I15
I22
I21
I14
I14
tp3876
I1268
s(I24
I21
I27
I21
I21
I20
tp3877
I84
s(I14
I16
I22
I21
I14
I14
tp3878
I1216
s(I17
I19
I25
I21
I16
I17
tp3879
I775
s(I10
I10
I27
I21
I10
I8
tp3880
I2495
s(I5
I7
I27
I21
I4
I5
tp3881
I3389
s(I5
I7
I24
I21
I5
I4
tp3882
I3253
s(I21
I20
I22
I21
I19
I19
tp3883
I163
s(I18
I18
I27
I21
I16
I17
tp3884
I864
s(I17
I15
I22
I21
I15
I15
tp3885
I1007
s(I14
I14
I25
I21
I14
I12
tp3886
I1565
s(I3
I2
I22
I21
I1
I1
tp3887
I3897
s(I17
I20
I26
I21
I17
I17
tp3888
I821
s(I20
I20
I22
I21
I20
I18
tp3889
I209
s(I7
I4
I23
I21
I4
I4
tp3890
I3421
s(I8
I8
I21
I21
I7
I7
tp3891
I2642
s(I7
I10
I21
I21
I7
I7
tp3892
I2694
s(I16
I14
I22
I21
I13
I14
tp3893
I1275
s(I20
I21
I21
I21
I20
I20
tp3894
I54
s(I18
I18
I22
I21
I16
I17
tp3895
I638
s(I7
I6
I23
I21
I4
I6
tp3896
I3099
s(I11
I10
I25
I21
I9
I10
tp3897
I2299
s(I8
I7
I25
I21
I6
I7
tp3898
I2929
s(I9
I10
I22
I21
I8
I9
tp3899
I2375
s(I3
I3
I27
I21
I3
I0
tp3900
I4020
s(I15
I12
I27
I21
I12
I12
tp3901
I1921
s(I5
I6
I23
I21
I5
I3
tp3902
I3312
s(I19
I19
I22
I21
I19
I16
tp3903
I445
s(I7
I7
I26
I21
I6
I5
tp3904
I3130
s(I12
I14
I21
I21
I11
I12
tp3905
I1645
s(I11
I13
I23
I21
I11
I11
tp3906
I1893
s(I4
I6
I27
I21
I3
I4
tp3907
I3599
s(I2
I3
I22
I21
I0
I2
tp3908
I3894
s(I5
I5
I27
I21
I5
I4
tp3909
I3491
s(I12
I11
I25
I21
I11
I9
tp3910
I2147
s(I5
I4
I22
I21
I3
I4
tp3911
I3426
s(I18
I20
I21
I21
I18
I17
tp3912
I400
s(I13
I13
I25
I21
I10
I13
tp3913
I1819
s(I20
I19
I24
I21
I17
I19
tp3914
I425
s(I11
I11
I27
I21
I8
I11
tp3915
I2333
s(I17
I15
I26
I21
I15
I15
tp3916
I1187
s(I4
I3
I23
I21
I2
I3
tp3917
I3679
s(I6
I7
I21
I21
I6
I4
tp3918
I3016
s(I10
I10
I26
I21
I9
I9
tp3919
I2445
s(I5
I6
I21
I21
I5
I4
tp3920
I3171
s(I23
I21
I25
I21
I20
I19
tp3921
I129
s(I10
I12
I24
I21
I10
I9
tp3922
I2203
s(I19
I19
I23
I21
I18
I19
tp3923
I381
s(I9
I9
I21
I21
I8
I8
tp3924
I2432
s(I3
I6
I25
I21
I3
I3
tp3925
I3714
s(I5
I3
I27
I21
I3
I3
tp3926
I3754
s(I6
I7
I27
I21
I6
I5
tp3927
I3231
s(I13
I14
I26
I21
I13
I13
tp3928
I1658
s(I14
I15
I23
I21
I14
I12
tp3929
I1422
s(I17
I18
I23
I21
I17
I17
tp3930
I685
s(I8
I8
I21
I21
I7
I6
tp3931
I2693
s(I3
I4
I21
I21
I2
I2
tp3932
I3642
s(I21
I21
I27
I21
I20
I21
tp3933
I188
s(I3
I3
I26
I21
I3
I3
tp3934
I3817
s(I14
I16
I26
I21
I14
I13
tp3935
I1453
s(I5
I7
I26
I21
I5
I5
tp3936
I3286
s(I20
I20
I23
I21
I20
I17
tp3937
I295
s(I15
I16
I24
I21
I13
I15
tp3938
I1254
s(I1
I1
I27
I21
I1
I1
tp3939
I4198
s(I1
I3
I22
I21
I1
I1
tp3940
I3946
s(I11
I13
I25
I21
I11
I11
tp3941
I1983
s(I19
I19
I26
I21
I19
I16
tp3942
I618
s(I11
I11
I25
I21
I11
I8
tp3943
I2250
s(I22
I21
I25
I21
I21
I20
tp3944
I69
s(I16
I16
I25
I21
I16
I14
tp3945
I1145
s(I8
I8
I23
I21
I8
I5
tp3946
I2794
s(I18
I19
I27
I21
I17
I17
tp3947
I758
s(I14
I15
I24
I21
I13
I13
tp3948
I1465
s(I3
I3
I22
I21
I2
I2
tp3949
I3735
s(I6
I6
I25
I21
I6
I6
tp3950
I3140
s(I16
I14
I27
I21
I14
I13
tp3951
I1503
s(I3
I4
I27
I21
I3
I1
tp3952
I3912
s(I3
I2
I21
I21
I1
I2
tp3953
I3799
s(I13
I13
I22
I21
I12
I12
tp3954
I1635
s(I4
I2
I21
I21
I2
I2
tp3955
I3694
s(I6
I8
I23
I21
I6
I6
tp3956
I2943
s(I7
I9
I22
I21
I6
I7
tp3957
I2742
s(I2
I1
I24
I21
I1
I0
tp3958
I4125
s(I15
I17
I21
I21
I15
I14
tp3959
I1016
s(I16
I16
I24
I21
I16
I16
tp3960
I993
s(I16
I15
I24
I21
I13
I15
tp3961
I1256
s(I16
I16
I23
I21
I14
I16
tp3962
I1051
s(I2
I4
I22
I21
I2
I1
tp3963
I3793
s(I16
I15
I25
I21
I13
I15
tp3964
I1303
s(I3
I5
I22
I21
I3
I2
tp3965
I3583
s(I21
I21
I24
I21
I20
I21
tp3966
I59
s(I9
I9
I24
I21
I7
I8
tp3967
I2617
s(I10
I10
I24
I21
I9
I9
tp3968
I2359
s(I12
I14
I21
I21
I12
I11
tp3969
I1646
s(I0
I1
I23
I21
I0
I0
tp3970
I4191
s(I12
I11
I23
I21
I10
I11
tp3971
I1999
s(I9
I9
I22
I21
I7
I9
tp3972
I2474
s(I2
I1
I26
I21
I0
I1
tp3973
I4180
s(I22
I21
I26
I21
I21
I18
tp3974
I215
s(I6
I6
I27
I21
I6
I4
tp3975
I3335
s(I15
I12
I22
I21
I12
I12
tp3976
I1694
s(I15
I16
I22
I21
I15
I13
tp3977
I1169
s(I11
I10
I25
I21
I10
I10
tp3978
I2242
s(I9
I8
I22
I21
I8
I7
tp3979
I2589
s(I14
I15
I24
I21
I12
I14
tp3980
I1464
s(I10
I10
I22
I21
I9
I9
tp3981
I2265
s(I7
I7
I21
I21
I7
I4
tp3982
I2910
s(I6
I6
I26
I21
I3
I6
tp3983
I3336
s(I3
I3
I25
I21
I1
I2
tp3984
I3920
s(I10
I11
I22
I21
I10
I9
tp3985
I2168
s(I19
I18
I23
I21
I18
I18
tp3986
I481
s(I18
I17
I22
I21
I17
I17
tp3987
I640
s(I8
I7
I23
I21
I7
I7
tp3988
I2786
s(I3
I2
I26
I21
I2
I0
tp3989
I4070
s(I11
I14
I21
I21
I11
I11
tp3990
I1854
s(I15
I15
I24
I21
I15
I14
tp3991
I1258
s(I14
I14
I26
I21
I13
I14
tp3992
I1553
s(I2
I1
I24
I21
I0
I1
tp3993
I4122
s(I11
I13
I21
I21
I11
I11
tp3994
I1803
s(I17
I17
I27
I21
I16
I15
tp3995
I1077
s(I12
I11
I22
I21
I10
I11
tp3996
I1956
s(I5
I5
I25
I21
I2
I5
tp3997
I3499
s(I5
I6
I27
I21
I4
I5
tp3998
I3438
s(I19
I19
I27
I21
I18
I17
tp3999
I658
s(I3
I3
I23
I21
I0
I3
tp4000
I3833
s(I10
I11
I26
I21
I10
I10
tp4001
I2288
s(I13
I13
I23
I21
I11
I12
tp4002
I1734
s(I15
I12
I23
I21
I12
I12
tp4003
I1741
s(I14
I13
I22
I21
I12
I13
tp4004
I1536
s(I21
I21
I25
I21
I21
I19
tp4005
I149
s(I20
I20
I27
I21
I18
I19
tp4006
I452
s(I19
I19
I24
I21
I19
I17
tp4007
I477
s(I19
I20
I22
I21
I19
I18
tp4008
I302
s(I10
I10
I26
I21
I9
I10
tp4009
I2393
s(I18
I18
I23
I21
I18
I17
tp4010
I583
s(I6
I6
I27
I21
I6
I3
tp4011
I3394
s(I5
I4
I23
I21
I3
I4
tp4012
I3469
s(I7
I8
I26
I21
I7
I6
tp4013
I2978
s(I7
I9
I25
I21
I7
I7
tp4014
I2823
s(I8
I9
I25
I21
I6
I8
tp4015
I2771
s(I7
I6
I22
I21
I6
I6
tp4016
I2949
s(I7
I7
I21
I21
I4
I7
tp4017
I2899
s(I18
I17
I24
I21
I17
I17
tp4018
I729
s(I27
I21
I27
I21
I21
I20
tp4019
I8
s(I1
I3
I22
I21
I0
I1
tp4020
I3999
s(I11
I10
I24
I21
I9
I10
tp4021
I2252
s(I16
I17
I22
I21
I15
I15
tp4022
I955
s(I14
I14
I21
I21
I14
I11
tp4023
I1440
s(I3
I4
I21
I21
I3
I2
tp4024
I3591
s(I7
I7
I27
I21
I4
I7
tp4025
I3173
s(I11
I11
I24
I21
I9
I10
tp4026
I2197
s(I1
I1
I22
I21
I1
I0
tp4027
I4094
s(I7
I6
I24
I21
I4
I6
tp4028
I3146
s(I16
I15
I23
I21
I14
I14
tp4029
I1210
s(I13
I13
I25
I21
I12
I11
tp4030
I1823
s(I20
I18
I24
I21
I18
I18
tp4031
I476
s(I15
I13
I27
I21
I13
I12
tp4032
I1713
s(I22
I21
I23
I21
I20
I20
tp4033
I36
s(I14
I14
I22
I21
I14
I11
tp4034
I1487
s(I15
I13
I23
I21
I12
I13
tp4035
I1532
s(I5
I5
I24
I21
I4
I3
tp4036
I3460
s(I17
I18
I21
I21
I17
I17
tp4037
I593
s(I9
I10
I23
I21
I8
I9
tp4038
I2418
s(I12
I12
I26
I21
I10
I11
tp4039
I2077
s(I8
I8
I27
I21
I6
I7
tp4040
I2964
s(I4
I3
I27
I21
I2
I3
tp4041
I3859
s(I19
I19
I25
I21
I16
I19
tp4042
I562
s(I14
I14
I27
I21
I14
I14
tp4043
I1550
s(I8
I8
I26
I21
I8
I7
tp4044
I2818
s(I14
I12
I27
I21
I11
I12
tp4045
I1922
s(I10
I12
I26
I21
I10
I10
tp4046
I2236
s(I22
I20
I26
I21
I20
I19
tp4047
I263
s(I4
I1
I22
I21
I1
I1
tp4048
I4001
s(I14
I16
I27
I21
I14
I13
tp4049
I1500
s(I6
I5
I26
I21
I4
I4
tp4050
I3447
s(I16
I17
I24
I21
I15
I15
tp4051
I1045
s(I19
I19
I22
I21
I17
I19
tp4052
I389
s(I16
I16
I22
I21
I16
I14
tp4053
I1008
s(I12
I12
I26
I21
I11
I10
tp4054
I2080
s(I7
I7
I24
I21
I6
I7
tp4055
I2933
s(I10
I9
I25
I21
I8
I8
tp4056
I2564
s(I11
I11
I22
I21
I8
I11
tp4057
I2106
s(I15
I15
I22
I21
I12
I15
tp4058
I1266
s(I13
I14
I25
I21
I13
I13
tp4059
I1611
s(I14
I16
I27
I21
I13
I14
tp4060
I1499
s(I21
I21
I26
I21
I20
I19
tp4061
I234
s(I10
I10
I22
I21
I7
I10
tp4062
I2316
s(I13
I13
I24
I21
I13
I12
tp4063
I1678
s(I22
I21
I26
I21
I20
I18
tp4064
I264
s(I13
I13
I24
I21
I11
I13
tp4065
I1728
s(I9
I8
I26
I21
I7
I7
tp4066
I2817
s(I11
I8
I24
I21
I8
I8
tp4067
I2624
s(I18
I17
I27
I21
I17
I15
tp4068
I973
s(I5
I5
I23
I21
I5
I3
tp4069
I3365
s(I15
I16
I25
I21
I14
I14
tp4070
I1302
s(I6
I7
I25
I21
I4
I6
tp4071
I3191
s(I12
I14
I24
I21
I12
I12
tp4072
I1730
s(I7
I5
I23
I21
I4
I5
tp4073
I3212
s(I11
I10
I27
I21
I9
I9
tp4074
I2440
s(I3
I5
I27
I21
I3
I3
tp4075
I3753
s(I14
I16
I25
I21
I13
I14
tp4076
I1405
s(I6
I4
I27
I21
I3
I4
tp4077
I3602
s(I10
I12
I22
I21
I10
I9
tp4078
I2113
s(I19
I17
I21
I21
I17
I16
tp4079
I601
s(I6
I6
I23
I21
I3
I6
tp4080
I3203
s(I19
I18
I27
I21
I16
I18
tp4081
I759
s(I8
I9
I22
I21
I6
I8
tp4082
I2634
s(I8
I8
I27
I21
I7
I6
tp4083
I2967
s(I3
I3
I23
I21
I3
I2
tp4084
I3731
s(I16
I15
I25
I21
I14
I14
tp4085
I1304
s(I14
I14
I24
I21
I13
I12
tp4086
I1570
s(I5
I6
I23
I21
I5
I4
tp4087
I3261
s(I13
I14
I26
I21
I11
I13
tp4088
I1764
s(I18
I16
I25
I21
I15
I16
tp4089
I988
s(I18
I16
I27
I21
I16
I16
tp4090
I1024
s(I11
I11
I22
I21
I10
I9
tp4091
I2110
s(I8
I6
I22
I21
I5
I6
tp4092
I2955
s(I19
I19
I26
I21
I17
I19
tp4093
I557
s(I4
I4
I25
I21
I1
I4
tp4094
I3709
s(I12
I13
I25
I21
I11
I12
tp4095
I1878
s(I5
I5
I21
I21
I5
I4
tp4096
I3225
s(I8
I10
I27
I21
I8
I7
tp4097
I2760
s(I18
I18
I24
I21
I18
I15
tp4098
I737
s(I6
I7
I25
I21
I6
I6
tp4099
I3081
s(I21
I20
I24
I21
I18
I20
tp4100
I244
s(I2
I3
I21
I21
I2
I2
tp4101
I3741
s(I21
I19
I26
I21
I18
I19
tp4102
I415
s(I7
I4
I27
I21
I4
I4
tp4103
I3601
s(I2
I3
I22
I21
I2
I1
tp4104
I3848
s(I19
I20
I22
I21
I18
I18
tp4105
I346
s(I9
I12
I24
I21
I9
I9
tp4106
I2411
s(I5
I6
I26
I21
I5
I3
tp4107
I3449
s(I10
I12
I23
I21
I10
I9
tp4108
I2160
s(I4
I5
I22
I21
I4
I2
tp4109
I3479
s(I20
I20
I23
I21
I19
I18
tp4110
I294
s(I8
I9
I23
I21
I6
I8
tp4111
I2677
s(I6
I6
I25
I21
I3
I6
tp4112
I3289
s(I17
I17
I27
I21
I15
I17
tp4113
I1021
s(I4
I1
I27
I21
I1
I1
tp4114
I4176
s(I7
I8
I26
I21
I6
I6
tp4115
I3025
s(I25
I21
I26
I21
I21
I20
tp4116
I23
s(I5
I3
I25
I21
I3
I3
tp4117
I3664
s(I21
I20
I22
I21
I18
I20
tp4118
I162
s(I8
I8
I25
I21
I8
I5
tp4119
I2880
s(I18
I18
I21
I21
I16
I18
tp4120
I544
s(I10
I10
I26
I21
I8
I10
tp4121
I2444
s(I14
I14
I21
I21
I13
I13
tp4122
I1382
s(I2
I2
I23
I21
I1
I1
tp4123
I3990
s(I20
I19
I25
I21
I19
I18
tp4124
I421
s(I4
I4
I21
I21
I3
I3
tp4125
I3482
s(I8
I10
I27
I21
I7
I8
tp4126
I2759
s(I14
I12
I27
I21
I12
I12
tp4127
I1864
s(I14
I14
I27
I21
I11
I14
tp4128
I1703
s(I18
I16
I21
I21
I16
I16
tp4129
I754
s(I19
I17
I24
I21
I17
I17
tp4130
I681
s(I3
I5
I22
I21
I2
I3
tp4131
I3582
s(I9
I6
I21
I21
I6
I6
tp4132
I2907
s(I10
I8
I23
I21
I8
I7
tp4133
I2583
s(I3
I5
I27
I21
I3
I2
tp4134
I3810
s(I16
I16
I25
I21
I15
I16
tp4135
I1090
s(I4
I5
I24
I21
I4
I2
tp4136
I3569
s(I20
I20
I26
I21
I19
I20
tp4137
I320
s(I6
I8
I26
I21
I5
I6
tp4138
I3132
s(I15
I13
I24
I21
I13
I12
tp4139
I1576
s(I20
I21
I23
I21
I20
I19
tp4140
I155
s(I4
I3
I27
I21
I3
I1
tp4141
I3913
s(I20
I19
I27
I21
I18
I18
tp4142
I553
s(I12
I10
I26
I21
I9
I10
tp4143
I2295
s(I4
I4
I25
I21
I3
I3
tp4144
I3662
s(I17
I16
I22
I21
I16
I16
tp4145
I849
s(I11
I11
I26
I21
I10
I9
tp4146
I2290
s(I18
I19
I26
I21
I17
I18
tp4147
I665
s(I17
I19
I26
I21
I17
I16
tp4148
I823
s(I16
I15
I27
I21
I15
I14
tp4149
I1342
s(I7
I8
I24
I21
I6
I7
tp4150
I2881
s(I2
I3
I26
I21
I1
I2
tp4151
I4021
s(I12
I13
I24
I21
I12
I12
tp4152
I1778
s(I9
I9
I22
I21
I9
I8
tp4153
I2428
s(I3
I3
I23
I21
I1
I3
tp4154
I3781
s(I10
I11
I25
I21
I10
I10
tp4155
I2241
s(I12
I12
I25
I21
I11
I10
tp4156
I2033
s(I19
I20
I23
I21
I17
I19
tp4157
I382
s(I16
I14
I25
I21
I13
I14
tp4158
I1408
s(I7
I7
I23
I21
I7
I5
tp4159
I2945
s(I18
I19
I22
I21
I17
I17
tp4160
I538
s(I3
I3
I22
I21
I1
I3
tp4161
I3734
s(I12
I12
I23
I21
I12
I11
tp4162
I1841
s(I6
I8
I27
I21
I6
I5
tp4163
I3180
s(I8
I7
I21
I21
I7
I6
tp4164
I2752
s(I20
I21
I22
I21
I20
I20
tp4165
I63
s(I7
I8
I23
I21
I7
I7
tp4166
I2785
s(I13
I13
I23
I21
I13
I10
tp4167
I1744
s(I16
I16
I22
I21
I15
I16
tp4168
I953
s(I9
I9
I24
I21
I9
I8
tp4169
I2518
s(I9
I9
I23
I21
I9
I6
tp4170
I2584
s(I6
I8
I21
I21
I6
I5
tp4171
I2906
s(I9
I9
I24
I21
I7
I9
tp4172
I2568
s(I9
I9
I21
I21
I9
I8
tp4173
I2385
s(I18
I18
I24
I21
I16
I18
tp4174
I678
s(I14
I14
I23
I21
I12
I14
tp4175
I1471
s(I8
I7
I24
I21
I5
I7
tp4176
I2936
s(I19
I19
I23
I21
I19
I18
tp4177
I386
s(I6
I6
I27
I21
I4
I6
tp4178
I3331
s(I11
I10
I26
I21
I9
I10
tp4179
I2346
s(I7
I5
I24
I21
I5
I4
tp4180
I3256
s(I7
I10
I27
I21
I7
I7
tp4181
I2968
s(I14
I17
I27
I21
I14
I14
tp4182
I1498
s(I12
I12
I24
I21
I12
I10
tp4183
I1942
s(I20
I19
I23
I21
I19
I17
tp4184
I388
s(I10
I13
I21
I21
I10
I10
tp4185
I2064
s(I9
I9
I22
I21
I6
I9
tp4186
I2526
s(I14
I13
I24
I21
I13
I13
tp4187
I1569
s(I15
I18
I25
I21
I15
I15
tp4188
I1194
s(I16
I15
I21
I21
I13
I15
tp4189
I1123
s(I5
I4
I26
I21
I3
I3
tp4190
I3657
s(I3
I2
I25
I21
I2
I2
tp4191
I3922
s(I7
I9
I23
I21
I7
I7
tp4192
I2733
s(I7
I8
I27
I21
I7
I7
tp4193
I2965
s(I8
I8
I26
I21
I8
I8
tp4194
I2767
s(I17
I19
I22
I21
I17
I17
tp4195
I588
s(I18
I19
I21
I21
I18
I16
tp4196
I500
s(I2
I3
I22
I21
I1
I2
tp4197
I3845
s(I14
I13
I24
I21
I11
I13
tp4198
I1676
s(I13
I13
I22
I21
I13
I11
tp4199
I1638
s(I19
I18
I27
I21
I18
I17
tp4200
I712
s(I17
I16
I27
I21
I16
I16
tp4201
I1076
s(I5
I5
I26
I21
I4
I5
tp4202
I3443
s(I5
I4
I24
I21
I2
I4
tp4203
I3566
s(I8
I8
I21
I21
I7
I8
tp4204
I2590
s(I13
I13
I27
I21
I11
I13
tp4205
I1861
s(I5
I6
I22
I21
I5
I4
tp4206
I3218
s(I21
I20
I27
I21
I20
I20
tp4207
I272
s(I5
I5
I22
I21
I5
I3
tp4208
I3318
s(I3
I5
I21
I21
I3
I3
tp4209
I3483
s(I5
I6
I26
I21
I4
I5
tp4210
I3395
s(I3
I2
I24
I21
I0
I2
tp4211
I3984
s(I4
I3
I22
I21
I2
I3
tp4212
I3636
s(I5
I5
I26
I21
I2
I5
tp4213
I3546
s(I24
I21
I26
I21
I21
I20
tp4214
I45
s(I13
I11
I24
I21
I11
I11
tp4215
I1941
s(I18
I18
I22
I21
I17
I18
tp4216
I536
s(I9
I10
I21
I21
I7
I9
tp4217
I2381
s(I13
I13
I27
I21
I13
I13
tp4218
I1760
s(I1
I3
I27
I21
I1
I1
tp4219
I4139
s(I15
I16
I22
I21
I14
I14
tp4220
I1165
s(I16
I16
I27
I21
I15
I16
tp4221
I1176
s(I14
I13
I21
I21
I13
I13
tp4222
I1432
s(I2
I5
I21
I21
I2
I2
tp4223
I3744
s(I9
I8
I27
I21
I8
I8
tp4224
I2756
s(I16
I13
I24
I21
I13
I13
tp4225
I1574
s(I6
I5
I24
I21
I5
I5
tp4226
I3249
s(I12
I11
I24
I21
I11
I10
tp4227
I2045
s(I15
I16
I26
I21
I13
I15
tp4228
I1344
s(I7
I7
I21
I21
I6
I7
tp4229
I2800
s(I11
I12
I24
I21
I10
I11
tp4230
I2041
s(I15
I16
I25
I21
I15
I15
tp4231
I1191
s(I21
I20
I25
I21
I20
I19
tp4232
I239
s(I4
I1
I25
I21
I1
I1
tp4233
I4118
s(I2
I4
I24
I21
I1
I2
tp4234
I3882
s(I1
I3
I23
I21
I0
I1
tp4235
I4044
s(I8
I6
I23
I21
I6
I6
tp4236
I2944
s(I20
I18
I27
I21
I17
I18
tp4237
I662
s(I6
I7
I24
I21
I4
I6
tp4238
I3144
s(I2
I3
I24
I21
I1
I2
tp4239
I3931
s(I12
I10
I23
I21
I10
I10
tp4240
I2104
s.