(dp1
(I1
I2
tp2
I13
s(I0
I1
tp3
I14
s(I1
I3
tp4
I8
s(I0
I2
tp5
I9
s(I4
I5
tp6
I10
s(I1
I4
tp7
I4
s(I2
I4
tp8
I7
s(I1
I5
tp9
I1
s(I0
I0
tp10
I15
s(I0
I5
tp11
I0
s(I0
I4
tp12
I2
s(I2
I3
tp13
I12
s(I2
I5
tp14
I3
s(I3
I4
tp15
I11
s(I0
I3
tp16
I5
s(I3
I5
tp17
I6
s.