(dp1
((I2
I11
tp2
(I2
I10
tp3
tp4
(lp5
S'loop'
p6
aS'stack'
p7
as((I5
I7
tp8
(I6
I7
tp9
tp10
(lp11
g7
ag6
as((I3
I12
tp12
(I4
I12
tp13
tp14
(lp15
g7
ag6
as((I5
I8
tp16
(I6
I8
tp17
tp18
(lp19
g7
ag6
as((I0
I3
tp20
(I1
I3
tp21
tp22
(lp23
g7
aS'loop+end'
p24
as((I0
I2
tp25
(I1
I2
tp26
tp27
(lp28
g7
ag24
as((I0
I6
tp29
(I0
I5
tp30
tp31
(lp32
g6
ag7
as((I3
I8
tp33
(I3
I7
tp34
tp35
(lp36
g6
ag7
as((I6
I12
tp37
(I6
I11
tp38
tp39
(lp40
g24
ag7
as((I5
I10
tp41
(I5
I9
tp42
tp43
(lp44
g6
ag7
as((I5
I9
tp45
(I6
I9
tp46
tp47
(lp48
g7
ag6
as((I0
I7
tp49
(I0
I6
tp50
tp51
(lp52
g6
ag7
as((I2
I6
tp53
(I3
I6
tp54
tp55
(lp56
g7
ag6
as((I2
I7
tp57
(I3
I7
tp58
tp59
(lp60
g7
ag6
as((I10
I12
tp61
(I10
I11
tp62
tp63
(lp64
g24
ag7
as((I8
I11
tp65
(I9
I11
tp66
tp67
(lp68
g7
ag6
as((I8
I12
tp69
(I9
I12
tp70
tp71
(lp72
g7
ag6
as((I6
I10
tp73
(I7
I10
tp74
tp75
(lp76
g7
ag6
as((I2
I5
tp77
(I3
I5
tp78
tp79
(lp80
g7
ag6
as((I1
I5
tp81
(I1
I4
tp82
tp83
(lp84
g6
ag7
as((I6
I9
tp85
(I6
I8
tp86
tp87
(lp88
g6
ag7
as((I4
I12
tp89
(I4
I11
tp90
tp91
(lp92
g24
ag7
as((I7
I9
tp93
(I7
I8
tp94
tp95
(lp96
g6
ag7
as((I0
I4
tp97
(I0
I3
tp98
tp99
(lp100
g6
ag7
as((I0
I9
tp101
(I0
I8
tp102
tp103
(lp104
g6
ag7
as((I2
I4
tp105
(I3
I4
tp106
tp107
(lp108
g7
ag6
as(g25
(I0
I1
tp109
tp110
(lp111
g6
ag7
as((I1
I12
tp112
(I1
I11
tp113
tp114
(lp115
g24
ag7
as(g37
(I7
I12
tp116
tp117
(lp118
g7
ag6
as((I0
I10
tp119
(I0
I9
tp120
tp121
(lp122
g6
ag7
as((I7
I10
tp123
(I7
I9
tp124
tp125
(lp126
g6
ag7
as((I3
I9
tp127
(I4
I9
tp128
tp129
(lp130
g7
ag6
as(g29
(I1
I6
tp131
tp132
(lp133
g7
ag24
as((I6
I7
tp134
(I0
I0
tp135
tp136
(lp137
g6
ag6
as((I4
I8
tp138
(I5
I8
tp139
tp140
(lp141
g7
ag6
as(g127
(I3
I8
tp142
tp143
(lp144
g6
ag7
as((I4
I11
tp145
(I5
I11
tp146
tp147
(lp148
g7
ag6
as((I4
I6
tp149
(I5
I6
tp150
tp151
(lp152
g7
ag6
as((I2
I9
tp153
(I3
I9
tp154
tp155
(lp156
g7
ag6
as(g2
(I3
I11
tp157
tp158
(lp159
g7
ag6
as(g105
(I2
I3
tp160
tp161
(lp162
g6
ag7
as((I4
I7
tp163
(I5
I7
tp164
tp165
(lp166
g7
ag6
as(g81
(I2
I5
tp167
tp168
(lp169
g7
ag6
as((I4
I10
tp170
(I4
I9
tp171
tp172
(lp173
g6
ag7
as((I2
I12
tp174
(I2
I11
tp175
tp176
(lp177
g24
ag7
as((I0
I1
tp178
(I0
I0
tp179
tp180
(lp181
g6
ag24
as((I3
I7
tp182
(I3
I6
tp183
tp184
(lp185
g6
ag7
as((I9
I12
tp186
(I10
I12
tp187
tp188
(lp189
g7
ag6
as(g153
(I2
I8
tp190
tp191
(lp192
g6
ag7
as(g73
(I6
I9
tp193
tp194
(lp195
g6
ag7
as((I3
I10
tp196
(I3
I9
tp197
tp198
(lp199
g6
ag7
as((I2
I8
tp200
(I3
I8
tp201
tp202
(lp203
g7
ag6
as(g196
(I4
I10
tp204
tp205
(lp206
g7
ag6
as(g186
(I9
I11
tp207
tp208
(lp209
g24
ag7
as((I3
I6
tp210
(I3
I5
tp211
tp212
(lp213
g6
ag7
as((I6
I8
tp214
(I6
I7
tp215
tp216
(lp217
g6
ag7
as((I4
I9
tp218
(I4
I8
tp219
tp220
(lp221
g6
ag7
as((I5
I11
tp222
(I5
I10
tp223
tp224
(lp225
g6
ag7
as((I11
I12
tp226
g135
tp227
(lp228
g24
ag6
as((I1
I10
tp229
(I1
I9
tp230
tp231
(lp232
g6
ag7
as((I4
I5
tp233
g135
tp234
(lp235
g6
ag6
as((I1
I9
tp236
(I1
I8
tp237
tp238
(lp239
g6
ag7
as((I1
I3
tp240
(I2
I3
tp241
tp242
(lp243
g7
ag6
as((I2
I10
tp244
(I3
I10
tp245
tp246
(lp247
g7
ag6
as((I1
I7
tp248
(I2
I7
tp249
tp250
(lp251
g7
ag6
as((I10
I11
tp252
g135
tp253
(lp254
g6
ag6
as(g182
(I4
I7
tp255
tp256
(lp257
g7
ag6
as((I1
I2
tp258
g135
tp259
(lp260
g6
ag6
as((I0
I5
tp261
(I1
I5
tp262
tp263
(lp264
g7
ag24
as((I9
I10
tp265
g135
tp266
(lp267
g6
ag6
as(g20
(I0
I2
tp268
tp269
(lp270
g6
ag7
as((I0
I12
tp271
(I0
I11
tp272
tp273
(lp274
g24
ag7
as(g85
(I7
I9
tp275
tp276
(lp277
g7
ag6
as(g12
(I3
I11
tp278
tp279
(lp280
g24
ag7
as(g244
(I2
I9
tp281
tp282
(lp283
g6
ag7
as(g170
(I5
I10
tp284
tp285
(lp286
g7
ag6
as((I1
I8
tp287
(I2
I8
tp288
tp289
(lp290
g7
ag6
as(g214
(I7
I8
tp291
tp292
(lp293
g7
ag6
as(g101
(I1
I9
tp294
tp295
(lp296
g7
ag24
as(g138
(I4
I7
tp297
tp298
(lp299
g6
ag7
as((I9
I11
tp300
(I10
I11
tp301
tp302
(lp303
g7
ag6
as((I3
I5
tp304
(I4
I5
tp305
tp306
(lp307
g7
ag6
as(g218
(I5
I9
tp308
tp309
(lp310
g7
ag6
as((I6
I11
tp311
(I6
I10
tp312
tp313
(lp314
g6
ag7
as(g210
(I4
I6
tp315
tp316
(lp317
g7
ag6
as((I5
I12
tp318
(I5
I11
tp319
tp320
(lp321
g24
ag7
as(g97
(I1
I4
tp322
tp323
(lp324
g7
ag24
as((I1
I4
tp325
(I1
I3
tp326
tp327
(lp328
g6
ag7
as(g57
(I2
I6
tp329
tp330
(lp331
g6
ag7
as((I1
I6
tp332
(I1
I5
tp333
tp334
(lp335
g6
ag7
as(g325
(I2
I4
tp336
tp337
(lp338
g7
ag6
as((I3
I11
tp339
(I3
I10
tp340
tp341
(lp342
g6
ag7
as(g261
(I0
I4
tp343
tp344
(lp345
g6
ag7
as(g332
(I2
I6
tp346
tp347
(lp348
g7
ag6
as(g300
(I9
I10
tp349
tp350
(lp351
g6
ag7
as(g123
(I8
I10
tp352
tp353
(lp354
g7
ag6
as((I8
I10
tp355
(I8
I9
tp356
tp357
(lp358
g6
ag7
as(g339
(I4
I11
tp359
tp360
(lp361
g7
ag6
as(g89
(I5
I12
tp362
tp363
(lp364
g7
ag6
as(g49
(I1
I7
tp365
tp366
(lp367
g7
ag24
as(g163
(I4
I6
tp368
tp369
(lp370
g6
ag7
as(g41
(I6
I10
tp371
tp372
(lp373
g7
ag6
as(g287
(I1
I7
tp374
tp375
(lp376
g6
ag7
as((I0
I8
tp377
(I0
I7
tp378
tp379
(lp380
g6
ag7
as((I8
I9
tp381
g135
tp382
(lp383
g6
ag6
as(g149
(I4
I5
tp384
tp385
(lp386
g6
ag7
as(g236
(I2
I9
tp387
tp388
(lp389
g7
ag6
as((I0
I11
tp390
(I0
I10
tp391
tp392
(lp393
g6
ag7
as(g45
(I5
I8
tp394
tp395
(lp396
g6
ag7
as(g33
(I4
I8
tp397
tp398
(lp399
g7
ag6
as(g311
(I7
I11
tp400
tp401
(lp402
g7
ag6
as(g304
(I3
I4
tp403
tp404
(lp405
g6
ag7
as(g200
(I2
I7
tp406
tp407
(lp408
g6
ag7
as((I2
I3
tp409
g135
tp410
(lp411
g6
ag6
as((I1
I11
tp412
(I2
I11
tp413
tp414
(lp415
g7
ag6
as(g145
(I4
I10
tp416
tp417
(lp418
g6
ag7
as(g355
(I9
I10
tp419
tp420
(lp421
g7
ag6
as(g16
(I5
I7
tp422
tp423
(lp424
g6
ag7
as((I3
I4
tp425
g135
tp426
(lp427
g6
ag6
as(g53
(I2
I5
tp428
tp429
(lp430
g6
ag7
as(g119
(I1
I10
tp431
tp432
(lp433
g7
ag24
as((I7
I11
tp434
(I8
I11
tp435
tp436
(lp437
g7
ag6
as(g412
(I1
I10
tp438
tp439
(lp440
g6
ag7
as(g434
(I7
I10
tp441
tp442
(lp443
g6
ag7
as(g65
(I8
I10
tp444
tp445
(lp446
g6
ag7
as(g93
(I8
I9
tp447
tp448
(lp449
g7
ag6
as(g229
(I2
I10
tp450
tp451
(lp452
g7
ag6
as(g248
(I1
I6
tp453
tp454
(lp455
g6
ag7
as(g174
(I3
I12
tp456
tp457
(lp458
g7
ag6
as((I7
I12
tp459
(I8
I12
tp460
tp461
(lp462
g7
ag6
as(g77
(I2
I4
tp463
tp464
(lp465
g6
ag7
as(g459
(I7
I11
tp466
tp467
(lp468
g24
ag7
as(g8
(I5
I6
tp469
tp470
(lp471
g6
ag7
as(g377
(I1
I8
tp472
tp473
(lp474
g7
ag24
as(g390
(I1
I11
tp475
tp476
(lp477
g7
ag24
as((I5
I6
tp478
g135
tp479
(lp480
g6
ag6
as(g318
(I6
I12
tp481
tp482
(lp483
g7
ag6
as(g271
(I1
I12
tp484
tp485
(lp486
g7
ag24
as(g69
(I8
I11
tp487
tp488
(lp489
g24
ag7
as(g61
(I11
I12
tp490
tp491
(lp492
g7
ag6
as(g240
(I1
I2
tp493
tp494
(lp495
g6
ag7
as(g112
(I2
I12
tp496
tp497
(lp498
g7
ag6
as((I7
I8
tp499
g135
tp500
(lp501
g6
ag6
as(g222
(I6
I11
tp502
tp503
(lp504
g7
ag6
as.