(dp1
((I1
I15
tp2
(I1
I14
tp3
tp4
(lp5
S'loop'
p6
aS'stack'
p7
as((I0
I13
tp8
(I0
I12
tp9
tp10
(lp11
g6
ag7
as((I5
I7
tp12
(I6
I7
tp13
tp14
(lp15
g7
ag6
as((I3
I12
tp16
(I4
I12
tp17
tp18
(lp19
g7
ag6
as((I5
I8
tp20
(I6
I8
tp21
tp22
(lp23
g7
ag6
as((I0
I3
tp24
(I1
I3
tp25
tp26
(lp27
g7
aS'loop+end'
p28
as((I12
I15
tp29
(I13
I15
tp30
tp31
(lp32
g7
ag6
as((I2
I11
tp33
(I2
I10
tp34
tp35
(lp36
g6
ag7
as((I4
I14
tp37
(I4
I13
tp38
tp39
(lp40
g6
ag7
as((I3
I15
tp41
(I4
I15
tp42
tp43
(lp44
g7
ag6
as((I3
I16
tp45
(I4
I16
tp46
tp47
(lp48
g7
ag6
as((I3
I8
tp49
(I3
I7
tp50
tp51
(lp52
g6
ag7
as((I6
I12
tp53
(I6
I11
tp54
tp55
(lp56
g6
ag7
as((I9
I14
tp57
(I9
I13
tp58
tp59
(lp60
g6
ag7
as((I0
I16
tp61
(I1
I16
tp62
tp63
(lp64
g7
ag28
as((I11
I15
tp65
(I11
I14
tp66
tp67
(lp68
g6
ag7
as((I5
I9
tp69
(I6
I9
tp70
tp71
(lp72
g7
ag6
as((I0
I7
tp73
(I0
I6
tp74
tp75
(lp76
g6
ag7
as((I2
I4
tp77
(I3
I4
tp78
tp79
(lp80
g7
ag6
as((I5
I15
tp81
(I6
I15
tp82
tp83
(lp84
g7
ag6
as(g57
(I10
I14
tp85
tp86
(lp87
g7
ag6
as((I2
I7
tp88
(I3
I7
tp89
tp90
(lp91
g7
ag6
as((I8
I13
tp92
(I9
I13
tp93
tp94
(lp95
g7
ag6
as((I10
I16
tp96
(I11
I16
tp97
tp98
(lp99
g7
ag6
as((I8
I11
tp100
(I9
I11
tp101
tp102
(lp103
g7
ag6
as(g96
(I10
I15
tp104
tp105
(lp106
g28
ag7
as((I4
I16
tp107
(I4
I15
tp108
tp109
(lp110
g28
ag7
as((I3
I6
tp111
(I3
I5
tp112
tp113
(lp114
g6
ag7
as((I1
I5
tp115
(I1
I4
tp116
tp117
(lp118
g6
ag7
as((I9
I15
tp119
(I10
I15
tp120
tp121
(lp122
g7
ag6
as((I0
I10
tp123
(I0
I9
tp124
tp125
(lp126
g6
ag7
as((I2
I14
tp127
(I3
I14
tp128
tp129
(lp130
g7
ag6
as((I2
I6
tp131
(I3
I6
tp132
tp133
(lp134
g7
ag6
as((I6
I9
tp135
(I6
I8
tp136
tp137
(lp138
g6
ag7
as((I8
I15
tp139
(I9
I15
tp140
tp141
(lp142
g7
ag6
as((I4
I12
tp143
(I4
I11
tp144
tp145
(lp146
g6
ag7
as((I7
I9
tp147
(I7
I8
tp148
tp149
(lp150
g6
ag7
as((I6
I15
tp151
(I7
I15
tp152
tp153
(lp154
g7
ag6
as((I1
I16
tp155
(I2
I16
tp156
tp157
(lp158
g7
ag6
as((I7
I10
tp159
(I8
I10
tp160
tp161
(lp162
g7
ag6
as((I2
I15
tp163
(I2
I14
tp164
tp165
(lp166
g6
ag7
as((I7
I14
tp167
(I7
I13
tp168
tp169
(lp170
g6
ag7
as((I0
I2
tp171
(I0
I1
tp172
tp173
(lp174
g6
ag7
as((I9
I12
tp175
(I9
I11
tp176
tp177
(lp178
g6
ag7
as((I9
I10
tp179
(I0
I0
tp180
tp181
(lp182
g6
ag6
as(g171
(I1
I2
tp183
tp184
(lp185
g7
ag28
as((I8
I14
tp186
(I9
I14
tp187
tp188
(lp189
g7
ag6
as((I1
I12
tp190
(I1
I11
tp191
tp192
(lp193
g6
ag7
as(g53
(I7
I12
tp194
tp195
(lp196
g7
ag6
as((I7
I15
tp197
(I7
I14
tp198
tp199
(lp200
g6
ag7
as((I7
I16
tp201
(I8
I16
tp202
tp203
(lp204
g7
ag6
as(g159
(I7
I9
tp205
tp206
(lp207
g6
ag7
as((I1
I14
tp208
(I2
I14
tp209
tp210
(lp211
g7
ag6
as(g61
(I0
I15
tp212
tp213
(lp214
g28
ag7
as((I7
I12
tp215
(I8
I12
tp216
tp217
(lp218
g7
ag6
as((I7
I8
tp219
g180
tp220
(lp221
g6
ag6
as((I3
I9
tp222
(I4
I9
tp223
tp224
(lp225
g7
ag6
as(g190
(I2
I12
tp226
tp227
(lp228
g7
ag6
as((I6
I7
tp229
g180
tp230
(lp231
g6
ag6
as((I4
I8
tp232
(I5
I8
tp233
tp234
(lp235
g7
ag6
as(g201
(I7
I15
tp236
tp237
(lp238
g28
ag7
as(g222
(I3
I8
tp239
tp240
(lp241
g6
ag7
as((I1
I13
tp242
(I1
I12
tp243
tp244
(lp245
g6
ag7
as((I8
I9
tp246
g180
tp247
(lp248
g6
ag6
as((I4
I6
tp249
(I5
I6
tp250
tp251
(lp252
g7
ag6
as(g215
(I7
I11
tp253
tp254
(lp255
g6
ag7
as((I13
I14
tp256
g180
tp257
(lp258
g6
ag6
as((I14
I15
tp259
g180
tp260
(lp261
g6
ag6
as(g81
(I5
I14
tp262
tp263
(lp264
g6
ag7
as(g69
(I5
I8
tp265
tp266
(lp267
g6
ag7
as(g127
(I2
I13
tp268
tp269
(lp270
g6
ag7
as((I4
I7
tp271
(I5
I7
tp272
tp273
(lp274
g7
ag6
as((I9
I16
tp275
(I9
I15
tp276
tp277
(lp278
g28
ag7
as(g115
(I2
I5
tp279
tp280
(lp281
g7
ag6
as((I14
I16
tp282
(I14
I15
tp283
tp284
(lp285
g28
ag7
as((I4
I10
tp286
(I4
I9
tp287
tp288
(lp289
g6
ag7
as(g275
(I10
I16
tp290
tp291
(lp292
g7
ag6
as((I2
I12
tp293
(I2
I11
tp294
tp295
(lp296
g6
ag7
as((I0
I1
tp297
(I0
I0
tp298
tp299
(lp300
g6
ag28
as((I7
I11
tp301
(I7
I10
tp302
tp303
(lp304
g6
ag7
as((I6
I8
tp305
(I7
I8
tp306
tp307
(lp308
g7
ag6
as(g175
(I10
I12
tp309
tp310
(lp311
g7
ag6
as((I2
I9
tp312
(I2
I8
tp313
tp314
(lp315
g6
ag7
as((I5
I11
tp316
(I5
I10
tp317
tp318
(lp319
g6
ag7
as((I5
I10
tp320
(I5
I9
tp321
tp322
(lp323
g6
ag7
as((I6
I10
tp324
(I6
I9
tp325
tp326
(lp327
g6
ag7
as((I3
I10
tp328
(I3
I9
tp329
tp330
(lp331
g6
ag7
as((I11
I14
tp332
(I12
I14
tp333
tp334
(lp335
g7
ag6
as(g12
(I5
I6
tp336
tp337
(lp338
g6
ag7
as((I2
I8
tp339
(I3
I8
tp340
tp341
(lp342
g7
ag6
as((I11
I13
tp343
(I11
I12
tp344
tp345
(lp346
g6
ag7
as(g328
(I4
I10
tp347
tp348
(lp349
g7
ag6
as(g167
(I8
I14
tp350
tp351
(lp352
g7
ag6
as(g65
(I12
I15
tp353
tp354
(lp355
g7
ag6
as((I2
I5
tp356
(I2
I4
tp357
tp358
(lp359
g6
ag7
as(g8
(I1
I13
tp360
tp361
(lp362
g7
ag28
as((I11
I12
tp363
g180
tp364
(lp365
g6
ag6
as((I13
I16
tp366
(I13
I15
tp367
tp368
(lp369
g28
ag7
as((I10
I13
tp370
(I11
I13
tp371
tp372
(lp373
g7
ag6
as(g305
(I6
I7
tp374
tp375
(lp376
g6
ag7
as((I0
I6
tp377
(I1
I6
tp378
tp379
(lp380
g7
ag28
as((I3
I13
tp381
(I3
I12
tp382
tp383
(lp384
g6
ag7
as(g242
(I2
I13
tp385
tp386
(lp387
g7
ag6
as((I6
I14
tp388
(I6
I13
tp389
tp390
(lp391
g6
ag7
as((I0
I9
tp392
(I0
I8
tp393
tp394
(lp395
g6
ag7
as((I5
I12
tp396
(I6
I12
tp397
tp398
(lp399
g7
ag6
as((I10
I15
tp400
(I11
I15
tp401
tp402
(lp403
g7
ag6
as((I7
I13
tp404
(I8
I13
tp405
tp406
(lp407
g7
ag6
as((I5
I14
tp408
(I5
I13
tp409
tp410
(lp411
g6
ag7
as((I2
I13
tp412
(I2
I12
tp413
tp414
(lp415
g6
ag7
as((I5
I13
tp416
(I6
I13
tp417
tp418
(lp419
g7
ag6
as((I1
I8
tp420
(I1
I7
tp421
tp422
(lp423
g6
ag7
as((I4
I5
tp424
g180
tp425
(lp426
g6
ag6
as((I1
I10
tp427
(I1
I9
tp428
tp429
(lp430
g6
ag7
as((I3
I11
tp431
(I3
I10
tp432
tp433
(lp434
g6
ag7
as((I1
I3
tp435
(I2
I3
tp436
tp437
(lp438
g7
ag6
as((I0
I12
tp439
(I1
I12
tp440
tp441
(lp442
g7
ag28
as((I2
I10
tp443
(I3
I10
tp444
tp445
(lp446
g7
ag6
as(g119
(I9
I14
tp447
tp448
(lp449
g6
ag7
as(g377
(I0
I5
tp450
tp451
(lp452
g6
ag7
as((I4
I9
tp453
(I4
I8
tp454
tp455
(lp456
g6
ag7
as((I1
I7
tp457
(I2
I7
tp458
tp459
(lp460
g7
ag6
as((I10
I11
tp461
g180
tp462
(lp463
g6
ag6
as((I3
I7
tp464
(I4
I7
tp465
tp466
(lp467
g7
ag6
as(g400
(I10
I14
tp468
tp469
(lp470
g6
ag7
as((I0
I5
tp471
(I1
I5
tp472
tp473
(lp474
g7
ag28
as((I10
I12
tp475
(I10
I11
tp476
tp477
(lp478
g6
ag7
as(g24
(I0
I2
tp479
tp480
(lp481
g6
ag7
as((I6
I11
tp482
(I7
I11
tp483
tp484
(lp485
g7
ag6
as(g139
(I8
I14
tp486
tp487
(lp488
g6
ag7
as(g2
(I2
I15
tp489
tp490
(lp491
g7
ag6
as((I8
I12
tp492
(I8
I11
tp493
tp494
(lp495
g6
ag7
as(g135
(I7
I9
tp496
tp497
(lp498
g7
ag6
as((I6
I13
tp499
(I6
I12
tp500
tp501
(lp502
g6
ag7
as((I12
I16
tp503
(I12
I15
tp504
tp505
(lp506
g28
ag7
as(g16
(I3
I11
tp507
tp508
(lp509
g6
ag7
as((I9
I13
tp510
(I10
I13
tp511
tp512
(lp513
g7
ag6
as(g443
(I2
I9
tp514
tp515
(lp516
g6
ag7
as(g286
(I5
I10
tp517
tp518
(lp519
g7
ag6
as(g420
(I2
I8
tp520
tp521
(lp522
g7
ag6
as(g163
(I3
I15
tp523
tp524
(lp525
g7
ag6
as(g282
(I15
I16
tp526
tp527
(lp528
g7
ag6
as(g392
(I1
I9
tp529
tp530
(lp531
g7
ag28
as(g232
(I4
I7
tp532
tp533
(lp534
g6
ag7
as(g356
(I3
I5
tp535
tp536
(lp537
g7
ag6
as((I2
I16
tp538
(I2
I15
tp539
tp540
(lp541
g28
ag7
as((I9
I11
tp542
(I10
I11
tp543
tp544
(lp545
g7
ag6
as((I3
I5
tp546
(I4
I5
tp547
tp548
(lp549
g7
ag6
as(g366
(I14
I16
tp550
tp551
(lp552
g7
ag6
as((I0
I15
tp553
(I1
I15
tp554
tp555
(lp556
g7
ag28
as(g482
(I6
I10
tp557
tp558
(lp559
g6
ag7
as(g208
(I1
I13
tp560
tp561
(lp562
g6
ag7
as(g111
(I4
I6
tp563
tp564
(lp565
g7
ag6
as(g155
(I1
I15
tp566
tp567
(lp568
g28
ag7
as(g33
(I3
I11
tp569
tp570
(lp571
g7
ag6
as((I0
I4
tp572
(I1
I4
tp573
tp574
(lp575
g7
ag28
as((I8
I16
tp576
(I8
I15
tp577
tp578
(lp579
g28
ag7
as((I1
I4
tp580
(I1
I3
tp581
tp582
(lp583
g6
ag7
as(g88
(I2
I6
tp584
tp585
(lp586
g6
ag7
as((I3
I14
tp587
(I3
I13
tp588
tp589
(lp590
g6
ag7
as(g77
(I2
I3
tp591
tp592
(lp593
g6
ag7
as(g580
(I2
I4
tp594
tp595
(lp596
g7
ag6
as(g197
(I8
I15
tp597
tp598
(lp599
g7
ag6
as((I4
I11
tp600
(I4
I10
tp601
tp602
(lp603
g6
ag7
as((I1
I6
tp604
(I2
I6
tp605
tp606
(lp607
g7
ag6
as(g542
(I9
I10
tp608
tp609
(lp610
g6
ag7
as(g576
(I9
I16
tp611
tp612
(lp613
g7
ag6
as(g538
(I3
I16
tp614
tp615
(lp616
g7
ag6
as((I8
I10
tp617
(I8
I9
tp618
tp619
(lp620
g6
ag7
as(g499
(I7
I13
tp621
tp622
(lp623
g7
ag6
as(g320
(I6
I10
tp624
tp625
(lp626
g7
ag6
as(g431
(I4
I11
tp627
tp628
(lp629
g7
ag6
as(g143
(I5
I12
tp630
tp631
(lp632
g7
ag6
as(g324
(I7
I10
tp633
tp634
(lp635
g7
ag6
as(g73
(I1
I7
tp636
tp637
(lp638
g7
ag28
as(g271
(I4
I6
tp639
tp640
(lp641
g6
ag7
as(g587
(I4
I14
tp642
tp643
(lp644
g7
ag6
as(g45
(I3
I15
tp645
tp646
(lp647
g28
ag7
as(g343
(I12
I13
tp648
tp649
(lp650
g7
ag6
as(g396
(I5
I11
tp651
tp652
(lp653
g6
ag7
as((I5
I16
tp654
(I6
I16
tp655
tp656
(lp657
g7
ag6
as(g604
(I1
I5
tp658
tp659
(lp660
g6
ag7
as((I4
I15
tp661
(I4
I14
tp662
tp663
(lp664
g6
ag7
as(g339
(I2
I7
tp665
tp666
(lp667
g6
ag7
as(g435
(I1
I2
tp668
tp669
(lp670
g6
ag7
as(g503
(I13
I16
tp671
tp672
(lp673
g7
ag6
as((I0
I14
tp674
(I0
I13
tp675
tp676
(lp677
g6
ag7
as((I12
I14
tp678
(I12
I13
tp679
tp680
(lp681
g6
ag7
as((I10
I14
tp682
(I11
I14
tp683
tp684
(lp685
g7
ag6
as((I5
I6
tp686
g180
tp687
(lp688
g6
ag6
as((I1
I9
tp689
(I2
I9
tp690
tp691
(lp692
g7
ag6
as((I0
I11
tp693
(I0
I10
tp694
tp695
(lp696
g6
ag7
as(g416
(I5
I12
tp697
tp698
(lp699
g6
ag7
as(g49
(I4
I8
tp700
tp701
(lp702
g7
ag6
as(g654
(I5
I15
tp703
tp704
(lp705
g28
ag7
as(g546
(I3
I4
tp706
tp707
(lp708
g6
ag7
as((I6
I16
tp709
(I6
I15
tp710
tp711
(lp712
g28
ag7
as((I2
I3
tp713
g180
tp714
(lp715
g6
ag6
as(g572
(I0
I3
tp716
tp717
(lp718
g6
ag7
as(g249
(I4
I5
tp719
tp720
(lp721
g6
ag7
as((I1
I11
tp722
(I2
I11
tp723
tp724
(lp725
g7
ag6
as(g471
(I0
I4
tp726
tp727
(lp728
g6
ag7
as(g617
(I9
I10
tp729
tp730
(lp731
g7
ag6
as(g20
(I5
I7
tp732
tp733
(lp734
g6
ag7
as((I15
I16
tp735
g180
tp736
(lp737
g28
ag6
as((I1
I2
tp738
g180
tp739
(lp740
g6
ag6
as(g131
(I2
I5
tp741
tp742
(lp743
g6
ag7
as((I4
I13
tp744
(I5
I13
tp745
tp746
(lp747
g7
ag6
as(g453
(I5
I9
tp748
tp749
(lp750
g7
ag6
as(g674
(I1
I14
tp751
tp752
(lp753
g7
ag28
as(g301
(I8
I11
tp754
tp755
(lp756
g7
ag6
as(g553
(I0
I14
tp757
tp758
(lp759
g6
ag7
as(g722
(I1
I10
tp760
tp761
(lp762
g6
ag7
as(g464
(I3
I6
tp763
tp764
(lp765
g6
ag7
as(g370
(I10
I12
tp766
tp767
(lp768
g6
ag7
as(g147
(I8
I9
tp769
tp770
(lp771
g7
ag6
as(g427
(I2
I10
tp772
tp773
(lp774
g7
ag6
as(g457
(I1
I6
tp775
tp776
(lp777
g6
ag7
as(g293
(I3
I12
tp778
tp779
(lp780
g7
ag6
as(g381
(I4
I13
tp781
tp782
(lp783
g7
ag6
as(g123
(I1
I10
tp784
tp785
(lp786
g7
ag28
as(g388
(I7
I14
tp787
tp788
(lp789
g7
ag6
as(g332
(I11
I13
tp790
tp791
(lp792
g6
ag7
as((I13
I15
tp793
(I14
I15
tp794
tp795
(lp796
g7
ag6
as(g29
(I12
I14
tp797
tp798
(lp799
g6
ag7
as(g510
(I9
I12
tp800
tp801
(lp802
g6
ag7
as(g709
(I7
I16
tp803
tp804
(lp805
g7
ag6
as(g312
(I3
I9
tp806
tp807
(lp808
g7
ag6
as((I12
I13
tp809
g180
tp810
(lp811
g6
ag6
as(g793
(I13
I14
tp812
tp813
(lp814
g6
ag7
as(g408
(I6
I14
tp815
tp816
(lp817
g7
ag6
as(g404
(I7
I12
tp818
tp819
(lp820
g6
ag7
as((I0
I8
tp821
(I1
I8
tp822
tp823
(lp824
g7
ag28
as(g693
(I1
I11
tp825
tp826
(lp827
g7
ag28
as(g92
(I8
I12
tp828
tp829
(lp830
g6
ag7
as(g37
(I5
I14
tp831
tp832
(lp833
g7
ag6
as(g412
(I3
I13
tp834
tp835
(lp836
g7
ag6
as(g689
(I1
I8
tp837
tp838
(lp839
g6
ag7
as(g107
(I5
I16
tp840
tp841
(lp842
g7
ag6
as(g821
(I0
I7
tp843
tp844
(lp845
g6
ag7
as(g439
(I0
I11
tp846
tp847
(lp848
g6
ag7
as(g475
(I11
I12
tp849
tp850
(lp851
g7
ag6
as(g682
(I10
I13
tp852
tp853
(lp854
g6
ag7
as((I3
I4
tp855
g180
tp856
(lp857
g6
ag6
as((I11
I16
tp858
(I12
I16
tp859
tp860
(lp861
g7
ag6
as(g600
(I5
I11
tp862
tp863
(lp864
g7
ag6
as(g151
(I6
I14
tp865
tp866
(lp867
g6
ag7
as(g492
(I9
I12
tp868
tp869
(lp870
g7
ag6
as(g858
(I11
I15
tp871
tp872
(lp873
g28
ag7
as(g661
(I5
I15
tp874
tp875
(lp876
g7
ag6
as(g186
(I8
I13
tp877
tp878
(lp879
g6
ag7
as(g41
(I3
I14
tp880
tp881
(lp882
g6
ag7
as(g678
(I13
I14
tp883
tp884
(lp885
g7
ag6
as(g744
(I4
I12
tp886
tp887
(lp888
g6
ag7
as(g316
(I6
I11
tp889
tp890
(lp891
g7
ag6
as(g100
(I8
I10
tp892
tp893
(lp894
g6
ag7
as.