(dp1
((I0
I13
tp2
(I0
I12
tp3
tp4
(lp5
S'loop'
p6
aS'stack'
p7
as((I5
I7
tp8
(I6
I7
tp9
tp10
(lp11
g7
ag6
as((I3
I12
tp12
(I4
I12
tp13
tp14
(lp15
g7
ag6
as((I5
I8
tp16
(I6
I8
tp17
tp18
(lp19
g7
ag6
as((I0
I3
tp20
(I1
I3
tp21
tp22
(lp23
g7
aS'loop+end'
p24
as((I2
I11
tp25
(I2
I10
tp26
tp27
(lp28
g6
ag7
as((I4
I14
tp29
(I4
I13
tp30
tp31
(lp32
g24
ag7
as((I6
I13
tp33
(I7
I13
tp34
tp35
(lp36
g7
ag6
as((I7
I14
tp37
(I8
I14
tp38
tp39
(lp40
g7
ag6
as((I3
I8
tp41
(I3
I7
tp42
tp43
(lp44
g6
ag7
as((I6
I12
tp45
(I6
I11
tp46
tp47
(lp48
g6
ag7
as((I9
I14
tp49
(I9
I13
tp50
tp51
(lp52
g24
ag7
as((I5
I9
tp53
(I6
I9
tp54
tp55
(lp56
g7
ag6
as((I0
I7
tp57
(I0
I6
tp58
tp59
(lp60
g6
ag7
as((I2
I4
tp61
(I3
I4
tp62
tp63
(lp64
g7
ag6
as((I7
I13
tp65
(I8
I13
tp66
tp67
(lp68
g7
ag6
as(g49
(I10
I14
tp69
tp70
(lp71
g7
ag6
as((I2
I7
tp72
(I3
I7
tp73
tp74
(lp75
g7
ag6
as((I8
I13
tp76
(I9
I13
tp77
tp78
(lp79
g7
ag6
as((I10
I12
tp80
(I10
I11
tp81
tp82
(lp83
g6
ag7
as((I8
I11
tp84
(I9
I11
tp85
tp86
(lp87
g7
ag6
as((I8
I12
tp88
(I9
I12
tp89
tp90
(lp91
g7
ag6
as((I4
I10
tp92
(I5
I10
tp93
tp94
(lp95
g7
ag6
as((I2
I5
tp96
(I3
I5
tp97
tp98
(lp99
g7
ag6
as((I1
I5
tp100
(I1
I4
tp101
tp102
(lp103
g6
ag7
as((I3
I14
tp104
(I4
I14
tp105
tp106
(lp107
g7
ag6
as((I2
I14
tp108
(I3
I14
tp109
tp110
(lp111
g7
ag6
as((I2
I6
tp112
(I3
I6
tp113
tp114
(lp115
g7
ag6
as((I6
I9
tp116
(I6
I8
tp117
tp118
(lp119
g6
ag7
as((I4
I12
tp120
(I4
I11
tp121
tp122
(lp123
g6
ag7
as((I7
I9
tp124
(I7
I8
tp125
tp126
(lp127
g6
ag7
as((I7
I12
tp128
(I8
I12
tp129
tp130
(lp131
g7
ag6
as((I5
I12
tp132
(I5
I11
tp133
tp134
(lp135
g6
ag7
as(g37
(I7
I13
tp136
tp137
(lp138
g24
ag7
as((I0
I2
tp139
(I0
I1
tp140
tp141
(lp142
g6
ag7
as(g139
(I1
I2
tp143
tp144
(lp145
g7
ag24
as((I8
I14
tp146
(I9
I14
tp147
tp148
(lp149
g7
ag6
as((I1
I12
tp150
(I1
I11
tp151
tp152
(lp153
g6
ag7
as(g45
(I7
I12
tp154
tp155
(lp156
g7
ag6
as((I0
I10
tp157
(I0
I9
tp158
tp159
(lp160
g6
ag7
as((I7
I10
tp161
(I7
I9
tp162
tp163
(lp164
g6
ag7
as((I1
I14
tp165
(I2
I14
tp166
tp167
(lp168
g7
ag6
as((I3
I9
tp169
(I4
I9
tp170
tp171
(lp172
g7
ag6
as(g92
(I4
I9
tp173
tp174
(lp175
g6
ag7
as((I6
I7
tp176
(I0
I0
tp177
tp178
(lp179
g6
ag6
as((I4
I8
tp180
(I5
I8
tp181
tp182
(lp183
g7
ag6
as((I1
I13
tp184
(I2
I13
tp185
tp186
(lp187
g7
ag6
as((I4
I11
tp188
(I5
I11
tp189
tp190
(lp191
g7
ag6
as((I4
I6
tp192
(I5
I6
tp193
tp194
(lp195
g7
ag6
as(g128
(I7
I11
tp196
tp197
(lp198
g6
ag7
as((I13
I14
tp199
g177
tp200
(lp201
g24
ag6
as(g25
(I3
I11
tp202
tp203
(lp204
g7
ag6
as(g53
(I5
I8
tp205
tp206
(lp207
g6
ag7
as(g108
(I2
I13
tp208
tp209
(lp210
g24
ag7
as((I4
I7
tp211
(I5
I7
tp212
tp213
(lp214
g7
ag6
as(g100
(I2
I5
tp215
tp216
(lp217
g7
ag6
as(g150
(I2
I12
tp218
tp219
(lp220
g7
ag6
as((I2
I12
tp221
(I2
I11
tp222
tp223
(lp224
g6
ag7
as((I0
I1
tp225
(I0
I0
tp226
tp227
(lp228
g6
ag24
as((I7
I11
tp229
(I7
I10
tp230
tp231
(lp232
g6
ag7
as((I9
I12
tp233
(I10
I12
tp234
tp235
(lp236
g7
ag6
as((I2
I9
tp237
(I2
I8
tp238
tp239
(lp240
g6
ag7
as((I5
I10
tp241
(I5
I9
tp242
tp243
(lp244
g6
ag7
as((I6
I10
tp245
(I6
I9
tp246
tp247
(lp248
g6
ag7
as((I3
I10
tp249
(I3
I9
tp250
tp251
(lp252
g6
ag7
as((I11
I14
tp253
(I12
I14
tp254
tp255
(lp256
g7
ag6
as(g8
(I5
I6
tp257
tp258
(lp259
g6
ag7
as((I2
I8
tp260
(I3
I8
tp261
tp262
(lp263
g7
ag6
as((I11
I13
tp264
(I11
I12
tp265
tp266
(lp267
g6
ag7
as(g249
(I4
I10
tp268
tp269
(lp270
g7
ag6
as((I0
I6
tp271
(I0
I5
tp272
tp273
(lp274
g6
ag7
as(g233
(I9
I11
tp275
tp276
(lp277
g6
ag7
as(g96
(I2
I4
tp278
tp279
(lp280
g6
ag7
as(g2
(I1
I13
tp281
tp282
(lp283
g7
ag24
as((I11
I12
tp284
g177
tp285
(lp286
g6
ag6
as((I10
I13
tp287
(I11
I13
tp288
tp289
(lp290
g7
ag6
as((I6
I8
tp291
(I6
I7
tp292
tp293
(lp294
g6
ag7
as(g271
(I1
I6
tp295
tp296
(lp297
g7
ag24
as((I5
I11
tp298
(I5
I10
tp299
tp300
(lp301
g6
ag7
as((I6
I14
tp302
(I6
I13
tp303
tp304
(lp305
g24
ag7
as(g132
(I6
I12
tp306
tp307
(lp308
g7
ag6
as((I9
I13
tp309
(I10
I13
tp310
tp311
(lp312
g7
ag6
as((I1
I10
tp313
(I1
I9
tp314
tp315
(lp316
g6
ag7
as((I2
I13
tp317
(I2
I12
tp318
tp319
(lp320
g6
ag7
as((I5
I13
tp321
(I6
I13
tp322
tp323
(lp324
g7
ag6
as((I3
I13
tp325
(I3
I12
tp326
tp327
(lp328
g6
ag7
as((I4
I5
tp329
g177
tp330
(lp331
g6
ag6
as((I4
I9
tp332
(I5
I9
tp333
tp334
(lp335
g7
ag6
as((I3
I11
tp336
(I3
I10
tp337
tp338
(lp339
g6
ag7
as((I1
I3
tp340
(I2
I3
tp341
tp342
(lp343
g7
ag6
as((I2
I10
tp344
(I3
I10
tp345
tp346
(lp347
g7
ag6
as(g332
(I4
I8
tp348
tp349
(lp350
g6
ag7
as((I1
I7
tp351
(I2
I7
tp352
tp353
(lp354
g7
ag6
as((I10
I11
tp355
g177
tp356
(lp357
g6
ag6
as((I3
I7
tp358
(I4
I7
tp359
tp360
(lp361
g7
ag6
as((I1
I2
tp362
g177
tp363
(lp364
g6
ag6
as((I0
I5
tp365
(I1
I5
tp366
tp367
(lp368
g7
ag24
as((I9
I10
tp369
g177
tp370
(lp371
g6
ag6
as(g20
(I0
I2
tp372
tp373
(lp374
g6
ag7
as(g88
(I8
I11
tp375
tp376
(lp377
g6
ag7
as(g116
(I7
I9
tp378
tp379
(lp380
g7
ag6
as(g33
(I6
I12
tp381
tp382
(lp383
g6
ag7
as(g12
(I3
I11
tp384
tp385
(lp386
g6
ag7
as(g344
(I2
I9
tp387
tp388
(lp389
g6
ag7
as(g245
(I7
I10
tp390
tp391
(lp392
g7
ag6
as((I1
I8
tp393
(I2
I8
tp394
tp395
(lp396
g7
ag6
as(g291
(I7
I8
tp397
tp398
(lp399
g7
ag6
as((I0
I9
tp400
(I1
I9
tp401
tp402
(lp403
g7
ag24
as(g180
(I4
I7
tp404
tp405
(lp406
g6
ag7
as((I9
I11
tp407
(I10
I11
tp408
tp409
(lp410
g7
ag6
as((I3
I5
tp411
(I4
I5
tp412
tp413
(lp414
g7
ag6
as((I5
I14
tp415
(I5
I13
tp416
tp417
(lp418
g24
ag7
as((I6
I11
tp419
(I6
I10
tp420
tp421
(lp422
g6
ag7
as(g165
(I1
I13
tp423
tp424
(lp425
g24
ag7
as((I3
I6
tp426
(I4
I6
tp427
tp428
(lp429
g7
ag6
as(g169
(I3
I8
tp430
tp431
(lp432
g6
ag7
as((I0
I4
tp433
(I1
I4
tp434
tp435
(lp436
g7
ag24
as((I1
I4
tp437
(I1
I3
tp438
tp439
(lp440
g6
ag7
as(g72
(I2
I6
tp441
tp442
(lp443
g6
ag7
as(g104
(I3
I13
tp444
tp445
(lp446
g24
ag7
as(g61
(I2
I3
tp447
tp448
(lp449
g6
ag7
as(g437
(I2
I4
tp450
tp451
(lp452
g7
ag6
as((I3
I4
tp453
g177
tp454
(lp455
g6
ag6
as(g188
(I4
I10
tp456
tp457
(lp458
g6
ag7
as((I1
I6
tp459
(I2
I6
tp460
tp461
(lp462
g7
ag6
as(g407
(I9
I10
tp463
tp464
(lp465
g6
ag7
as(g161
(I8
I10
tp466
tp467
(lp468
g7
ag6
as((I8
I10
tp469
(I8
I9
tp470
tp471
(lp472
g6
ag7
as(g184
(I1
I12
tp473
tp474
(lp475
g6
ag7
as(g241
(I6
I10
tp476
tp477
(lp478
g7
ag6
as(g336
(I4
I11
tp479
tp480
(lp481
g7
ag6
as(g120
(I5
I12
tp482
tp483
(lp484
g7
ag6
as(g57
(I1
I7
tp485
tp486
(lp487
g7
ag24
as(g211
(I4
I6
tp488
tp489
(lp490
g6
ag7
as((I0
I14
tp491
(I0
I13
tp492
tp493
(lp494
g24
ag7
as(g393
(I1
I7
tp495
tp496
(lp497
g6
ag7
as(g264
(I12
I13
tp498
tp499
(lp500
g7
ag6
as((I0
I8
tp501
(I0
I7
tp502
tp503
(lp504
g6
ag7
as(g459
(I1
I5
tp505
tp506
(lp507
g6
ag7
as((I8
I9
tp508
g177
tp509
(lp510
g6
ag6
as((I12
I14
tp511
(I12
I13
tp512
tp513
(lp514
g24
ag7
as((I10
I14
tp515
(I11
I14
tp516
tp517
(lp518
g7
ag6
as((I1
I9
tp519
(I2
I9
tp520
tp521
(lp522
g7
ag6
as((I0
I11
tp523
(I0
I10
tp524
tp525
(lp526
g6
ag7
as(g321
(I5
I12
tp527
tp528
(lp529
g6
ag7
as(g41
(I4
I8
tp530
tp531
(lp532
g7
ag6
as(g419
(I7
I11
tp533
tp534
(lp535
g7
ag6
as(g411
(I3
I4
tp536
tp537
(lp538
g6
ag7
as(g260
(I2
I7
tp539
tp540
(lp541
g6
ag7
as((I2
I3
tp542
g177
tp543
(lp544
g6
ag6
as(g433
(I0
I3
tp545
tp546
(lp547
g6
ag7
as(g192
(I4
I5
tp548
tp549
(lp550
g6
ag7
as((I1
I11
tp551
(I2
I11
tp552
tp553
(lp554
g7
ag6
as(g365
(I0
I4
tp555
tp556
(lp557
g6
ag7
as(g469
(I9
I10
tp558
tp559
(lp560
g7
ag6
as(g16
(I5
I7
tp561
tp562
(lp563
g6
ag7
as((I7
I8
tp564
g177
tp565
(lp566
g6
ag6
as(g112
(I2
I5
tp567
tp568
(lp569
g6
ag7
as((I4
I13
tp570
(I5
I13
tp571
tp572
(lp573
g7
ag6
as(g491
(I1
I14
tp574
tp575
(lp576
g7
ag24
as(g229
(I8
I11
tp577
tp578
(lp579
g7
ag6
as(g76
(I8
I12
tp580
tp581
(lp582
g6
ag7
as(g551
(I1
I10
tp583
tp584
(lp585
g6
ag7
as(g358
(I3
I6
tp586
tp587
(lp588
g6
ag7
as(g287
(I10
I12
tp589
tp590
(lp591
g6
ag7
as(g124
(I8
I9
tp592
tp593
(lp594
g7
ag6
as(g313
(I2
I10
tp595
tp596
(lp597
g7
ag6
as(g351
(I1
I6
tp598
tp599
(lp600
g6
ag7
as(g221
(I3
I12
tp601
tp602
(lp603
g7
ag6
as(g325
(I4
I13
tp604
tp605
(lp606
g7
ag6
as(g157
(I1
I10
tp607
tp608
(lp609
g7
ag24
as(g302
(I7
I14
tp610
tp611
(lp612
g7
ag6
as(g253
(I11
I13
tp613
tp614
(lp615
g24
ag7
as(g309
(I9
I12
tp616
tp617
(lp618
g6
ag7
as(g400
(I0
I8
tp619
tp620
(lp621
g6
ag7
as(g237
(I3
I9
tp622
tp623
(lp624
g7
ag6
as((I12
I13
tp625
g177
tp626
(lp627
g6
ag6
as(g415
(I6
I14
tp628
tp629
(lp630
g7
ag6
as(g65
(I7
I12
tp631
tp632
(lp633
g6
ag7
as(g501
(I1
I8
tp634
tp635
(lp636
g7
ag24
as(g523
(I1
I11
tp637
tp638
(lp639
g7
ag24
as((I5
I6
tp640
g177
tp641
(lp642
g6
ag6
as(g29
(I5
I14
tp643
tp644
(lp645
g7
ag6
as(g317
(I3
I13
tp646
tp647
(lp648
g7
ag6
as(g519
(I1
I8
tp649
tp650
(lp651
g6
ag7
as((I0
I12
tp652
(I1
I12
tp653
tp654
(lp655
g7
ag24
as(g652
(I0
I11
tp656
tp657
(lp658
g6
ag7
as(g80
(I11
I12
tp659
tp660
(lp661
g7
ag6
as(g515
(I10
I13
tp662
tp663
(lp664
g24
ag7
as(g426
(I3
I5
tp665
tp666
(lp667
g6
ag7
as(g340
(I1
I2
tp668
tp669
(lp670
g6
ag7
as(g146
(I8
I13
tp671
tp672
(lp673
g24
ag7
as(g511
(I13
I14
tp674
tp675
(lp676
g7
ag6
as(g570
(I4
I12
tp677
tp678
(lp679
g6
ag7
as(g298
(I6
I11
tp680
tp681
(lp682
g7
ag6
as(g84
(I8
I10
tp683
tp684
(lp685
g6
ag7
as.