(dp1
(I2
I6
I8
I10
tp2
I435
s(I4
I10
I11
I12
tp3
I673
s(I2
I6
I7
I8
tp4
I463
s(I2
I4
I6
I12
tp5
I189
s(I1
I4
I4
I8
tp6
I208
s(I0
I2
I2
I4
tp7
I158
s(I1
I7
I7
I12
tp8
I317
s(I3
I9
I11
I12
tp9
I629
s(I4
I7
I7
I11
tp10
I481
s(I2
I4
I6
I10
tp11
I259
s(I0
I12
I12
I12
tp12
I647
s(I1
I6
I7
I9
tp13
I385
s(I1
I2
I2
I10
tp14
I45
s(I8
I11
I11
I12
tp15
I725
s(I2
I3
I5
I11
tp16
I147
s(I4
I7
I8
I9
tp17
I578
s(I1
I2
I2
I4
tp18
I195
s(I4
I6
I7
I8
tp19
I540
s(I4
I5
I7
I9
tp20
I466
s(I7
I11
I12
I12
tp21
I722
s(I0
I6
I8
I11
tp22
I312
s(I1
I8
I8
I12
tp23
I408
s(I3
I7
I7
I12
tp24
I405
s(I2
I3
I5
I7
tp25
I285
s(I0
I5
I6
I9
tp26
I256
s(I3
I6
I7
I9
tp27
I467
s(I1
I5
I6
I8
tp28
I335
s(I3
I7
I7
I10
tp29
I474
s(I1
I3
I4
I9
tp30
I139
s(I0
I3
I4
I8
tp31
I137
s(I3
I6
I8
I9
tp32
I508
s(I0
I0
I2
I4
tp33
I160
s(I1
I3
I4
I7
tp34
I204
s(I2
I5
I5
I12
tp35
I188
s(I4
I10
I10
I12
tp36
I652
s(I3
I4
I6
I11
tp37
I264
s(I2
I8
I10
I11
tp38
I560
s(I2
I6
I6
I10
tp39
I346
s(I0
I7
I7
I11
tp40
I311
s(I2
I7
I8
I12
tp41
I407
s(I0
I2
I2
I5
tp42
I127
s(I2
I4
I5
I7
tp43
I328
s(I6
I9
I11
I12
tp44
I688
s(I2
I7
I8
I10
tp45
I476
s(I5
I7
I9
I11
tp46
I588
s(I0
I2
I2
I6
tp47
I99
s(I2
I4
I5
I9
tp48
I253
s(I0
I1
I1
I9
tp49
I19
s(I1
I4
I5
I6
tp50
I325
s(I3
I4
I6
I8
tp51
I376
s(I1
I4
I5
I8
tp52
I249
s(I1
I5
I5
I7
tp53
I329
s(I0
I1
I1
I5
tp54
I74
s(I6
I8
I10
I12
tp55
I650
s(I1
I6
I8
I10
tp56
I393
s(I0
I6
I7
I12
tp57
I232
s(I0
I2
I4
I6
tp58
I165
s(I6
I11
I12
I12
tp59
I715
s(I5
I6
I6
I8
tp60
I539
s(I0
I0
I1
I4
tp61
I73
s(I1
I2
I3
I10
tp62
I62
s(I0
I6
I7
I10
tp63
I305
s(I1
I3
I3
I9
tp64
I107
s(I4
I7
I9
I11
tp65
I557
s(I0
I0
I1
I2
tp66
I124
s(I1
I2
I3
I12
tp67
I35
s(I2
I5
I6
I12
tp68
I229
s(I0
I2
I4
I10
tp69
I64
s(I3
I9
I9
I11
tp70
I590
s(I0
I0
I1
I8
tp71
I18
s(I1
I9
I9
I11
tp72
I525
s(I0
I5
I7
I11
tp73
I226
s(I9
I10
I10
I11
tp74
I720
s(I0
I1
I2
I12
tp75
I9
s(I3
I4
I4
I5
tp76
I411
s(I5
I10
I11
I12
tp77
I689
s(I0
I1
I2
I6
tp78
I75
s(I4
I7
I8
I12
tp79
I491
s(I6
I9
I9
I10
tp80
I677
s(I2
I3
I3
I9
tp81
I138
s(I3
I5
I6
I8
tp82
I419
s(I4
I7
I8
I11
tp83
I521
s(I6
I9
I9
I12
tp84
I649
s(I7
I8
I8
I12
tp85
I623
s(I4
I9
I9
I11
tp86
I617
s(I2
I9
I9
I11
tp87
I559
s(I0
I6
I6
I12
tp88
I191
s(I0
I3
I3
I8
tp89
I105
s(I2
I7
I9
I10
tp90
I516
s(I0
I3
I5
I12
tp91
I71
s(I0
I0
I0
I10
tp92
I3
s(I2
I5
I7
I12
tp93
I272
s(I0
I3
I3
I4
tp94
I235
s(I1
I6
I6
I12
tp95
I230
s(I4
I6
I7
I9
tp96
I506
s(I2
I5
I7
I10
tp97
I347
s(I0
I2
I3
I5
tp98
I162
s(I0
I0
I0
I6
tp99
I26
s(I8
I12
I12
I12
tp100
I731
s(I3
I8
I8
I9
tp101
I579
s(I0
I7
I9
I11
tp102
I402
s(I0
I2
I3
I9
tp103
I61
s(I3
I6
I6
I12
tp104
I314
s(I2
I9
I10
I11
tp105
I592
s(I6
I9
I10
I12
tp106
I670
s(I7
I8
I9
I12
tp107
I648
s(I3
I6
I6
I10
tp108
I389
s(I0
I3
I4
I6
tp109
I202
s(I2
I3
I4
I6
tp110
I280
s(I0
I4
I6
I8
tp111
I251
s(I4
I5
I6
I10
tp112
I388
s(I0
I1
I3
I4
tp113
I159
s(I3
I4
I5
I11
tp114
I221
s(I3
I8
I8
I10
tp115
I550
s(I2
I3
I4
I12
tp116
I91
s(I4
I5
I6
I12
tp117
I313
s(I10
I11
I12
I12
tp118
I733
s(I2
I3
I5
I6
tp119
I324
s(I4
I11
I11
I12
tp120
I690
s(I2
I3
I4
I10
tp121
I142
s(I7
I8
I10
I12
tp122
I669
s(I6
I8
I8
I11
tp123
I614
s(I1
I3
I5
I12
tp124
I93
s(I2
I7
I7
I10
tp125
I434
s(I5
I9
I9
I10
tp126
I659
s(I5
I9
I9
I12
tp127
I625
s(I5
I6
I8
I11
tp128
I520
s(I1
I5
I7
I9
tp129
I342
s(I0
I2
I2
I9
tp130
I42
s(I1
I7
I8
I9
tp131
I470
s(I2
I6
I8
I11
tp132
I399
s(I7
I9
I10
I11
tp133
I693
s(I1
I4
I4
I7
tp134
I244
s(I3
I4
I6
I10
tp135
I301
s(I1
I7
I7
I11
tp136
I355
s(I0
I3
I5
I6
tp137
I242
s(I2
I4
I6
I11
tp138
I223
s(I1
I5
I6
I9
tp139
I297
s(I1
I2
I2
I9
tp140
I60
s(I2
I3
I5
I12
tp141
I119
s(I4
I5
I7
I12
tp142
I359
s(I1
I2
I2
I3
tp143
I233
s(I4
I6
I7
I11
tp144
I440
s(I6
I7
I7
I10
tp145
I580
s(I3
I8
I8
I11
tp146
I522
s(I1
I8
I8
I11
tp147
I444
s(I1
I3
I4
I12
tp148
I69
s(I0
I5
I6
I8
tp149
I293
s(I6
I7
I7
I12
tp150
I528
s(I3
I6
I7
I10
tp151
I433
s(I0
I0
I2
I3
tp152
I194
s(I1
I3
I4
I10
tp153
I111
s(I2
I10
I12
I12
tp154
I645
s(I0
I0
I2
I5
tp155
I129
s(I1
I10
I11
I12
tp156
I603
s(I6
I8
I8
I10
tp157
I635
s(I5
I8
I10
I11
tp158
I642
s(I2
I6
I6
I7
tp159
I459
s(I3
I9
I10
I12
tp160
I600
s(I0
I10
I12
I12
tp161
I594
s(I7
I11
I11
I12
tp162
I719
s(I0
I9
I10
I12
tp163
I497
s(I4
I10
I10
I11
tp164
I664
s(I2
I6
I6
I11
tp165
I308
s(I0
I7
I7
I12
tp166
I274
s(I5
I7
I9
I12
tp167
I565
s(I0
I4
I4
I8
tp168
I171
s(I0
I8
I9
I12
tp169
I410
s(I2
I4
I5
I6
tp170
I368
s(I1
I9
I10
I11
tp171
I561
s(I5
I7
I9
I10
tp172
I611
s(I2
I4
I5
I8
tp173
I290
s(I0
I1
I1
I10
tp174
I12
s(I1
I4
I5
I7
tp175
I286
s(I1
I5
I5
I12
tp176
I153
s(I1
I4
I5
I9
tp177
I213
s(I1
I5
I5
I6
tp178
I369
s(I0
I1
I1
I6
tp179
I55
s(I0
I2
I4
I7
tp180
I134
s(I0
I0
I2
I6
tp181
I101
s(I0
I0
I1
I7
tp182
I27
s(I1
I2
I3
I11
tp183
I47
s(I2
I5
I6
I9
tp184
I340
s(I1
I3
I3
I8
tp185
I135
s(I0
I8
I9
I11
tp186
I446
s(I3
I9
I9
I12
tp187
I567
s(I6
I7
I8
I9
tp188
I633
s(I0
I2
I4
I11
tp189
I49
s(I0
I8
I9
I10
tp190
I479
s(I3
I9
I9
I10
tp191
I613
s(I0
I0
I1
I11
tp192
I4
s(I1
I9
I9
I10
tp193
I553
s(I0
I5
I7
I8
tp194
I337
s(I0
I1
I2
I11
tp195
I13
s(I2
I4
I4
I6
tp196
I323
s(I2
I3
I3
I12
tp197
I68
s(I6
I9
I9
I11
tp198
I661
s(I7
I8
I8
I9
tp199
I675
s(I1
I2
I4
I12
tp200
I51
s(I2
I4
I4
I10
tp201
I177
s(I3
I5
I6
I9
tp202
I382
s(I5
I8
I8
I10
tp203
I610
s(I2
I11
I12
I12
tp204
I666
s(I5
I8
I8
I12
tp205
I564
s(I1
I4
I6
I9
tp206
I255
s(I2
I10
I10
I12
tp207
I601
s(I0
I3
I3
I9
tp208
I82
s(I2
I7
I9
I11
tp209
I485
s(I5
I6
I7
I11
tp210
I480
s(I0
I0
I0
I11
tp211
I1
s(I4
I8
I9
I11
tp212
I589
s(I2
I8
I9
I11
tp213
I524
s(I0
I3
I3
I5
tp214
I198
s(I1
I6
I6
I11
tp215
I266
s(I0
I0
I0
I1
tp216
I123
s(I4
I9
I10
I11
tp217
I643
s(I2
I5
I7
I11
tp218
I309
s(I4
I5
I5
I8
tp219
I418
s(I0
I2
I3
I4
tp220
I196
s(I0
I0
I0
I7
tp221
I17
s(I1
I7
I9
I12
tp222
I409
s(I1
I8
I10
I11
tp223
I526
s(I0
I2
I3
I8
tp224
I80
s(I2
I11
I11
I12
tp225
I655
s(I4
I6
I8
I9
tp226
I544
s(I2
I7
I8
I9
tp227
I509
s(I0
I4
I6
I7
tp228
I288
s(I0
I3
I4
I5
tp229
I238
s(I7
I8
I10
I11
tp230
I679
s(I3
I5
I5
I9
tp231
I338
s(I0
I4
I6
I9
tp232
I215
s(I4
I5
I6
I9
tp233
I424
s(I0
I1
I3
I5
tp234
I128
s(I3
I4
I5
I12
tp235
I187
s(I3
I5
I5
I7
tp236
I414
s(I5
I10
I10
I12
tp237
I671
s(I1
I3
I5
I9
tp238
I175
s(I7
I10
I10
I12
tp239
I699
s(I2
I7
I7
I11
tp240
I398
s(I8
I9
I10
I12
tp241
I698
s(I5
I6
I8
I12
tp242
I490
s(I0
I5
I5
I8
tp243
I250
s(I1
I7
I8
I12
tp244
I363
s(I2
I8
I8
I9
tp245
I546
s(I1
I5
I7
I8
tp246
I379
s(I2
I12
I12
I12
tp247
I684
s(I0
I2
I2
I10
tp248
I30
s(I1
I7
I8
I10
tp249
I436
s(I2
I6
I8
I12
tp250
I362
s(I1
I4
I4
I12
tp251
I92
s(I1
I4
I4
I6
tp252
I281
s(I3
I4
I6
I9
tp253
I339
s(I1
I7
I7
I10
tp254
I392
s(I0
I3
I5
I7
tp255
I206
s(I0
I9
I9
I10
tp256
I518
s(I1
I9
I11
I12
tp257
I571
s(I1
I2
I2
I8
tp258
I79
s(I0
I4
I5
I9
tp259
I176
s(I3
I8
I8
I12
tp260
I492
s(I0
I3
I5
I11
tp261
I90
s(I4
I6
I7
I10
tp262
I473
s(I6
I7
I7
I11
tp263
I554
s(I7
I10
I11
I12
tp264
I711
s(I0
I6
I8
I9
tp265
I387
s(I1
I8
I8
I10
tp266
I477
s(I0
I5
I6
I7
tp267
I331
s(I8
I9
I11
I12
tp268
I710
s(I3
I6
I7
I11
tp269
I397
s(I1
I5
I6
I10
tp270
I260
s(I2
I5
I5
I6
tp271
I413
s(I1
I3
I4
I11
tp272
I88
s(I3
I9
I10
I11
tp273
I619
s(I0
I0
I2
I10
tp274
I32
s(I0
I0
I2
I12
tp275
I16
s(I2
I5
I5
I10
tp276
I258
s(I6
I10
I11
I12
tp277
I701
s(I0
I9
I10
I11
tp278
I527
s(I2
I6
I6
I8
tp279
I420
s(I3
I5
I7
I12
tp280
I315
s(I0
I4
I4
I9
tp281
I140
s(I4
I12
I12
I12
tp282
I708
s(I1
I9
I10
I12
tp283
I535
s(I4
I8
I10
I12
tp284
I599
s(I3
I5
I7
I11
tp285
I353
s(I1
I10
I12
I12
tp286
I621
s(I0
I1
I1
I11
tp287
I8
s(I3
I5
I7
I10
tp288
I390
s(I0
I4
I4
I5
tp289
I279
s(I1
I5
I5
I11
tp290
I184
s(I3
I5
I7
I9
tp291
I426
s(I0
I1
I1
I7
tp292
I40
s(I1
I6
I8
I12
tp293
I318
s(I1
I2
I3
I6
tp294
I163
s(I3
I5
I7
I8
tp295
I462
s(I11
I12
I12
I12
tp296
I736
s(I0
I0
I1
I6
tp297
I39
s(I1
I2
I3
I8
tp298
I104
s(I2
I5
I6
I8
tp299
I377
s(I1
I3
I3
I7
tp300
I166
s(I3
I10
I10
I11
tp301
I644
s(I0
I0
I1
I12
tp302
I2
s(I0
I2
I4
I8
tp303
I106
s(I3
I8
I9
I10
tp304
I584
s(I1
I8
I9
I10
tp305
I517
s(I0
I0
I1
I10
tp306
I7
s(I3
I4
I4
I9
tp307
I252
s(I0
I5
I7
I9
tp308
I299
s(I2
I10
I11
I12
tp309
I630
s(I0
I7
I8
I11
tp310
I357
s(I1
I8
I9
I12
tp311
I453
s(I0
I1
I2
I10
tp312
I20
s(I1
I3
I3
I12
tp313
I50
s(I2
I4
I4
I7
tp314
I284
s(I0
I1
I2
I4
tp315
I126
s(I1
I2
I4
I9
tp316
I108
s(I0
I8
I8
I9
tp317
I471
s(I4
I6
I6
I12
tp318
I358
s(I9
I11
I12
I12
tp319
I730
s(I2
I4
I4
I11
tp320
I146
s(I0
I8
I8
I10
tp321
I437
s(I5
I8
I8
I9
tp322
I634
s(I0
I6
I6
I8
tp323
I336
s(I1
I2
I4
I5
tp324
I237
s(I0
I8
I8
I11
tp325
I401
s(I1
I4
I6
I8
tp326
I292
s(I0
I3
I3
I10
tp327
I63
s(I2
I7
I9
I12
tp328
I452
s(I9
I12
I12
I12
tp329
I734
s(I5
I6
I7
I8
tp330
I574
s(I0
I0
I0
I12
tp331
I0
s(I4
I8
I9
I10
tp332
I612
s(I2
I8
I9
I10
tp333
I552
s(I0
I3
I3
I6
tp334
I164
s(I1
I6
I6
I10
tp335
I303
s(I0
I0
I0
I2
tp336
I95
s(I2
I8
I9
I12
tp337
I494
s(I4
I10
I12
I12
tp338
I682
s(I4
I5
I5
I9
tp339
I381
s(I0
I2
I4
I12
tp340
I37
s(I0
I2
I3
I7
tp341
I103
s(I1
I8
I10
I12
tp342
I496
s(I5
I7
I7
I11
tp343
I519
s(I4
I9
I10
I12
tp344
I627
s(I1
I12
I12
I12
tp345
I667
s(I8
I9
I9
I10
tp346
I703
s(I3
I11
I11
I12
tp347
I674
s(I0
I2
I3
I11
tp348
I34
s(I3
I4
I5
I7
tp349
I370
s(I3
I5
I5
I8
tp350
I375
s(I4
I5
I6
I8
tp351
I460
s(I0
I1
I3
I10
tp352
I31
s(I3
I5
I5
I6
tp353
I456
s(I0
I1
I3
I12
tp354
I15
s(I1
I3
I5
I8
tp355
I209
s(I6
I7
I8
I12
tp356
I563
s(I6
I8
I8
I9
tp357
I656
s(I7
I9
I9
I11
tp358
I678
s(I2
I7
I7
I8
tp359
I504
s(I8
I9
I10
I11
tp360
I704
s(I2
I8
I8
I12
tp361
I451
s(I0
I5
I5
I9
tp362
I214
s(I4
I9
I11
I12
tp363
I653
s(I1
I5
I7
I11
tp364
I267
s(I0
I2
I2
I11
tp365
I21
s(I2
I6
I7
I11
tp366
I354
s(I1
I7
I8
I11
tp367
I400
s(I9
I10
I12
I12
tp368
I726
s(I1
I4
I4
I11
tp369
I115
s(I5
I7
I8
I9
tp370
I607
s(I4
I7
I7
I8
tp371
I575
s(I1
I4
I4
I5
tp372
I322
s(I8
I10
I11
I12
tp373
I718
s(I1
I6
I7
I10
tp374
I348
s(I0
I2
I2
I7
tp375
I76
s(I1
I7
I7
I9
tp376
I428
s(I5
I7
I8
I10
tp377
I581
s(I2
I3
I5
I8
tp378
I248
s(I1
I6
I7
I12
tp379
I273
s(I0
I9
I9
I11
tp380
I487
s(I2
I3
I3
I5
tp381
I277
s(I1
I2
I2
I7
tp382
I102
s(I0
I4
I5
I8
tp383
I210
s(I4
I5
I7
I10
tp384
I432
s(I0
I6
I8
I12
tp385
I275
s(I5
I7
I8
I12
tp386
I529
s(I0
I3
I5
I8
tp387
I172
s(I0
I5
I6
I12
tp388
I155
s(I6
I7
I7
I8
tp389
I632
s(I1
I8
I8
I9
tp390
I510
s(I3
I7
I7
I9
tp391
I507
s(I4
I11
I12
I12
tp392
I696
s(I0
I10
I11
I12
tp393
I572
s(I3
I6
I7
I12
tp394
I360
s(I1
I5
I6
I11
tp395
I224
s(I2
I5
I5
I7
tp396
I371
s(I3
I4
I4
I7
tp397
I327
s(I0
I0
I2
I11
tp398
I23
s(I0
I2
I2
I3
tp399
I193
s(I1
I5
I6
I7
tp400
I373
s(I2
I5
I5
I11
tp401
I222
s(I0
I7
I7
I8
tp402
I423
s(I2
I6
I6
I9
tp403
I383
s(I0
I1
I2
I5
tp404
I98
s(I0
I4
I4
I10
tp405
I112
s(I0
I1
I1
I12
tp406
I5
s(I2
I3
I3
I10
tp407
I110
s(I0
I4
I4
I6
tp408
I241
s(I1
I5
I5
I10
tp409
I218
s(I0
I1
I1
I2
tp410
I156
s(I1
I6
I8
I9
tp411
I429
s(I4
I6
I6
I9
tp412
I465
s(I5
I6
I6
I11
tp413
I439
s(I1
I2
I3
I7
tp414
I132
s(I0
I6
I7
I9
tp415
I343
s(I0
I2
I4
I5
tp416
I199
s(I3
I10
I10
I12
tp417
I628
s(I0
I8
I8
I12
tp418
I364
s(I1
I2
I3
I9
tp419
I81
s(I2
I5
I6
I11
tp420
I265
s(I1
I3
I3
I6
tp421
I200
s(I5
I6
I6
I7
tp422
I573
s(I6
I7
I8
I11
tp423
I586
s(I0
I2
I4
I9
tp424
I83
s(I3
I8
I9
I11
tp425
I558
s(I1
I8
I9
I11
tp426
I486
s(I2
I3
I3
I6
tp427
I239
s(I2
I5
I6
I7
tp428
I416
s(I3
I4
I4
I8
tp429
I289
s(I0
I7
I8
I10
tp430
I394
s(I3
I7
I9
I11
tp431
I523
s(I0
I1
I2
I9
tp432
I29
s(I7
I8
I8
I11
tp433
I639
s(I3
I4
I4
I6
tp434
I367
s(I5
I11
I12
I12
tp435
I707
s(I0
I7
I8
I12
tp436
I319
s(I0
I1
I2
I3
tp437
I157
s(I6
I8
I9
I12
tp438
I624
s(I1
I2
I4
I8
tp439
I136
s(I5
I8
I8
I11
tp440
I587
s(I5
I9
I11
I12
tp441
I672
s(I1
I4
I6
I7
tp442
I330
s(I2
I4
I4
I8
tp443
I247
s(I2
I9
I9
I12
tp444
I533
s(I0
I6
I6
I9
tp445
I298
s(I1
I4
I6
I11
tp446
I185
s(I0
I3
I3
I11
tp447
I48
s(I10
I12
I12
I12
tp448
I735
s(I4
I5
I5
I6
tp449
I498
s(I5
I6
I7
I9
tp450
I542
s(I2
I9
I11
I12
tp451
I602
s(I4
I5
I5
I12
tp452
I269
s(I0
I3
I3
I7
tp453
I133
s(I1
I6
I6
I9
tp454
I341
s(I0
I0
I0
I3
tp455
I72
s(I8
I10
I12
I12
tp456
I721
s(I4
I5
I5
I10
tp457
I344
s(I0
I2
I3
I6
tp458
I131
s(I5
I7
I7
I10
tp459
I547
s(I8
I9
I9
I11
tp460
I692
s(I0
I7
I9
I12
tp461
I365
s(I0
I2
I3
I12
tp462
I25
s(I5
I7
I7
I12
tp463
I489
s(I6
I10
I10
I12
tp464
I687
s(I5
I9
I10
I12
tp465
I651
s(I0
I2
I3
I10
tp466
I46
s(I3
I6
I6
I9
tp467
I425
s(I3
I11
I12
I12
tp468
I683
s(I0
I11
I12
I12
tp469
I622
s(I2
I3
I4
I5
tp470
I321
s(I2
I9
I10
I12
tp471
I569
s(I3
I6
I6
I7
tp472
I500
s(I3
I4
I5
I8
tp473
I332
s(I3
I5
I5
I11
tp474
I263
s(I5
I8
I9
I10
tp475
I637
s(I0
I1
I3
I11
tp476
I22
s(I3
I10
I12
I12
tp477
I665
s(I2
I3
I4
I9
tp478
I173
s(I1
I3
I5
I11
tp479
I116
s(I7
I9
I9
I10
tp480
I691
s(I2
I7
I7
I9
tp481
I468
s(I2
I8
I10
I12
tp482
I534
s(I0
I5
I5
I10
tp483
I180
s(I1
I5
I7
I12
tp484
I231
s(I1
I3
I5
I7
tp485
I245
s(I7
I12
I12
I12
tp486
I728
s(I3
I8
I10
I12
tp487
I568
s(I1
I5
I7
I10
tp488
I304
s(I0
I2
I2
I12
tp489
I14
s(I2
I6
I7
I10
tp490
I391
s(I3
I8
I10
I11
tp491
I591
s(I0
I5
I5
I6
tp492
I326
s(I1
I4
I4
I10
tp493
I143
s(I4
I6
I6
I8
tp494
I501
s(I2
I6
I7
I12
tp495
I316
s(I4
I7
I7
I9
tp496
I543
s(I2
I4
I6
I8
tp497
I334
s(I0
I4
I5
I7
tp498
I246
s(I1
I6
I7
I11
tp499
I310
s(I5
I6
I7
I10
tp500
I511
s(I1
I7
I7
I8
tp501
I464
s(I1
I2
I2
I12
tp502
I24
s(I2
I3
I5
I9
tp503
I212
s(I0
I9
I9
I12
tp504
I454
s(I1
I2
I2
I6
tp505
I130
s(I0
I4
I5
I11
tp506
I117
s(I4
I5
I7
I11
tp507
I396
s(I0
I3
I5
I9
tp508
I141
s(I4
I6
I7
I12
tp509
I404
s(I0
I5
I6
I11
tp510
I186
s(I6
I7
I7
I9
tp511
I606
s(I8
I11
I12
I12
tp512
I727
s(I3
I7
I7
I8
tp513
I541
s(I1
I11
I11
I12
tp514
I631
s(I3
I6
I8
I11
tp515
I442
s(I1
I5
I6
I12
tp516
I190
s(I1
I3
I4
I5
tp517
I278
s(I0
I0
I2
I8
tp518
I59
s(I5
I8
I10
I12
tp519
I626
s(I2
I5
I5
I8
tp520
I333
s(I2
I6
I6
I12
tp521
I271
s(I0
I7
I7
I9
tp522
I386
s(I0
I3
I5
I10
tp523
I113
s(I0
I4
I4
I11
tp524
I89
s(I2
I4
I5
I11
tp525
I183
s(I1
I4
I5
I10
tp526
I179
s(I0
I4
I4
I7
tp527
I205
s(I1
I5
I5
I9
tp528
I254
s(I0
I1
I1
I3
tp529
I125
s(I1
I4
I5
I12
tp530
I120
s(I9
I10
I11
I12
tp531
I724
s(I7
I10
I12
I12
tp532
I714
s(I5
I6
I6
I10
tp533
I472
s(I1
I2
I3
I4
tp534
I234
s(I0
I6
I7
I8
tp535
I380
s(I1
I3
I3
I11
tp536
I65
s(I8
I10
I10
I11
tp537
I713
s(I5
I6
I6
I12
tp538
I403
s(I6
I7
I9
I10
tp539
I636
s(I2
I5
I6
I10
tp540
I302
s(I1
I3
I3
I5
tp541
I236
s(I6
I7
I8
I10
tp542
I609
s(I6
I7
I9
I11
tp543
I615
s(I3
I8
I9
I12
tp544
I532
s(I0
I10
I10
I11
tp545
I562
s(I2
I3
I3
I7
tp546
I203
s(I3
I4
I4
I11
tp547
I182
s(I0
I7
I8
I9
tp548
I430
s(I3
I7
I9
I10
tp549
I551
s(I0
I1
I2
I8
tp550
I41
s(I1
I3
I4
I8
tp551
I170
s(I2
I4
I4
I5
tp552
I366
s(I3
I7
I9
I12
tp553
I493
s(I2
I3
I3
I11
tp554
I87
s(I6
I8
I9
I11
tp555
I640
s(I1
I2
I4
I11
tp556
I66
s(I3
I5
I6
I10
tp557
I345
s(I7
I8
I8
I10
tp558
I657
s(I2
I4
I4
I9
tp559
I211
s(I3
I5
I6
I12
tp560
I270
s(I0
I6
I6
I10
tp561
I261
s(I1
I4
I6
I12
tp562
I154
s(I5
I7
I8
I11
tp563
I555
s(I1
I2
I4
I7
tp564
I167
s(I1
I4
I6
I10
tp565
I219
s(I2
I10
I10
I11
tp566
I620
s(I0
I3
I3
I12
tp567
I36
s(I5
I6
I7
I12
tp568
I447
s(I0
I0
I0
I8
tp569
I10
s(I4
I5
I5
I7
tp570
I457
s(I4
I8
I9
I12
tp571
I566
s(I2
I5
I7
I8
tp572
I421
s(I1
I6
I6
I8
tp573
I378
s(I0
I0
I0
I4
tp574
I53
s(I1
I7
I9
I11
tp575
I445
s(I3
I12
I12
I12
tp576
I697
s(I4
I5
I5
I11
tp577
I306
s(I0
I10
I10
I12
tp578
I536
s(I5
I7
I7
I9
tp579
I576
s(I4
I6
I6
I10
tp580
I431
s(I3
I7
I8
I10
tp581
I514
s(I8
I9
I9
I12
tp582
I685
s(I3
I7
I8
I12
tp583
I450
s(I4
I6
I8
I10
tp584
I513
s(I3
I7
I8
I11
tp585
I483
s(I4
I6
I8
I12
tp586
I449
s(I3
I6
I6
I8
tp587
I461
s(I1
I10
I10
I12
tp588
I570
s(I3
I5
I5
I12
tp589
I227
s(I0
I4
I6
I10
tp590
I181
s(I5
I9
I10
I11
tp591
I663
s(I0
I1
I3
I6
tp592
I100
s(I9
I11
I11
I12
tp593
I729
s(I3
I7
I8
I9
tp594
I545
s(I0
I3
I4
I10
tp595
I86
s(I3
I5
I5
I10
tp596
I300
s(I0
I4
I6
I12
tp597
I122
s(I5
I8
I9
I11
tp598
I616
s(I0
I1
I3
I8
tp599
I58
s(I0
I3
I4
I12
tp600
I52
s(I2
I3
I4
I8
tp601
I207
s(I7
I10
I10
I11
tp602
I705
s(I1
I3
I5
I10
tp603
I144
s(I2
I7
I7
I12
tp604
I361
s(I4
I8
I8
I12
tp605
I530
s(I0
I9
I11
I12
tp606
I537
s(I10
I11
I11
I12
tp607
I732
s(I4
I8
I8
I10
tp608
I582
s(I2
I8
I8
I10
tp609
I515
s(I0
I5
I5
I11
tp610
I149
s(I1
I3
I5
I6
tp611
I282
s(I6
I12
I12
I12
tp612
I723
s(I2
I6
I8
I9
tp613
I469
s(I1
I10
I10
I11
tp614
I593
s(I5
I12
I12
I12
tp615
I716
s(I2
I6
I7
I9
tp616
I427
s(I4
I7
I7
I12
tp617
I448
s(I0
I5
I5
I7
tp618
I287
s(I1
I4
I4
I9
tp619
I174
s(I3
I4
I6
I12
tp620
I228
s(I4
I7
I7
I10
tp621
I512
s(I2
I4
I6
I9
tp622
I296
s(I3
I4
I5
I6
tp623
I412
s(I0
I4
I5
I6
tp624
I283
s(I1
I6
I7
I8
tp625
I422
s(I1
I2
I2
I11
tp626
I33
s(I2
I4
I6
I7
tp627
I372
s(I2
I3
I5
I10
tp628
I178
s(I0
I4
I5
I12
tp629
I94
s(I4
I7
I8
I10
tp630
I549
s(I1
I2
I2
I5
tp631
I161
s(I0
I3
I4
I11
tp632
I67
s(I0
I4
I5
I10
tp633
I145
s(I4
I5
I7
I8
tp634
I502
s(I0
I6
I8
I10
tp635
I350
s(I3
I4
I5
I9
tp636
I294
s(I0
I5
I6
I10
tp637
I220
s(I7
I8
I9
I10
tp638
I676
s(I3
I6
I7
I8
tp639
I503
s(I3
I7
I7
I11
tp640
I441
s(I3
I4
I5
I10
tp641
I257
s(I7
I8
I9
I11
tp642
I660
s(I3
I6
I8
I10
tp643
I475
s(I0
I0
I2
I7
tp644
I78
s(I6
I10
I12
I12
tp645
I706
s(I1
I3
I4
I6
tp646
I240
s(I3
I6
I8
I12
tp647
I406
s(I0
I0
I2
I9
tp648
I44
s(I2
I5
I5
I9
tp649
I295
s(I6
I7
I9
I12
tp650
I596
s(I0
I7
I7
I10
tp651
I349
s(I5
I10
I10
I11
tp652
I681
s(I6
I11
I11
I12
tp653
I712
s(I2
I7
I8
I11
tp654
I443
s(I0
I4
I4
I12
tp655
I70
s(I2
I4
I5
I10
tp656
I217
s(I0
I1
I1
I8
tp657
I28
s(I4
I8
I10
I11
tp658
I618
s(I4
I6
I6
I7
tp659
I538
s(I2
I4
I5
I12
tp660
I152
s(I1
I4
I5
I11
tp661
I148
s(I1
I5
I5
I8
tp662
I291
s(I0
I1
I1
I4
tp663
I97
s(I6
I8
I10
I11
tp664
I662
s(I1
I6
I8
I11
tp665
I356
s(I4
I6
I6
I11
tp666
I395
s(I0
I11
I11
I12
tp667
I604
s(I5
I6
I6
I9
tp668
I505
s(I0
I0
I1
I5
tp669
I54
s(I1
I2
I3
I5
tp670
I197
s(I0
I6
I7
I11
tp671
I268
s(I1
I3
I3
I10
tp672
I84
s(I8
I10
I10
I12
tp673
I709
s(I4
I7
I9
I10
tp674
I583
s(I0
I0
I1
I3
tp675
I96
s(I1
I3
I3
I4
tp676
I276
s(I4
I7
I9
I12
tp677
I531
s(I0
I0
I1
I9
tp678
I11
s(I1
I9
I9
I12
tp679
I495
s(I3
I4
I4
I12
tp680
I151
s(I0
I5
I7
I10
tp681
I262
s(I7
I9
I11
I12
tp682
I700
s(I9
I10
I10
I12
tp683
I717
s(I2
I3
I3
I4
tp684
I320
s(I3
I4
I4
I10
tp685
I216
s(I0
I5
I7
I12
tp686
I192
s(I0
I1
I2
I7
tp687
I56
s(I2
I3
I3
I8
tp688
I169
s(I6
I8
I9
I10
tp689
I658
s(I1
I2
I4
I10
tp690
I85
s(I2
I4
I4
I12
tp691
I118
s(I3
I5
I6
I11
tp692
I307
s(I4
I9
I9
I12
tp693
I598
s(I6
I10
I10
I11
tp694
I694
s(I4
I9
I9
I10
tp695
I638
s(I2
I9
I9
I10
tp696
I585
s(I0
I6
I6
I11
tp697
I225
s(I1
I2
I4
I6
tp698
I201
s(I3
I5
I6
I7
tp699
I458
s(I5
I11
I11
I12
tp700
I702
s(I0
I0
I0
I9
tp701
I6
s(I0
I6
I6
I7
tp702
I374
s(I2
I5
I7
I9
tp703
I384
s(I7
I9
I10
I12
tp704
I686
s(I1
I6
I6
I7
tp705
I417
s(I4
I8
I8
I9
tp706
I608
s(I0
I0
I0
I5
tp707
I38
s(I1
I7
I9
I10
tp708
I478
s(I5
I7
I7
I8
tp709
I605
s(I0
I7
I9
I10
tp710
I438
s(I4
I6
I8
I11
tp711
I482
s(I5
I6
I8
I9
tp712
I577
s(I0
I8
I10
I11
tp713
I488
s(I3
I10
I11
I12
tp714
I654
s(I3
I6
I6
I11
tp715
I352
s(I0
I3
I4
I7
tp716
I168
s(I2
I3
I4
I7
tp717
I243
s(I0
I4
I6
I11
tp718
I150
s(I4
I5
I6
I11
tp719
I351
s(I6
I9
I10
I11
tp720
I680
s(I0
I1
I3
I7
tp721
I77
s(I0
I3
I4
I9
tp722
I109
s(I5
I10
I12
I12
tp723
I695
s(I0
I1
I3
I9
tp724
I43
s(I5
I6
I8
I10
tp725
I548
s(I2
I3
I4
I11
tp726
I114
s(I5
I8
I9
I12
tp727
I597
s(I4
I5
I6
I7
tp728
I499
s(I3
I4
I6
I7
tp729
I415
s(I1
I11
I12
I12
tp730
I646
s(I5
I9
I9
I11
tp731
I641
s(I6
I8
I8
I12
tp732
I595
s(I7
I9
I9
I12
tp733
I668
s(I0
I8
I10
I12
tp734
I455
s(I4
I8
I8
I11
tp735
I556
s(I2
I8
I8
I11
tp736
I484
s(I0
I5
I5
I12
tp737
I121
s(I0
I2
I2
I8
tp738
I57
s.