(dp1
((I2
I3
tp2
(I0
I0
tp3
tp4
(lp5
S'loop'
p6
ag6
as((I2
I4
tp7
(I2
I3
tp8
tp9
(lp10
S'stack'
p11
ag6
as(g7
(I3
I4
tp12
tp13
(lp14
g6
ag11
as((I0
I2
tp15
(I1
I2
tp16
tp17
(lp18
S'end'
p19
ag11
as((I1
I5
tp20
(I2
I5
tp21
tp22
(lp23
g6
ag11
as(g20
(I1
I4
tp24
tp25
(lp26
g11
ag6
as((I3
I5
tp27
(I4
I5
tp28
tp29
(lp30
g6
ag11
as((I0
I3
tp31
(I1
I3
tp32
tp33
(lp34
g19
ag11
as((I2
I5
tp35
(I3
I5
tp36
tp37
(lp38
g6
ag11
as((I0
I4
tp39
(I1
I4
tp40
tp41
(lp42
g19
ag11
as(g39
(I0
I3
tp43
tp44
(lp45
g11
ag6
as((I1
I4
tp46
(I1
I3
tp47
tp48
(lp49
g11
ag6
as((I0
I1
tp50
(I0
I0
tp51
tp52
(lp53
g19
ag6
as(g31
(I0
I2
tp54
tp55
(lp56
g11
ag6
as(g46
(I2
I4
tp57
tp58
(lp59
g6
ag11
as(g27
(I3
I4
tp60
tp61
(lp62
g11
ag6
as((I0
I5
tp63
(I0
I4
tp64
tp65
(lp66
g11
ag6
as(g35
(I2
I4
tp67
tp68
(lp69
g11
ag6
as(g15
(I0
I1
tp70
tp71
(lp72
g11
ag6
as((I4
I5
tp73
g3
tp74
(lp75
g6
ag6
as((I1
I3
tp76
(I1
I2
tp77
tp78
(lp79
g11
ag6
as(g76
(I2
I3
tp80
tp81
(lp82
g6
ag11
as((I3
I4
tp83
g3
tp84
(lp85
g6
ag6
as((I1
I2
tp86
g3
tp87
(lp88
g6
ag6
as(g63
(I1
I5
tp89
tp90
(lp91
g19
ag11
as.