(dp1
(I6
I9
tp2
I46
s(I10
I17
tp3
I116
s(I0
I20
tp4
I210
s(I7
I12
tp5
I82
s(I14
I17
tp6
I54
s(I17
I20
tp7
I57
s(I13
I17
tp8
I71
s(I18
I19
tp9
I19
s(I0
I10
tp10
I145
s(I3
I7
tp11
I61
s(I2
I5
tp12
I42
s(I1
I11
tp13
I146
s(I5
I8
tp14
I45
s(I6
I7
tp15
I7
s(I4
I19
tp16
I194
s(I14
I18
tp17
I72
s(I5
I18
tp18
I180
s(I10
I18
tp19
I130
s(I0
I17
tp20
I201
s(I15
I20
tp21
I90
s(I12
I17
tp22
I87
s(I0
I4
tp23
I58
s(I13
I20
tp24
I119
s(I1
I17
tp25
I197
s(I18
I20
tp26
I39
s(I8
I15
tp27
I114
s(I0
I1
tp28
I1
s(I2
I6
tp29
I60
s(I9
I14
tp30
I84
s(I15
I18
tp31
I55
s(I5
I11
tp32
I96
s(I4
I5
tp33
I5
s(I10
I13
tp34
I50
s(I4
I16
tp35
I170
s(I9
I16
tp36
I115
s(I14
I15
tp37
I15
s(I0
I7
tp38
I106
s(I16
I19
tp39
I56
s(I2
I17
tp40
I192
s(I6
I8
tp41
I27
s(I17
I18
tp42
I18
s(I3
I12
tp43
I136
s(I1
I12
tp44
I157
s(I8
I12
tp45
I66
s(I4
I15
tp46
I160
s(I2
I11
tp47
I135
s(I1
I6
tp48
I76
s(I5
I14
tp49
I138
s(I3
I18
tp50
I193
s(I10
I14
tp51
I68
s(I8
I18
tp52
I153
s(I6
I13
tp53
I112
s(I11
I15
tp54
I69
s(I9
I19
tp55
I154
s(I15
I16
tp56
I16
s(I6
I16
tp57
I151
s(I11
I16
tp58
I86
s(I2
I18
tp59
I198
s(I0
I14
tp60
I183
s(I3
I11
tp61
I123
s(I1
I15
tp62
I184
s(I8
I9
tp63
I9
s(I0
I0
tp64
I0
s(I2
I12
tp65
I147
s(I15
I19
tp66
I73
s(I3
I17
tp67
I186
s(I6
I14
tp68
I126
s(I7
I15
tp69
I127
s(I12
I13
tp70
I13
s(I1
I16
tp71
I191
s(I13
I16
tp72
I53
s(I1
I5
tp73
I59
s(I0
I11
tp74
I156
s(I3
I6
tp75
I43
s(I1
I10
tp76
I134
s(I6
I10
tp77
I64
s(I9
I20
tp78
I165
s(I6
I11
tp79
I81
s(I5
I17
tp80
I171
s(I10
I19
tp81
I143
s(I0
I18
tp82
I205
s(I7
I18
tp83
I163
s(I12
I18
tp84
I103
s(I1
I19
tp85
I206
s(I0
I5
tp86
I75
s(I13
I19
tp87
I104
s(I0
I8
tp88
I120
s(I4
I11
tp89
I110
s(I3
I5
tp90
I24
s(I2
I7
tp91
I77
s(I9
I13
tp92
I67
s(I5
I10
tp93
I80
s(I4
I6
tp94
I25
s(I7
I8
tp95
I8
s(I5
I7
tp96
I26
s(I4
I17
tp97
I179
s(I6
I20
tp98
I189
s(I5
I20
tp99
I195
s(I11
I20
tp100
I144
s(I10
I20
tp101
I155
s(I16
I20
tp102
I74
s(I14
I19
tp103
I89
s(I0
I2
tp104
I21
s(I3
I15
tp105
I169
s(I1
I3
tp106
I22
s(I8
I13
tp107
I83
s(I4
I8
tp108
I62
s(I2
I8
tp109
I93
s(I5
I13
tp110
I125
s(I10
I15
tp111
I85
s(I8
I19
tp112
I164
s(I11
I14
tp113
I51
s(I14
I20
tp114
I105
s(I9
I18
tp115
I142
s(I7
I11
tp116
I65
s(I6
I17
tp117
I162
s(I11
I19
tp118
I131
s(I1
I20
tp119
I209
s(I16
I17
tp120
I17
s(I12
I20
tp121
I132
s(I2
I19
tp122
I203
s(I0
I15
tp123
I190
s(I7
I19
tp124
I173
s(I11
I12
tp125
I12
s(I3
I10
tp126
I109
s(I1
I14
tp127
I176
s(I8
I10
tp128
I29
s(I4
I13
tp129
I137
s(I2
I13
tp130
I158
s(I9
I11
tp131
I30
s(I3
I16
tp132
I178
s(I7
I9
tp133
I28
s(I6
I15
tp134
I139
s(I11
I13
tp135
I32
s(I7
I14
tp136
I113
s(I6
I18
tp137
I172
s(I12
I14
tp138
I33
s(I13
I15
tp139
I34
s(I2
I20
tp140
I207
s(I1
I4
tp141
I41
s(I0
I12
tp142
I166
s(I3
I9
tp143
I94
s(I2
I3
tp144
I3
s(I1
I9
tp145
I121
s(I2
I14
tp146
I168
s(I8
I16
tp147
I128
s(I14
I16
tp148
I35
s(I5
I16
tp149
I161
s(I10
I16
tp150
I101
s(I0
I19
tp151
I208
s(I7
I13
tp152
I98
s(I12
I19
tp153
I118
s(I1
I18
tp154
I202
s(I0
I6
tp155
I91
s(I4
I12
tp156
I124
s(I13
I18
tp157
I88
s(I1
I7
tp158
I92
s(I0
I9
tp159
I133
s(I3
I4
tp160
I4
s(I2
I4
tp161
I23
s(I9
I12
tp162
I49
s(I7
I20
tp163
I182
s(I5
I9
tp164
I63
s(I4
I7
tp165
I44
s(I10
I11
tp166
I11
s(I4
I10
tp167
I95
s(I5
I6
tp168
I6
s(I4
I18
tp169
I187
s(I5
I19
tp170
I188
s(I0
I16
tp171
I196
s(I7
I16
tp172
I140
s(I12
I16
tp173
I70
s(I0
I3
tp174
I40
s(I3
I14
tp175
I159
s(I1
I2
tp176
I2
s(I8
I14
tp177
I99
s(I4
I9
tp178
I79
s(I2
I9
tp179
I108
s(I9
I15
tp180
I100
s(I5
I12
tp181
I111
s(I3
I20
tp182
I204
s(I10
I12
tp183
I31
s(I8
I20
tp184
I174
s(I9
I17
tp185
I129
s(I7
I10
tp186
I47
s(I11
I18
tp187
I117
s(I16
I18
tp188
I37
s(I2
I16
tp189
I185
s(I17
I19
tp190
I38
s(I3
I13
tp191
I148
s(I1
I13
tp192
I167
s(I8
I11
tp193
I48
s(I7
I17
tp194
I152
s(I4
I14
tp195
I149
s(I2
I10
tp196
I122
s(I9
I10
tp197
I10
s(I5
I15
tp198
I150
s(I3
I19
tp199
I199
s(I8
I17
tp200
I141
s(I6
I12
tp201
I97
s(I4
I20
tp202
I200
s(I19
I20
tp203
I20
s(I15
I17
tp204
I36
s(I6
I19
tp205
I181
s(I12
I15
tp206
I52
s(I11
I17
tp207
I102
s(I13
I14
tp208
I14
s(I0
I13
tp209
I175
s(I3
I8
tp210
I78
s(I1
I8
tp211
I107
s(I2
I15
tp212
I177
s.