(dp1
(I5
I9
tp2
I33
s(I4
I7
tp3
I24
s(I1
I3
tp4
I12
s(I4
I8
tp5
I32
s(I5
I6
tp6
I6
s(I2
I8
tp7
I43
s(I6
I9
tp8
I26
s(I0
I7
tp9
I46
s(I8
I9
tp10
I9
s(I2
I6
tp11
I30
s(I1
I6
tp12
I36
s(I0
I10
tp13
I55
s(I3
I7
tp14
I31
s(I0
I3
tp15
I20
s(I2
I5
tp16
I22
s(I5
I8
tp17
I25
s(I1
I2
tp18
I2
s(I6
I7
tp19
I7
s(I2
I9
tp20
I48
s(I3
I10
tp21
I49
s(I6
I10
tp22
I34
s(I8
I10
tp23
I19
s(I1
I5
tp24
I29
s(I3
I6
tp25
I23
s(I0
I4
tp26
I28
s(I1
I10
tp27
I54
s(I3
I5
tp28
I14
s(I2
I7
tp29
I37
s(I0
I0
tp30
I0
s(I7
I10
tp31
I27
s(I4
I10
tp32
I45
s(I4
I5
tp33
I5
s(I1
I4
tp34
I21
s(I2
I10
tp35
I52
s(I9
I10
tp36
I10
s(I3
I9
tp37
I44
s(I2
I3
tp38
I3
s(I1
I9
tp39
I51
s(I6
I8
tp40
I17
s(I4
I9
tp41
I39
s(I0
I8
tp42
I50
s(I7
I9
tp43
I18
s(I0
I1
tp44
I1
s(I5
I10
tp45
I40
s(I4
I6
tp46
I15
s(I3
I4
tp47
I4
s(I5
I7
tp48
I16
s(I0
I2
tp49
I11
s(I3
I8
tp50
I38
s(I0
I6
tp51
I41
s(I1
I8
tp52
I47
s(I1
I7
tp53
I42
s(I0
I9
tp54
I53
s(I0
I5
tp55
I35
s(I7
I8
tp56
I8
s(I2
I4
tp57
I13
s.