(dp1
((I0
I13
tp2
(I0
I12
tp3
tp4
(lp5
S'loop'
p6
aS'stack'
p7
as((I2
I6
tp8
(I3
I6
tp9
tp10
(lp11
g7
ag6
as((I6
I7
tp12
(I0
I0
tp13
tp14
(lp15
g6
ag6
as((I12
I15
tp16
(I13
I15
tp17
tp18
(lp19
g7
ag6
as((I0
I18
tp20
(I0
I17
tp21
tp22
(lp23
g6
ag7
as((I5
I17
tp24
(I5
I16
tp25
tp26
(lp27
g6
ag7
as((I6
I12
tp28
(I6
I11
tp29
tp30
(lp31
g6
ag7
as((I5
I10
tp32
(I5
I9
tp33
tp34
(lp35
g6
ag7
as((I4
I12
tp36
(I5
I12
tp37
tp38
(lp39
g7
ag6
as((I10
I13
tp40
(I11
I13
tp41
tp42
(lp43
g7
ag6
as((I2
I19
tp44
(I2
I18
tp45
tp46
(lp47
g6
ag7
as((I16
I20
tp48
(I17
I20
tp49
tp50
(lp51
g7
ag6
as((I4
I10
tp52
(I5
I10
tp53
tp54
(lp55
g7
ag6
as((I2
I18
tp56
(I2
I17
tp57
tp58
(lp59
g6
ag7
as((I9
I15
tp60
(I10
I15
tp61
tp62
(lp63
g7
ag6
as((I0
I14
tp64
(I0
I13
tp65
tp66
(lp67
g6
ag7
as((I14
I17
tp68
(I14
I16
tp69
tp70
(lp71
g6
ag7
as((I4
I6
tp72
(I4
I5
tp73
tp74
(lp75
g6
ag7
as((I11
I15
tp76
(I12
I15
tp77
tp78
(lp79
g7
ag6
as((I8
I20
tp80
(I9
I20
tp81
tp82
(lp83
g7
ag6
as((I0
I2
tp84
(I1
I2
tp85
tp86
(lp87
g7
aS'end'
p88
as((I1
I12
tp89
(I1
I11
tp90
tp91
(lp92
g6
ag7
as((I0
I10
tp93
(I0
I9
tp94
tp95
(lp96
g6
ag7
as((I7
I10
tp97
(I7
I9
tp98
tp99
(lp100
g6
ag7
as(g89
(I2
I12
tp101
tp102
(lp103
g7
ag6
as((I0
I20
tp104
(I1
I20
tp105
tp106
(lp107
g7
ag88
as((I16
I17
tp108
g13
tp109
(lp110
g6
ag6
as((I1
I9
tp111
(I1
I8
tp112
tp113
(lp114
g6
ag7
as((I0
I19
tp115
(I0
I18
tp116
tp117
(lp118
g6
ag7
as((I2
I20
tp119
(I3
I20
tp120
tp121
(lp122
g7
ag6
as((I3
I9
tp123
(I3
I8
tp124
tp125
(lp126
g6
ag7
as((I4
I7
tp127
(I5
I7
tp128
tp129
(lp130
g7
ag6
as((I1
I5
tp131
(I2
I5
tp132
tp133
(lp134
g7
ag6
as((I10
I18
tp135
(I10
I17
tp136
tp137
(lp138
g6
ag7
as((I3
I7
tp139
(I3
I6
tp140
tp141
(lp142
g6
ag7
as((I10
I20
tp143
(I11
I20
tp144
tp145
(lp146
g7
ag6
as((I3
I17
tp147
(I3
I16
tp148
tp149
(lp150
g6
ag7
as((I16
I19
tp151
(I17
I19
tp152
tp153
(lp154
g7
ag6
as((I8
I12
tp155
(I9
I12
tp156
tp157
(lp158
g7
ag6
as((I3
I10
tp159
(I4
I10
tp160
tp161
(lp162
g7
ag6
as(g24
(I6
I17
tp163
tp164
(lp165
g7
ag6
as((I3
I13
tp166
(I3
I12
tp167
tp168
(lp169
g6
ag7
as((I9
I13
tp170
(I10
I13
tp171
tp172
(lp173
g7
ag6
as((I8
I19
tp174
(I8
I18
tp175
tp176
(lp177
g6
ag7
as((I8
I18
tp178
(I9
I18
tp179
tp180
(lp181
g7
ag6
as((I5
I14
tp182
(I5
I13
tp183
tp184
(lp185
g6
ag7
as((I13
I20
tp186
(I13
I19
tp187
tp188
(lp189
g88
ag7
as((I13
I15
tp190
(I14
I15
tp191
tp192
(lp193
g7
ag6
as((I1
I2
tp194
g13
tp195
(lp196
g6
ag6
as((I8
I15
tp197
(I8
I14
tp198
tp199
(lp200
g6
ag7
as((I1
I15
tp201
(I2
I15
tp202
tp203
(lp204
g7
ag6
as((I13
I19
tp205
(I14
I19
tp206
tp207
(lp208
g7
ag6
as((I12
I17
tp209
(I12
I16
tp210
tp211
(lp212
g6
ag7
as((I3
I12
tp213
(I3
I11
tp214
tp215
(lp216
g6
ag7
as((I9
I18
tp217
(I10
I18
tp218
tp219
(lp220
g7
ag6
as((I12
I18
tp221
(I12
I17
tp222
tp223
(lp224
g6
ag7
as((I4
I8
tp225
(I4
I7
tp226
tp227
(lp228
g6
ag7
as((I13
I16
tp229
(I14
I16
tp230
tp231
(lp232
g7
ag6
as((I1
I18
tp233
(I1
I17
tp234
tp235
(lp236
g6
ag7
as((I14
I19
tp237
(I14
I18
tp238
tp239
(lp240
g6
ag7
as((I1
I16
tp241
(I1
I15
tp242
tp243
(lp244
g6
ag7
as((I0
I1
tp245
(I0
I0
tp246
tp247
(lp248
g6
ag88
as((I3
I14
tp249
(I3
I13
tp250
tp251
(lp252
g6
ag7
as((I12
I14
tp253
(I12
I13
tp254
tp255
(lp256
g6
ag7
as((I10
I19
tp257
(I10
I18
tp258
tp259
(lp260
g6
ag7
as((I1
I6
tp261
(I2
I6
tp262
tp263
(lp264
g7
ag6
as((I9
I11
tp265
(I9
I10
tp266
tp267
(lp268
g6
ag7
as((I6
I17
tp269
(I6
I16
tp270
tp271
(lp272
g6
ag7
as((I8
I10
tp273
(I8
I9
tp274
tp275
(lp276
g6
ag7
as((I1
I13
tp277
(I1
I12
tp278
tp279
(lp280
g6
ag7
as((I3
I16
tp281
(I3
I15
tp282
tp283
(lp284
g6
ag7
as((I6
I10
tp285
(I7
I10
tp286
tp287
(lp288
g7
ag6
as((I6
I9
tp289
(I6
I8
tp290
tp291
(lp292
g6
ag7
as(g32
(I6
I10
tp293
tp294
(lp295
g7
ag6
as((I4
I15
tp296
(I4
I14
tp297
tp298
(lp299
g6
ag7
as((I5
I13
tp300
(I5
I12
tp301
tp302
(lp303
g6
ag7
as((I7
I9
tp304
(I7
I8
tp305
tp306
(lp307
g6
ag7
as((I6
I16
tp308
(I6
I15
tp309
tp310
(lp311
g6
ag7
as((I18
I20
tp312
(I18
I19
tp313
tp314
(lp315
g88
ag7
as(g147
(I4
I17
tp316
tp317
(lp318
g7
ag6
as((I5
I20
tp319
(I6
I20
tp320
tp321
(lp322
g7
ag6
as(g257
(I11
I19
tp323
tp324
(lp325
g7
ag6
as((I3
I4
tp326
g13
tp327
(lp328
g6
ag6
as((I9
I17
tp329
(I9
I16
tp330
tp331
(lp332
g6
ag7
as((I11
I19
tp333
(I12
I19
tp334
tp335
(lp336
g7
ag6
as((I8
I13
tp337
(I8
I12
tp338
tp339
(lp340
g6
ag7
as((I8
I11
tp341
(I8
I10
tp342
tp343
(lp344
g6
ag7
as((I7
I14
tp345
(I8
I14
tp346
tp347
(lp348
g7
ag6
as((I7
I17
tp349
(I7
I16
tp350
tp351
(lp352
g6
ag7
as((I2
I12
tp353
(I3
I12
tp354
tp355
(lp356
g7
ag6
as((I7
I12
tp357
(I8
I12
tp358
tp359
(lp360
g7
ag6
as(g329
(I10
I17
tp361
tp362
(lp363
g7
ag6
as((I7
I13
tp364
(I7
I12
tp365
tp366
(lp367
g6
ag7
as((I0
I8
tp368
(I1
I8
tp369
tp370
(lp371
g7
ag88
as(g174
(I9
I19
tp372
tp373
(lp374
g7
ag6
as((I0
I15
tp375
(I0
I14
tp376
tp377
(lp378
g6
ag7
as((I5
I12
tp379
(I6
I12
tp380
tp381
(lp382
g7
ag6
as(g135
(I11
I18
tp383
tp384
(lp385
g7
ag6
as((I8
I14
tp386
(I8
I13
tp387
tp388
(lp389
g6
ag7
as((I3
I15
tp390
(I3
I14
tp391
tp392
(lp393
g6
ag7
as((I0
I17
tp394
(I0
I16
tp395
tp396
(lp397
g6
ag7
as(g349
(I8
I17
tp398
tp399
(lp400
g7
ag6
as((I4
I17
tp401
(I4
I16
tp402
tp403
(lp404
g6
ag7
as((I5
I7
tp405
(I6
I7
tp406
tp407
(lp408
g7
ag6
as(g80
(I8
I19
tp409
tp410
(lp411
g88
ag7
as(g97
(I8
I10
tp412
tp413
(lp414
g7
ag6
as((I3
I18
tp415
(I3
I17
tp416
tp417
(lp418
g6
ag7
as((I0
I6
tp419
(I0
I5
tp420
tp421
(lp422
g6
ag7
as(g76
(I11
I14
tp423
tp424
(lp425
g6
ag7
as(g28
(I7
I12
tp426
tp427
(lp428
g7
ag6
as(g178
(I8
I17
tp429
tp430
(lp431
g6
ag7
as((I5
I9
tp432
(I6
I9
tp433
tp434
(lp435
g7
ag6
as((I1
I7
tp436
(I1
I6
tp437
tp438
(lp439
g6
ag7
as((I0
I7
tp440
(I0
I6
tp441
tp442
(lp443
g6
ag7
as((I9
I19
tp444
(I9
I18
tp445
tp446
(lp447
g6
ag7
as(g190
(I13
I14
tp448
tp449
(lp450
g6
ag7
as(g289
(I7
I9
tp451
tp452
(lp453
g7
ag6
as((I2
I14
tp454
(I3
I14
tp455
tp456
(lp457
g7
ag6
as(g197
(I9
I15
tp458
tp459
(lp460
g7
ag6
as((I3
I5
tp461
(I3
I4
tp462
tp463
(lp464
g6
ag7
as(g241
(I2
I16
tp465
tp466
(lp467
g7
ag6
as((I2
I15
tp468
(I2
I14
tp469
tp470
(lp471
g6
ag7
as(g345
(I7
I13
tp472
tp473
(lp474
g6
ag7
as(g84
(I0
I1
tp475
tp476
(lp477
g6
ag7
as((I9
I20
tp478
(I9
I19
tp479
tp480
(lp481
g88
ag7
as((I2
I17
tp482
(I3
I17
tp483
tp484
(lp485
g7
ag6
as((I15
I20
tp486
(I16
I20
tp487
tp488
(lp489
g7
ag6
as((I0
I16
tp490
(I0
I15
tp491
tp492
(lp493
g6
ag7
as((I17
I19
tp494
(I18
I19
tp495
tp496
(lp497
g7
ag6
as(g478
(I10
I20
tp498
tp499
(lp500
g7
ag6
as(g205
(I13
I18
tp501
tp502
(lp503
g6
ag7
as(g225
(I5
I8
tp504
tp505
(lp506
g7
ag6
as((I3
I19
tp507
(I4
I19
tp508
tp509
(lp510
g7
ag6
as((I15
I18
tp511
(I15
I17
tp512
tp513
(lp514
g6
ag7
as(g186
(I14
I20
tp515
tp516
(lp517
g7
ag6
as(g357
(I7
I11
tp518
tp519
(lp520
g6
ag7
as((I1
I19
tp521
(I1
I18
tp522
tp523
(lp524
g6
ag7
as((I9
I16
tp525
(I9
I15
tp526
tp527
(lp528
g6
ag7
as((I6
I8
tp529
(I7
I8
tp530
tp531
(lp532
g7
ag6
as((I14
I18
tp533
(I14
I17
tp534
tp535
(lp536
g6
ag7
as(g151
(I16
I18
tp537
tp538
(lp539
g6
ag7
as((I5
I11
tp540
(I5
I10
tp541
tp542
(lp543
g6
ag7
as((I11
I12
tp544
g13
tp545
(lp546
g6
ag6
as((I1
I10
tp547
(I1
I9
tp548
tp549
(lp550
g6
ag7
as((I4
I9
tp551
(I5
I9
tp552
tp553
(lp554
g7
ag6
as(g494
(I17
I18
tp555
tp556
(lp557
g6
ag7
as((I5
I18
tp558
(I5
I17
tp559
tp560
(lp561
g6
ag7
as((I2
I10
tp562
(I3
I10
tp563
tp564
(lp565
g7
ag6
as(g436
(I2
I7
tp566
tp567
(lp568
g7
ag6
as((I10
I15
tp569
(I10
I14
tp570
tp571
(lp572
g6
ag7
as((I0
I12
tp573
(I0
I11
tp574
tp575
(lp576
g6
ag7
as((I13
I14
tp577
g13
tp578
(lp579
g6
ag6
as(g562
(I2
I9
tp580
tp581
(lp582
g6
ag7
as((I1
I8
tp583
(I2
I8
tp584
tp585
(lp586
g7
ag6
as((I12
I20
tp587
(I13
I20
tp588
tp589
(lp590
g7
ag6
as((I6
I20
tp591
(I6
I19
tp592
tp593
(lp594
g88
ag7
as((I11
I17
tp595
(I12
I17
tp596
tp597
(lp598
g7
ag6
as((I0
I4
tp599
(I1
I4
tp600
tp601
(lp602
g7
ag88
as((I6
I19
tp603
(I6
I18
tp604
tp605
(lp606
g6
ag7
as((I2
I4
tp607
(I2
I3
tp608
tp609
(lp610
g6
ag7
as((I8
I16
tp611
(I9
I16
tp612
tp613
(lp614
g7
ag6
as((I2
I16
tp615
(I3
I16
tp616
tp617
(lp618
g7
ag6
as((I16
I18
tp619
(I16
I17
tp620
tp621
(lp622
g6
ag7
as((I10
I17
tp623
(I11
I17
tp624
tp625
(lp626
g7
ag6
as((I3
I11
tp627
(I4
I11
tp628
tp629
(lp630
g7
ag6
as(g490
(I1
I16
tp631
tp632
(lp633
g7
ag88
as(g440
(I1
I7
tp634
tp635
(lp636
g7
ag88
as((I17
I18
tp637
g13
tp638
(lp639
g6
ag6
as(g583
(I1
I7
tp640
tp641
(lp642
g6
ag7
as((I11
I13
tp643
(I12
I13
tp644
tp645
(lp646
g7
ag6
as(g368
(I0
I7
tp647
tp648
(lp649
g6
ag7
as((I11
I20
tp650
(I11
I19
tp651
tp652
(lp653
g88
ag7
as((I12
I16
tp654
(I13
I16
tp655
tp656
(lp657
g7
ag6
as((I10
I14
tp658
(I11
I14
tp659
tp660
(lp661
g7
ag6
as((I1
I20
tp662
(I1
I19
tp663
tp664
(lp665
g88
ag7
as(g507
(I3
I18
tp666
tp667
(lp668
g6
ag7
as((I6
I11
tp669
(I7
I11
tp670
tp671
(lp672
g7
ag6
as((I2
I3
tp673
g13
tp674
(lp675
g6
ag6
as(g273
(I9
I10
tp676
tp677
(lp678
g7
ag6
as((I6
I18
tp679
(I6
I17
tp680
tp681
(lp682
g6
ag7
as((I4
I13
tp683
(I5
I13
tp684
tp685
(lp686
g7
ag6
as(g93
(I1
I10
tp687
tp688
(lp689
g7
ag88
as((I1
I11
tp690
(I1
I10
tp691
tp692
(lp693
g6
ag7
as((I7
I11
tp694
(I7
I10
tp695
tp696
(lp697
g6
ag7
as(g40
(I10
I12
tp698
tp699
(lp700
g6
ag7
as(g304
(I8
I9
tp701
tp702
(lp703
g7
ag6
as(g547
(I2
I10
tp704
tp705
(lp706
g7
ag6
as(g166
(I4
I13
tp707
tp708
(lp709
g7
ag6
as((I10
I11
tp710
g13
tp711
(lp712
g6
ag6
as(g16
(I12
I14
tp713
tp714
(lp715
g6
ag7
as((I2
I5
tp716
(I2
I4
tp717
tp718
(lp719
g6
ag7
as((I2
I9
tp720
(I3
I9
tp721
tp722
(lp723
g7
ag6
as(g405
(I5
I6
tp724
tp725
(lp726
g6
ag7
as((I0
I11
tp727
(I1
I11
tp728
tp729
(lp730
g7
ag88
as(g20
(I1
I18
tp731
tp732
(lp733
g7
ag88
as((I2
I13
tp734
(I3
I13
tp735
tp736
(lp737
g7
ag6
as(g155
(I8
I11
tp738
tp739
(lp740
g6
ag7
as((I1
I3
tp741
(I1
I2
tp742
tp743
(lp744
g6
ag7
as((I1
I17
tp745
(I1
I16
tp746
tp747
(lp748
g6
ag7
as(g296
(I5
I15
tp749
tp750
(lp751
g7
ag6
as(g56
(I3
I18
tp752
tp753
(lp754
g7
ag6
as(g201
(I1
I14
tp755
tp756
(lp757
g6
ag7
as(g159
(I3
I9
tp758
tp759
(lp760
g6
ag7
as(g444
(I10
I19
tp761
tp762
(lp763
g7
ag6
as((I2
I11
tp764
(I2
I10
tp765
tp766
(lp767
g6
ag7
as((I4
I14
tp768
(I4
I13
tp769
tp770
(lp771
g6
ag7
as(g44
(I3
I19
tp772
tp773
(lp774
g7
ag6
as((I3
I8
tp775
(I3
I7
tp776
tp777
(lp778
g6
ag7
as((I14
I20
tp779
(I14
I19
tp780
tp781
(lp782
g88
ag7
as((I7
I18
tp783
(I7
I17
tp784
tp785
(lp786
g6
ag7
as(g623
(I10
I16
tp787
tp788
(lp789
g6
ag7
as(g364
(I8
I13
tp790
tp791
(lp792
g7
ag6
as((I9
I14
tp793
(I10
I14
tp794
tp795
(lp796
g7
ag6
as((I2
I7
tp797
(I3
I7
tp798
tp799
(lp800
g7
ag6
as(g217
(I9
I17
tp801
tp802
(lp803
g6
ag7
as((I9
I10
tp804
g13
tp805
(lp806
g6
ag6
as(g341
(I9
I11
tp807
tp808
(lp809
g7
ag6
as(g716
(I3
I5
tp810
tp811
(lp812
g7
ag6
as(g249
(I4
I14
tp813
tp814
(lp815
g7
ag6
as((I17
I20
tp816
(I17
I19
tp817
tp818
(lp819
g88
ag7
as(g127
(I4
I6
tp820
tp821
(lp822
g6
ag7
as(g36
(I4
I11
tp823
tp824
(lp825
g6
ag7
as((I15
I17
tp826
(I15
I16
tp827
tp828
(lp829
g6
ag7
as((I6
I15
tp830
(I7
I15
tp831
tp832
(lp833
g7
ag6
as(g482
(I2
I16
tp834
tp835
(lp836
g6
ag7
as((I0
I9
tp837
(I0
I8
tp838
tp839
(lp840
g6
ag7
as(g607
(I3
I4
tp841
tp842
(lp843
g7
ag6
as(g104
(I0
I19
tp844
tp845
(lp846
g88
ag7
as(g779
(I15
I20
tp847
tp848
(lp849
g7
ag6
as((I7
I15
tp850
(I7
I14
tp851
tp852
(lp853
g6
ag7
as((I1
I14
tp854
(I2
I14
tp855
tp856
(lp857
g7
ag6
as(g595
(I11
I16
tp858
tp859
(lp860
g6
ag7
as(g123
(I4
I9
tp861
tp862
(lp863
g7
ag6
as(g419
(I1
I6
tp864
tp865
(lp866
g7
ag88
as(g277
(I2
I13
tp867
tp868
(lp869
g7
ag6
as(g854
(I1
I13
tp870
tp871
(lp872
g6
ag7
as(g229
(I13
I15
tp873
tp874
(lp875
g6
ag7
as((I11
I18
tp876
(I12
I18
tp877
tp878
(lp879
g7
ag6
as(g454
(I2
I13
tp880
tp881
(lp882
g6
ag7
as((I14
I16
tp883
(I14
I15
tp884
tp885
(lp886
g6
ag7
as(g525
(I10
I16
tp887
tp888
(lp889
g7
ag6
as(g131
(I1
I4
tp890
tp891
(lp892
g6
ag7
as((I9
I12
tp893
(I10
I12
tp894
tp895
(lp896
g7
ag6
as(g337
(I9
I13
tp897
tp898
(lp899
g7
ag6
as((I8
I17
tp900
(I9
I17
tp901
tp902
(lp903
g7
ag6
as((I0
I3
tp904
(I1
I3
tp905
tp906
(lp907
g7
ag88
as(g643
(I11
I12
tp908
tp909
(lp910
g6
ag7
as(g558
(I6
I18
tp911
tp912
(lp913
g7
ag6
as(g2
(I1
I13
tp914
tp915
(lp916
g7
ag88
as((I8
I9
tp917
g13
tp918
(lp919
g6
ag6
as(g529
(I6
I7
tp920
tp921
(lp922
g6
ag7
as(g650
(I12
I20
tp923
tp924
(lp925
g7
ag6
as((I6
I14
tp926
(I6
I13
tp927
tp928
(lp929
g6
ag7
as(g569
(I11
I15
tp930
tp931
(lp932
g7
ag6
as(g300
(I6
I13
tp933
tp934
(lp935
g7
ag6
as(g319
(I5
I19
tp936
tp937
(lp938
g88
ag7
as(g432
(I5
I8
tp939
tp940
(lp941
g6
ag7
as(g741
(I2
I3
tp942
tp943
(lp944
g7
ag6
as(g139
(I4
I7
tp945
tp946
(lp947
g7
ag6
as((I0
I5
tp948
(I1
I5
tp949
tp950
(lp951
g7
ag88
as((I10
I12
tp952
(I10
I11
tp953
tp954
(lp955
g6
ag7
as(g237
(I15
I19
tp956
tp957
(lp958
g7
ag6
as((I10
I16
tp959
(I11
I16
tp960
tp961
(lp962
g7
ag6
as(g654
(I12
I15
tp963
tp964
(lp965
g6
ag7
as(g533
(I15
I18
tp966
tp967
(lp968
g7
ag6
as(g587
(I12
I19
tp969
tp970
(lp971
g88
ag7
as(g611
(I8
I15
tp972
tp973
(lp974
g6
ag7
as((I11
I14
tp975
(I11
I13
tp976
tp977
(lp978
g6
ag7
as(g308
(I7
I16
tp979
tp980
(lp981
g7
ag6
as((I5
I19
tp982
(I6
I19
tp983
tp984
(lp985
g7
ag6
as(g745
(I2
I17
tp986
tp987
(lp988
g7
ag6
as(g143
(I10
I19
tp989
tp990
(lp991
g88
ag7
as(g662
(I2
I20
tp992
tp993
(lp994
g7
ag6
as((I2
I8
tp995
(I2
I7
tp996
tp997
(lp998
g6
ag7
as(g734
(I2
I12
tp999
tp1000
(lp1001
g6
ag7
as(g233
(I2
I18
tp1002
tp1003
(lp1004
g7
ag6
as((I5
I16
tp1005
(I5
I15
tp1006
tp1007
(lp1008
g6
ag7
as((I6
I13
tp1009
(I6
I12
tp1010
tp1011
(lp1012
g6
ag7
as((I5
I8
tp1013
(I5
I7
tp1014
tp1015
(lp1016
g6
ag7
as(g394
(I1
I17
tp1017
tp1018
(lp1019
g7
ag88
as(g64
(I1
I14
tp1020
tp1021
(lp1022
g7
ag88
as(g694
(I8
I11
tp1023
tp1024
(lp1025
g7
ag6
as((I4
I19
tp1026
(I4
I18
tp1027
tp1028
(lp1029
g6
ag7
as(g386
(I9
I14
tp1030
tp1031
(lp1032
g7
ag6
as(g599
(I0
I3
tp1033
tp1034
(lp1035
g6
ag7
as(g170
(I9
I12
tp1036
tp1037
(lp1038
g6
ag7
as(g900
(I8
I16
tp1039
tp1040
(lp1041
g6
ag7
as(g486
(I15
I19
tp1042
tp1043
(lp1044
g88
ag7
as((I12
I13
tp1045
g13
tp1046
(lp1047
g6
ag6
as(g182
(I6
I14
tp1048
tp1049
(lp1050
g7
ag6
as(g768
(I5
I14
tp1051
tp1052
(lp1053
g7
ag6
as(g1013
(I6
I8
tp1054
tp1055
(lp1056
g7
ag6
as(g952
(I11
I12
tp1057
tp1058
(lp1059
g7
ag6
as(g658
(I10
I13
tp1060
tp1061
(lp1062
g6
ag7
as((I4
I11
tp1063
(I5
I11
tp1064
tp1065
(lp1066
g7
ag6
as(g830
(I6
I14
tp1067
tp1068
(lp1069
g6
ag7
as(g119
(I2
I19
tp1070
tp1071
(lp1072
g88
ag7
as((I15
I16
tp1073
g13
tp1074
(lp1075
g6
ag6
as(g390
(I4
I15
tp1076
tp1077
(lp1078
g7
ag6
as(g683
(I4
I12
tp1079
tp1080
(lp1081
g6
ag7
as(g540
(I6
I11
tp1082
tp1083
(lp1084
g7
ag6
as(g982
(I5
I18
tp1085
tp1086
(lp1087
g6
ag7
as(g213
(I4
I12
tp1088
tp1089
(lp1090
g7
ag6
as((I4
I20
tp1091
(I4
I19
tp1092
tp1093
(lp1094
g88
ag7
as(g415
(I4
I18
tp1095
tp1096
(lp1097
g7
ag6
as(g793
(I9
I13
tp1098
tp1099
(lp1100
g6
ag7
as(g679
(I7
I18
tp1101
tp1102
(lp1103
g7
ag6
as(g551
(I4
I8
tp1104
tp1105
(lp1106
g6
ag7
as((I5
I15
tp1107
(I6
I15
tp1108
tp1109
(lp1110
g7
ag6
as((I4
I16
tp1111
(I4
I15
tp1112
tp1113
(lp1114
g6
ag7
as((I13
I17
tp1115
(I14
I17
tp1116
tp1117
(lp1118
g7
ag6
as(g209
(I13
I17
tp1119
tp1120
(lp1121
g7
ag6
as(g48
(I16
I19
tp1122
tp1123
(lp1124
g88
ag7
as((I7
I16
tp1125
(I8
I16
tp1126
tp1127
(lp1128
g7
ag6
as((I3
I20
tp1129
(I4
I20
tp1130
tp1131
(lp1132
g7
ag6
as((I7
I20
tp1133
(I8
I20
tp1134
tp1135
(lp1136
g7
ag6
as(g521
(I2
I19
tp1137
tp1138
(lp1139
g7
ag6
as(g52
(I4
I9
tp1140
tp1141
(lp1142
g6
ag7
as(g1125
(I7
I15
tp1143
tp1144
(lp1145
g6
ag7
as(g627
(I3
I10
tp1146
tp1147
(lp1148
g6
ag7
as((I7
I19
tp1149
(I8
I19
tp1150
tp1151
(lp1152
g7
ag6
as((I14
I15
tp1153
g13
tp1154
(lp1155
g6
ag6
as(g764
(I3
I11
tp1156
tp1157
(lp1158
g7
ag6
as(g221
(I13
I18
tp1159
tp1160
(lp1161
g7
ag6
as(g353
(I2
I11
tp1162
tp1163
(lp1164
g6
ag7
as((I13
I18
tp1165
(I14
I18
tp1166
tp1167
(lp1168
g7
ag6
as(g1149
(I7
I18
tp1169
tp1170
(lp1171
g6
ag7
as((I12
I19
tp1172
(I12
I18
tp1173
tp1174
(lp1175
g6
ag7
as(g269
(I7
I17
tp1176
tp1177
(lp1178
g7
ag6
as(g285
(I6
I9
tp1179
tp1180
(lp1181
g6
ag7
as(g265
(I10
I11
tp1182
tp1183
(lp1184
g7
ag6
as(g975
(I12
I14
tp1185
tp1186
(lp1187
g7
ag6
as(g995
(I3
I8
tp1188
tp1189
(lp1190
g7
ag6
as(g893
(I9
I11
tp1191
tp1192
(lp1193
g6
ag7
as(g401
(I5
I17
tp1194
tp1195
(lp1196
g7
ag6
as(g1091
(I5
I20
tp1197
tp1198
(lp1199
g7
ag6
as((I18
I19
tp1200
g13
tp1201
(lp1202
g6
ag6
as((I19
I20
tp1203
g13
tp1204
(lp1205
g88
ag6
as(g1026
(I5
I19
tp1206
tp1207
(lp1208
g7
ag6
as(g850
(I8
I15
tp1209
tp1210
(lp1211
g7
ag6
as((I4
I5
tp1212
g13
tp1213
(lp1214
g6
ag6
as((I3
I6
tp1215
(I3
I5
tp1216
tp1217
(lp1218
g6
ag7
as(g591
(I7
I20
tp1219
tp1220
(lp1221
g7
ag6
as(g1111
(I5
I16
tp1222
tp1223
(lp1224
g7
ag6
as((I15
I19
tp1225
(I15
I18
tp1226
tp1227
(lp1228
g6
ag7
as(g72
(I5
I6
tp1229
tp1230
(lp1231
g7
ag6
as(g669
(I6
I10
tp1232
tp1233
(lp1234
g6
ag7
as(g253
(I13
I14
tp1235
tp1236
(lp1237
g7
ag6
as(g68
(I15
I17
tp1238
tp1239
(lp1240
g7
ag6
as(g468
(I3
I15
tp1241
tp1242
(lp1243
g7
ag6
as(g883
(I15
I16
tp1244
tp1245
(lp1246
g7
ag6
as(g837
(I1
I9
tp1247
tp1248
(lp1249
g7
ag88
as(g615
(I2
I15
tp1250
tp1251
(lp1252
g6
ag7
as(g461
(I4
I5
tp1253
tp1254
(lp1255
g7
ag6
as(g1215
(I4
I6
tp1256
tp1257
(lp1258
g7
ag6
as(g1107
(I5
I14
tp1259
tp1260
(lp1261
g6
ag7
as(g281
(I4
I16
tp1262
tp1263
(lp1264
g7
ag6
as((I1
I4
tp1265
(I1
I3
tp1266
tp1267
(lp1268
g6
ag7
as(g797
(I2
I6
tp1269
tp1270
(lp1271
g6
ag7
as(g1265
(I2
I4
tp1272
tp1273
(lp1274
g7
ag6
as(g948
(I0
I4
tp1275
tp1276
(lp1277
g6
ag7
as(g904
(I0
I2
tp1278
tp1279
(lp1280
g6
ag7
as(g60
(I9
I14
tp1281
tp1282
(lp1283
g6
ag7
as(g511
(I16
I18
tp1284
tp1285
(lp1286
g7
ag6
as(g1009
(I7
I13
tp1287
tp1288
(lp1289
g7
ag6
as(g826
(I16
I17
tp1290
tp1291
(lp1292
g7
ag6
as((I4
I18
tp1293
(I4
I17
tp1294
tp1295
(lp1296
g6
ag7
as(g312
(I19
I20
tp1297
tp1298
(lp1299
g7
ag6
as(g379
(I5
I11
tp1300
tp1301
(lp1302
g6
ag7
as(g1005
(I6
I16
tp1303
tp1304
(lp1305
g7
ag6
as(g261
(I1
I5
tp1306
tp1307
(lp1308
g6
ag7
as((I5
I6
tp1309
g13
tp1310
(lp1311
g6
ag6
as(g111
(I2
I9
tp1312
tp1313
(lp1314
g7
ag6
as(g727
(I0
I10
tp1315
tp1316
(lp1317
g6
ag7
as(g1165
(I13
I17
tp1318
tp1319
(lp1320
g6
ag7
as(g775
(I4
I8
tp1321
tp1322
(lp1323
g7
ag6
as(g115
(I1
I19
tp1324
tp1325
(lp1326
g7
ag88
as(g690
(I2
I11
tp1327
tp1328
(lp1329
g7
ag6
as(g1063
(I4
I10
tp1330
tp1331
(lp1332
g6
ag7
as(g619
(I17
I18
tp1333
tp1334
(lp1335
g7
ag6
as(g8
(I2
I5
tp1336
tp1337
(lp1338
g6
ag7
as(g333
(I11
I18
tp1339
tp1340
(lp1341
g6
ag7
as(g1293
(I5
I18
tp1342
tp1343
(lp1344
g7
ag6
as(g1129
(I3
I19
tp1345
tp1346
(lp1347
g88
ag7
as(g1133
(I7
I19
tp1348
tp1349
(lp1350
g88
ag7
as(g1115
(I13
I16
tp1351
tp1352
(lp1353
g6
ag7
as(g876
(I11
I17
tp1354
tp1355
(lp1356
g6
ag7
as(g603
(I7
I19
tp1357
tp1358
(lp1359
g7
ag6
as(g959
(I10
I15
tp1360
tp1361
(lp1362
g6
ag7
as(g926
(I7
I14
tp1363
tp1364
(lp1365
g7
ag6
as(g816
(I18
I20
tp1366
tp1367
(lp1368
g7
ag6
as(g375
(I1
I15
tp1369
tp1370
(lp1371
g7
ag88
as(g720
(I2
I8
tp1372
tp1373
(lp1374
g6
ag7
as(g573
(I1
I12
tp1375
tp1376
(lp1377
g7
ag88
as(g783
(I8
I18
tp1378
tp1379
(lp1380
g7
ag6
as(g1172
(I13
I19
tp1381
tp1382
(lp1383
g7
ag6
as((I11
I16
tp1384
(I12
I16
tp1385
tp1386
(lp1387
g7
ag6
as(g1384
(I11
I15
tp1388
tp1389
(lp1390
g6
ag7
as((I7
I8
tp1391
g13
tp1392
(lp1393
g6
ag6
as(g1225
(I16
I19
tp1394
tp1395
(lp1396
g7
ag6
as.