(dp1
((I5
I7
tp2
(I6
I7
tp3
tp4
(lp5
S'stack'
p6
aS'loop'
p7
as((I2
I6
tp8
(I3
I6
tp9
tp10
(lp11
g6
ag7
as((I0
I3
tp12
(I1
I3
tp13
tp14
(lp15
g6
aS'end'
p16
as((I0
I2
tp17
(I1
I2
tp18
tp19
(lp20
g6
ag16
as((I0
I6
tp21
(I0
I5
tp22
tp23
(lp24
g7
ag6
as((I1
I5
tp25
(I2
I5
tp26
tp27
(lp28
g6
ag7
as((I5
I10
tp29
(I5
I9
tp30
tp31
(lp32
g16
ag6
as((I5
I9
tp33
(I6
I9
tp34
tp35
(lp36
g6
ag7
as((I0
I7
tp37
(I0
I6
tp38
tp39
(lp40
g7
ag6
as((I7
I10
tp41
(I8
I10
tp42
tp43
(lp44
g6
ag7
as((I2
I7
tp45
(I3
I7
tp46
tp47
(lp48
g6
ag7
as((I9
I10
tp49
(I0
I0
tp50
tp51
(lp52
g16
ag7
as((I4
I10
tp53
(I5
I10
tp54
tp55
(lp56
g6
ag7
as((I2
I5
tp57
(I3
I5
tp58
tp59
(lp60
g6
ag7
as((I4
I7
tp61
(I4
I6
tp62
tp63
(lp64
g7
ag6
as((I4
I6
tp65
(I4
I5
tp66
tp67
(lp68
g7
ag6
as((I7
I9
tp69
(I7
I8
tp70
tp71
(lp72
g7
ag6
as((I0
I9
tp73
(I0
I8
tp74
tp75
(lp76
g7
ag6
as(g17
(I0
I1
tp77
tp78
(lp79
g7
ag6
as((I0
I10
tp80
(I0
I9
tp81
tp82
(lp83
g16
ag6
as((I3
I9
tp84
(I4
I9
tp85
tp86
(lp87
g6
ag7
as(g21
(I1
I6
tp88
tp89
(lp90
g6
ag16
as((I4
I8
tp91
(I5
I8
tp92
tp93
(lp94
g6
ag7
as((I3
I6
tp95
(I3
I5
tp96
tp97
(lp98
g7
ag6
as(g65
(I5
I6
tp99
tp100
(lp101
g6
ag7
as(g84
(I3
I8
tp102
tp103
(lp104
g7
ag6
as((I2
I4
tp105
(I2
I3
tp106
tp107
(lp108
g7
ag6
as(g61
(I5
I7
tp109
tp110
(lp111
g6
ag7
as((I3
I8
tp112
(I3
I7
tp113
tp114
(lp115
g7
ag6
as(g53
(I4
I9
tp116
tp117
(lp118
g16
ag6
as((I0
I1
tp119
(I0
I0
tp120
tp121
(lp122
g7
ag16
as((I3
I7
tp123
(I3
I6
tp124
tp125
(lp126
g7
ag6
as((I2
I9
tp127
(I2
I8
tp128
tp129
(lp130
g7
ag6
as((I6
I10
tp131
(I6
I9
tp132
tp133
(lp134
g16
ag6
as((I3
I10
tp135
(I3
I9
tp136
tp137
(lp138
g16
ag6
as((I2
I8
tp139
(I3
I8
tp140
tp141
(lp142
g6
ag7
as(g135
(I4
I10
tp143
tp144
(lp145
g6
ag7
as((I6
I8
tp146
(I6
I7
tp147
tp148
(lp149
g7
ag6
as((I4
I9
tp150
(I4
I8
tp151
tp152
(lp153
g7
ag6
as((I1
I10
tp154
(I1
I9
tp155
tp156
(lp157
g16
ag6
as((I4
I5
tp158
g50
tp159
(lp160
g7
ag7
as(g41
(I7
I9
tp161
tp162
(lp163
g16
ag6
as((I1
I3
tp164
(I2
I3
tp165
tp166
(lp167
g6
ag7
as((I2
I10
tp168
(I3
I10
tp169
tp170
(lp171
g6
ag7
as((I1
I7
tp172
(I2
I7
tp173
tp174
(lp175
g6
ag7
as(g123
(I4
I7
tp176
tp177
(lp178
g6
ag7
as((I1
I2
tp179
g50
tp180
(lp181
g7
ag7
as((I0
I5
tp182
(I1
I5
tp183
tp184
(lp185
g6
ag16
as((I6
I7
tp186
g50
tp187
(lp188
g7
ag7
as((I6
I9
tp189
(I7
I9
tp190
tp191
(lp192
g6
ag7
as(g168
(I2
I9
tp193
tp194
(lp195
g16
ag6
as(g131
(I7
I10
tp196
tp197
(lp198
g6
ag7
as((I1
I8
tp199
(I2
I8
tp200
tp201
(lp202
g6
ag7
as(g146
(I7
I8
tp203
tp204
(lp205
g6
ag7
as(g73
(I1
I9
tp206
tp207
(lp208
g6
ag16
as(g91
(I4
I7
tp209
tp210
(lp211
g7
ag6
as((I3
I5
tp212
(I4
I5
tp213
tp214
(lp215
g6
ag7
as(g150
(I5
I9
tp216
tp217
(lp218
g6
ag7
as(g95
(I4
I6
tp219
tp220
(lp221
g6
ag7
as((I0
I4
tp222
(I1
I4
tp223
tp224
(lp225
g6
ag16
as((I1
I4
tp226
(I1
I3
tp227
tp228
(lp229
g7
ag6
as(g45
(I2
I6
tp230
tp231
(lp232
g7
ag6
as((I1
I6
tp233
(I1
I5
tp234
tp235
(lp236
g7
ag6
as(g226
(I2
I4
tp237
tp238
(lp239
g6
ag7
as(g105
(I3
I4
tp240
tp241
(lp242
g6
ag7
as(g233
(I2
I6
tp243
tp244
(lp245
g6
ag7
as(g12
(I0
I2
tp246
tp247
(lp248
g7
ag6
as((I8
I10
tp249
(I8
I9
tp250
tp251
(lp252
g16
ag6
as(g37
(I1
I7
tp253
tp254
(lp255
g6
ag16
as(g189
(I6
I8
tp256
tp257
(lp258
g7
ag6
as(g29
(I6
I10
tp259
tp260
(lp261
g6
ag7
as(g199
(I1
I7
tp262
tp263
(lp264
g7
ag6
as((I0
I8
tp265
(I0
I7
tp266
tp267
(lp268
g7
ag6
as((I8
I9
tp269
g50
tp270
(lp271
g7
ag7
as((I1
I9
tp272
(I2
I9
tp273
tp274
(lp275
g6
ag7
as(g33
(I5
I8
tp276
tp277
(lp278
g7
ag6
as(g112
(I4
I8
tp279
tp280
(lp281
g6
ag7
as(g212
(I3
I4
tp282
tp283
(lp284
g7
ag6
as(g139
(I2
I7
tp285
tp286
(lp287
g7
ag6
as((I2
I3
tp288
g50
tp289
(lp290
g7
ag7
as(g182
(I0
I4
tp291
tp292
(lp293
g7
ag6
as(g249
(I9
I10
tp294
tp295
(lp296
g6
ag7
as((I5
I8
tp297
(I5
I7
tp298
tp299
(lp300
g7
ag6
as((I3
I4
tp301
g50
tp302
(lp303
g7
ag7
as(g8
(I2
I5
tp304
tp305
(lp306
g7
ag6
as(g80
(I1
I10
tp307
tp308
(lp309
g6
ag16
as(g25
(I1
I4
tp310
tp311
(lp312
g7
ag6
as(g69
(I8
I9
tp313
tp314
(lp315
g6
ag7
as(g154
(I2
I10
tp316
tp317
(lp318
g6
ag7
as(g172
(I1
I6
tp319
tp320
(lp321
g7
ag6
as(g222
(I0
I3
tp322
tp323
(lp324
g7
ag6
as(g57
(I2
I4
tp325
tp326
(lp327
g7
ag6
as(g127
(I3
I9
tp328
tp329
(lp330
g6
ag7
as(g2
(I5
I6
tp331
tp332
(lp333
g7
ag6
as(g265
(I1
I8
tp334
tp335
(lp336
g6
ag16
as((I5
I6
tp337
g50
tp338
(lp339
g7
ag7
as(g272
(I1
I8
tp340
tp341
(lp342
g7
ag6
as(g297
(I6
I8
tp343
tp344
(lp345
g6
ag7
as(g164
(I1
I2
tp346
tp347
(lp348
g7
ag6
as((I7
I8
tp349
g50
tp350
(lp351
g7
ag7
as.