(lp1
(I0
I0
I1
I21
tp2
a(I0
I1
I1
I21
tp3
a(I0
I1
I2
I21
tp4
a(I0
I1
I1
I20
tp5
a(I0
I2
I2
I21
tp6
a(I0
I1
I2
I20
tp7
a(I0
I1
I1
I19
tp8
a(I0
I0
I1
I20
tp9
a(I0
I2
I3
I21
tp10
a(I0
I2
I2
I20
tp11
a(I0
I1
I2
I19
tp12
a(I0
I1
I1
I18
tp13
a(I0
I0
I1
I19
tp14
a(I0
I3
I3
I21
tp15
a(I0
I2
I3
I20
tp16
a(I0
I2
I2
I19
tp17
a(I0
I1
I2
I18
tp18
a(I0
I1
I1
I17
tp19
a(I0
I0
I1
I18
tp20
a(I0
I3
I4
I21
tp21
a(I0
I3
I3
I20
tp22
a(I0
I2
I3
I19
tp23
a(I0
I2
I2
I18
tp24
a(I0
I1
I2
I17
tp25
a(I0
I1
I1
I16
tp26
a(I0
I0
I1
I17
tp27
a(I0
I4
I4
I21
tp28
a(I0
I3
I4
I20
tp29
a(I0
I3
I3
I19
tp30
a(I0
I2
I3
I18
tp31
a(I0
I2
I2
I17
tp32
a(I0
I1
I2
I16
tp33
a(I0
I1
I1
I15
tp34
a(I0
I0
I1
I16
tp35
a(I0
I4
I5
I21
tp36
a(I0
I4
I4
I20
tp37
a(I0
I3
I4
I19
tp38
a(I0
I3
I3
I18
tp39
a(I0
I2
I3
I17
tp40
a(I0
I2
I2
I16
tp41
a(I0
I1
I2
I15
tp42
a(I0
I1
I1
I14
tp43
a(I0
I0
I1
I15
tp44
a(I0
I5
I5
I21
tp45
a(I0
I4
I5
I20
tp46
a(I0
I4
I4
I19
tp47
a(I0
I3
I4
I18
tp48
a(I0
I3
I3
I17
tp49
a(I0
I2
I3
I16
tp50
a(I0
I2
I2
I15
tp51
a(I0
I1
I2
I14
tp52
a(I0
I1
I1
I13
tp53
a(I0
I0
I1
I14
tp54
a(I0
I5
I6
I21
tp55
a(I0
I5
I5
I20
tp56
a(I0
I4
I5
I19
tp57
a(I0
I4
I4
I18
tp58
a(I0
I3
I4
I17
tp59
a(I0
I3
I3
I16
tp60
a(I0
I2
I3
I15
tp61
a(I0
I2
I2
I14
tp62
a(I0
I1
I2
I13
tp63
a(I0
I1
I1
I12
tp64
a(I0
I0
I1
I13
tp65
a(I0
I6
I6
I21
tp66
a(I0
I5
I6
I20
tp67
a(I0
I5
I5
I19
tp68
a(I0
I4
I5
I18
tp69
a(I0
I4
I4
I17
tp70
a(I0
I3
I4
I16
tp71
a(I0
I3
I3
I15
tp72
a(I0
I2
I3
I14
tp73
a(I0
I2
I2
I13
tp74
a(I0
I1
I2
I12
tp75
a(I0
I1
I1
I11
tp76
a(I0
I0
I1
I12
tp77
a(I0
I6
I7
I21
tp78
a(I0
I6
I6
I20
tp79
a(I0
I5
I6
I19
tp80
a(I0
I5
I5
I18
tp81
a(I0
I4
I5
I17
tp82
a(I0
I4
I4
I16
tp83
a(I0
I3
I4
I15
tp84
a(I0
I3
I3
I14
tp85
a(I0
I2
I3
I13
tp86
a(I0
I2
I2
I12
tp87
a(I0
I1
I2
I11
tp88
a(I0
I1
I1
I10
tp89
a(I0
I0
I1
I11
tp90
a(I0
I7
I7
I21
tp91
a(I0
I6
I7
I20
tp92
a(I0
I6
I6
I19
tp93
a(I0
I5
I6
I18
tp94
a(I0
I5
I5
I17
tp95
a(I0
I4
I5
I16
tp96
a(I0
I4
I4
I15
tp97
a(I0
I3
I4
I14
tp98
a(I0
I3
I3
I13
tp99
a(I0
I2
I3
I12
tp100
a(I0
I2
I2
I11
tp101
a(I0
I1
I2
I10
tp102
a(I0
I1
I1
I9
tp103
a(I0
I0
I1
I10
tp104
a(I0
I7
I8
I21
tp105
a(I0
I7
I7
I20
tp106
a(I0
I6
I7
I19
tp107
a(I0
I6
I6
I18
tp108
a(I0
I5
I6
I17
tp109
a(I0
I5
I5
I16
tp110
a(I0
I4
I5
I15
tp111
a(I0
I4
I4
I14
tp112
a(I0
I3
I4
I13
tp113
a(I0
I3
I3
I12
tp114
a(I0
I2
I3
I11
tp115
a(I0
I2
I2
I10
tp116
a(I0
I1
I2
I9
tp117
a(I0
I1
I1
I8
tp118
a(I0
I0
I1
I9
tp119
a(I0
I8
I8
I21
tp120
a(I0
I7
I8
I20
tp121
a(I0
I7
I7
I19
tp122
a(I0
I6
I7
I18
tp123
a(I0
I6
I6
I17
tp124
a(I0
I5
I6
I16
tp125
a(I0
I5
I5
I15
tp126
a(I0
I4
I5
I14
tp127
a(I0
I4
I4
I13
tp128
a(I0
I3
I4
I12
tp129
a(I0
I3
I3
I11
tp130
a(I0
I2
I3
I10
tp131
a(I0
I2
I2
I9
tp132
a(I0
I1
I2
I8
tp133
a(I0
I1
I1
I7
tp134
a(I0
I0
I1
I8
tp135
a(I0
I8
I9
I21
tp136
a(I0
I8
I8
I20
tp137
a(I0
I7
I8
I19
tp138
a(I0
I7
I7
I18
tp139
a(I0
I6
I7
I17
tp140
a(I0
I6
I6
I16
tp141
a(I0
I5
I6
I15
tp142
a(I0
I5
I5
I14
tp143
a(I0
I4
I5
I13
tp144
a(I0
I4
I4
I12
tp145
a(I0
I3
I4
I11
tp146
a(I0
I3
I3
I10
tp147
a(I0
I2
I3
I9
tp148
a(I0
I2
I2
I8
tp149
a(I0
I1
I2
I7
tp150
a(I0
I1
I1
I6
tp151
a(I0
I0
I1
I7
tp152
a(I0
I9
I9
I21
tp153
a(I0
I8
I9
I20
tp154
a(I0
I8
I8
I19
tp155
a(I0
I7
I8
I18
tp156
a(I0
I7
I7
I17
tp157
a(I0
I6
I7
I16
tp158
a(I0
I6
I6
I15
tp159
a(I0
I5
I6
I14
tp160
a(I0
I5
I5
I13
tp161
a(I0
I4
I5
I12
tp162
a(I0
I4
I4
I11
tp163
a(I0
I3
I4
I10
tp164
a(I0
I3
I3
I9
tp165
a(I0
I2
I3
I8
tp166
a(I0
I2
I2
I7
tp167
a(I0
I1
I2
I6
tp168
a(I0
I1
I1
I5
tp169
a(I0
I0
I1
I6
tp170
a(I0
I9
I10
I21
tp171
a(I0
I9
I9
I20
tp172
a(I0
I8
I9
I19
tp173
a(I0
I8
I8
I18
tp174
a(I0
I7
I8
I17
tp175
a(I0
I7
I7
I16
tp176
a(I0
I6
I7
I15
tp177
a(I0
I6
I6
I14
tp178
a(I0
I5
I6
I13
tp179
a(I0
I5
I5
I12
tp180
a(I0
I4
I5
I11
tp181
a(I0
I4
I4
I10
tp182
a(I0
I3
I4
I9
tp183
a(I0
I3
I3
I8
tp184
a(I0
I2
I3
I7
tp185
a(I0
I2
I2
I6
tp186
a(I0
I1
I2
I5
tp187
a(I0
I1
I1
I4
tp188
a(I0
I0
I1
I5
tp189
a(I0
I10
I10
I21
tp190
a(I0
I9
I10
I20
tp191
a(I0
I9
I9
I19
tp192
a(I0
I8
I9
I18
tp193
a(I0
I8
I8
I17
tp194
a(I0
I7
I8
I16
tp195
a(I0
I7
I7
I15
tp196
a(I0
I6
I7
I14
tp197
a(I0
I6
I6
I13
tp198
a(I0
I5
I6
I12
tp199
a(I0
I5
I5
I11
tp200
a(I0
I4
I5
I10
tp201
a(I0
I4
I4
I9
tp202
a(I0
I3
I4
I8
tp203
a(I0
I3
I3
I7
tp204
a(I0
I2
I3
I6
tp205
a(I0
I2
I2
I5
tp206
a(I0
I1
I2
I4
tp207
a(I0
I1
I1
I3
tp208
a(I0
I0
I1
I4
tp209
a(I0
I10
I11
I21
tp210
a(I0
I10
I10
I20
tp211
a(I0
I9
I10
I19
tp212
a(I0
I9
I9
I18
tp213
a(I0
I8
I9
I17
tp214
a(I0
I8
I8
I16
tp215
a(I0
I7
I8
I15
tp216
a(I0
I7
I7
I14
tp217
a(I0
I6
I7
I13
tp218
a(I0
I6
I6
I12
tp219
a(I0
I5
I6
I11
tp220
a(I0
I5
I5
I10
tp221
a(I0
I4
I5
I9
tp222
a(I0
I4
I4
I8
tp223
a(I0
I3
I4
I7
tp224
a(I0
I3
I3
I6
tp225
a(I0
I2
I3
I5
tp226
a(I0
I2
I2
I4
tp227
a(I0
I1
I2
I3
tp228
a(I0
I1
I1
I2
tp229
a(I0
I0
I1
I3
tp230
a(I0
I11
I11
I21
tp231
a(I0
I10
I11
I20
tp232
a(I0
I10
I10
I19
tp233
a(I0
I9
I10
I18
tp234
a(I0
I9
I9
I17
tp235
a(I0
I8
I9
I16
tp236
a(I0
I8
I8
I15
tp237
a(I0
I7
I8
I14
tp238
a(I0
I7
I7
I13
tp239
a(I0
I6
I7
I12
tp240
a(I0
I6
I6
I11
tp241
a(I0
I5
I6
I10
tp242
a(I0
I5
I5
I9
tp243
a(I0
I4
I5
I8
tp244
a(I0
I4
I4
I7
tp245
a(I0
I3
I4
I6
tp246
a(I0
I3
I3
I5
tp247
a(I0
I2
I3
I4
tp248
a(I0
I2
I2
I3
tp249
a(I0
I0
I1
I2
tp250
a(I0
I11
I12
I21
tp251
a(I0
I11
I11
I20
tp252
a(I0
I10
I11
I19
tp253
a(I0
I10
I10
I18
tp254
a(I0
I9
I10
I17
tp255
a(I0
I9
I9
I16
tp256
a(I0
I8
I9
I15
tp257
a(I0
I8
I8
I14
tp258
a(I0
I7
I8
I13
tp259
a(I0
I7
I7
I12
tp260
a(I0
I6
I7
I11
tp261
a(I0
I6
I6
I10
tp262
a(I0
I5
I6
I9
tp263
a(I0
I5
I5
I8
tp264
a(I0
I4
I5
I7
tp265
a(I0
I4
I4
I6
tp266
a(I0
I3
I4
I5
tp267
a(I0
I3
I3
I4
tp268
a(I0
I12
I12
I21
tp269
a(I0
I11
I12
I20
tp270
a(I0
I11
I11
I19
tp271
a(I0
I10
I11
I18
tp272
a(I0
I10
I10
I17
tp273
a(I0
I9
I10
I16
tp274
a(I0
I9
I9
I15
tp275
a(I0
I8
I9
I14
tp276
a(I0
I8
I8
I13
tp277
a(I0
I7
I8
I12
tp278
a(I0
I7
I7
I11
tp279
a(I0
I6
I7
I10
tp280
a(I0
I6
I6
I9
tp281
a(I0
I5
I6
I8
tp282
a(I0
I5
I5
I7
tp283
a(I0
I4
I5
I6
tp284
a(I0
I4
I4
I5
tp285
a(I0
I12
I13
I21
tp286
a(I0
I12
I12
I20
tp287
a(I0
I11
I12
I19
tp288
a(I0
I11
I11
I18
tp289
a(I0
I10
I11
I17
tp290
a(I0
I10
I10
I16
tp291
a(I0
I9
I10
I15
tp292
a(I0
I9
I9
I14
tp293
a(I0
I8
I9
I13
tp294
a(I0
I8
I8
I12
tp295
a(I0
I7
I8
I11
tp296
a(I0
I7
I7
I10
tp297
a(I0
I6
I7
I9
tp298
a(I0
I6
I6
I8
tp299
a(I0
I5
I6
I7
tp300
a(I0
I5
I5
I6
tp301
a(I0
I13
I13
I21
tp302
a(I0
I12
I13
I20
tp303
a(I0
I12
I12
I19
tp304
a(I0
I11
I12
I18
tp305
a(I0
I11
I11
I17
tp306
a(I0
I10
I11
I16
tp307
a(I0
I10
I10
I15
tp308
a(I0
I9
I10
I14
tp309
a(I0
I9
I9
I13
tp310
a(I0
I8
I9
I12
tp311
a(I0
I8
I8
I11
tp312
a(I0
I7
I8
I10
tp313
a(I0
I7
I7
I9
tp314
a(I0
I6
I7
I8
tp315
a(I0
I6
I6
I7
tp316
a(I0
I13
I14
I21
tp317
a(I0
I13
I13
I20
tp318
a(I0
I12
I13
I19
tp319
a(I0
I12
I12
I18
tp320
a(I0
I11
I12
I17
tp321
a(I0
I11
I11
I16
tp322
a(I0
I10
I11
I15
tp323
a(I0
I10
I10
I14
tp324
a(I0
I9
I10
I13
tp325
a(I0
I9
I9
I12
tp326
a(I0
I8
I9
I11
tp327
a(I0
I8
I8
I10
tp328
a(I0
I7
I8
I9
tp329
a(I0
I7
I7
I8
tp330
a(I0
I14
I14
I21
tp331
a(I0
I13
I14
I20
tp332
a(I0
I13
I13
I19
tp333
a(I0
I12
I13
I18
tp334
a(I0
I12
I12
I17
tp335
a(I0
I11
I12
I16
tp336
a(I0
I11
I11
I15
tp337
a(I0
I10
I11
I14
tp338
a(I0
I10
I10
I13
tp339
a(I0
I9
I10
I12
tp340
a(I0
I9
I9
I11
tp341
a(I0
I8
I9
I10
tp342
a(I0
I8
I8
I9
tp343
a(I0
I14
I15
I21
tp344
a(I0
I14
I14
I20
tp345
a(I0
I13
I14
I19
tp346
a(I0
I13
I13
I18
tp347
a(I0
I12
I13
I17
tp348
a(I0
I12
I12
I16
tp349
a(I0
I11
I12
I15
tp350
a(I0
I11
I11
I14
tp351
a(I0
I10
I11
I13
tp352
a(I0
I10
I10
I12
tp353
a(I0
I9
I10
I11
tp354
a(I0
I9
I9
I10
tp355
a(I0
I15
I15
I21
tp356
a(I0
I14
I15
I20
tp357
a(I0
I14
I14
I19
tp358
a(I0
I13
I14
I18
tp359
a(I0
I13
I13
I17
tp360
a(I0
I12
I13
I16
tp361
a(I0
I12
I12
I15
tp362
a(I0
I11
I12
I14
tp363
a(I0
I11
I11
I13
tp364
a(I0
I10
I11
I12
tp365
a(I0
I10
I10
I11
tp366
a(I0
I15
I16
I21
tp367
a(I0
I15
I15
I20
tp368
a(I0
I14
I15
I19
tp369
a(I0
I14
I14
I18
tp370
a(I0
I13
I14
I17
tp371
a(I0
I13
I13
I16
tp372
a(I0
I12
I13
I15
tp373
a(I0
I12
I12
I14
tp374
a(I0
I11
I12
I13
tp375
a(I0
I11
I11
I12
tp376
a(I0
I16
I16
I21
tp377
a(I0
I15
I16
I20
tp378
a(I0
I15
I15
I19
tp379
a(I0
I14
I15
I18
tp380
a(I0
I14
I14
I17
tp381
a(I0
I13
I14
I16
tp382
a(I0
I13
I13
I15
tp383
a(I0
I12
I13
I14
tp384
a(I0
I12
I12
I13
tp385
a(I0
I16
I17
I21
tp386
a(I0
I16
I16
I20
tp387
a(I0
I15
I16
I19
tp388
a(I0
I15
I15
I18
tp389
a(I0
I14
I15
I17
tp390
a(I0
I14
I14
I16
tp391
a(I0
I13
I14
I15
tp392
a(I0
I13
I13
I14
tp393
a(I0
I17
I17
I21
tp394
a(I0
I16
I17
I20
tp395
a(I0
I16
I16
I19
tp396
a(I0
I15
I16
I18
tp397
a(I0
I15
I15
I17
tp398
a(I0
I14
I15
I16
tp399
a(I0
I14
I14
I15
tp400
a(I0
I17
I18
I21
tp401
a(I0
I17
I17
I20
tp402
a(I0
I16
I17
I19
tp403
a(I0
I16
I16
I18
tp404
a(I0
I15
I16
I17
tp405
a(I0
I15
I15
I16
tp406
a(I0
I18
I18
I21
tp407
a(I0
I17
I18
I20
tp408
a(I0
I17
I17
I19
tp409
a(I0
I16
I17
I18
tp410
a(I0
I16
I16
I17
tp411
a(I0
I18
I19
I21
tp412
a(I0
I18
I18
I20
tp413
a(I0
I17
I18
I19
tp414
a(I0
I17
I17
I18
tp415
a(I0
I19
I19
I21
tp416
a(I0
I18
I19
I20
tp417
a(I0
I18
I18
I19
tp418
a(I0
I19
I20
I21
tp419
a(I0
I19
I19
I20
tp420
a(I0
I20
I20
I21
tp421
a(I0
I20
I21
I21
tp422
a(I0
I21
I21
I21
tp423
a.