(lp1
(I0
I0
I5
I25
tp2
a(I0
I1
I5
I25
tp3
a(I1
I2
I5
I25
tp4
a(I2
I3
I5
I25
tp5
a(I3
I4
I5
I25
tp6
a(I4
I5
I5
I25
tp7
a(I0
I2
I5
I25
tp8
a(I0
I1
I5
I24
tp9
a(I1
I3
I5
I25
tp10
a(I1
I2
I5
I24
tp11
a(I2
I4
I5
I25
tp12
a(I2
I3
I5
I24
tp13
a(I3
I5
I5
I25
tp14
a(I3
I4
I5
I24
tp15
a(I4
I5
I5
I24
tp16
a(I0
I3
I5
I25
tp17
a(I0
I2
I5
I24
tp18
a(I0
I1
I5
I23
tp19
a(I0
I0
I5
I24
tp20
a(I1
I4
I5
I25
tp21
a(I1
I3
I5
I24
tp22
a(I1
I2
I5
I23
tp23
a(I2
I5
I5
I25
tp24
a(I2
I4
I5
I24
tp25
a(I2
I3
I5
I23
tp26
a(I3
I5
I5
I24
tp27
a(I3
I4
I5
I23
tp28
a(I4
I5
I5
I23
tp29
a(I0
I4
I5
I25
tp30
a(I0
I3
I5
I24
tp31
a(I0
I2
I5
I23
tp32
a(I0
I1
I5
I22
tp33
a(I0
I0
I5
I23
tp34
a(I1
I5
I5
I25
tp35
a(I1
I4
I5
I24
tp36
a(I1
I3
I5
I23
tp37
a(I1
I2
I5
I22
tp38
a(I2
I5
I5
I24
tp39
a(I2
I4
I5
I23
tp40
a(I2
I3
I5
I22
tp41
a(I3
I5
I5
I23
tp42
a(I3
I4
I5
I22
tp43
a(I4
I5
I5
I22
tp44
a(I0
I5
I5
I25
tp45
a(I0
I4
I5
I24
tp46
a(I0
I3
I5
I23
tp47
a(I0
I2
I5
I22
tp48
a(I0
I1
I5
I21
tp49
a(I0
I0
I5
I22
tp50
a(I1
I5
I5
I24
tp51
a(I1
I4
I5
I23
tp52
a(I1
I3
I5
I22
tp53
a(I1
I2
I5
I21
tp54
a(I2
I5
I5
I23
tp55
a(I2
I4
I5
I22
tp56
a(I2
I3
I5
I21
tp57
a(I3
I5
I5
I22
tp58
a(I3
I4
I5
I21
tp59
a(I4
I5
I5
I21
tp60
a(I0
I5
I6
I25
tp61
a(I0
I5
I5
I24
tp62
a(I0
I4
I5
I23
tp63
a(I0
I3
I5
I22
tp64
a(I0
I2
I5
I21
tp65
a(I0
I1
I5
I20
tp66
a(I0
I0
I5
I21
tp67
a(I1
I5
I5
I23
tp68
a(I1
I4
I5
I22
tp69
a(I1
I3
I5
I21
tp70
a(I1
I2
I5
I20
tp71
a(I2
I5
I5
I22
tp72
a(I2
I4
I5
I21
tp73
a(I2
I3
I5
I20
tp74
a(I3
I5
I5
I21
tp75
a(I3
I4
I5
I20
tp76
a(I4
I5
I5
I20
tp77
a(I0
I6
I6
I25
tp78
a(I0
I5
I6
I24
tp79
a(I0
I5
I5
I23
tp80
a(I0
I4
I5
I22
tp81
a(I0
I3
I5
I21
tp82
a(I0
I2
I5
I20
tp83
a(I0
I1
I5
I19
tp84
a(I0
I0
I5
I20
tp85
a(I1
I5
I5
I22
tp86
a(I1
I4
I5
I21
tp87
a(I1
I3
I5
I20
tp88
a(I1
I2
I5
I19
tp89
a(I2
I5
I5
I21
tp90
a(I2
I4
I5
I20
tp91
a(I2
I3
I5
I19
tp92
a(I3
I5
I5
I20
tp93
a(I3
I4
I5
I19
tp94
a(I4
I5
I5
I19
tp95
a(I0
I6
I7
I25
tp96
a(I0
I6
I6
I24
tp97
a(I0
I5
I6
I23
tp98
a(I0
I5
I5
I22
tp99
a(I0
I4
I5
I21
tp100
a(I0
I3
I5
I20
tp101
a(I0
I2
I5
I19
tp102
a(I0
I1
I5
I18
tp103
a(I0
I0
I5
I19
tp104
a(I1
I5
I5
I21
tp105
a(I1
I4
I5
I20
tp106
a(I1
I3
I5
I19
tp107
a(I1
I2
I5
I18
tp108
a(I2
I5
I5
I20
tp109
a(I2
I4
I5
I19
tp110
a(I2
I3
I5
I18
tp111
a(I3
I5
I5
I19
tp112
a(I3
I4
I5
I18
tp113
a(I4
I5
I5
I18
tp114
a(I0
I7
I7
I25
tp115
a(I0
I6
I7
I24
tp116
a(I0
I6
I6
I23
tp117
a(I0
I5
I6
I22
tp118
a(I0
I5
I5
I21
tp119
a(I0
I4
I5
I20
tp120
a(I0
I3
I5
I19
tp121
a(I0
I2
I5
I18
tp122
a(I0
I1
I5
I17
tp123
a(I0
I0
I5
I18
tp124
a(I1
I5
I5
I20
tp125
a(I1
I4
I5
I19
tp126
a(I1
I3
I5
I18
tp127
a(I1
I2
I5
I17
tp128
a(I2
I5
I5
I19
tp129
a(I2
I4
I5
I18
tp130
a(I2
I3
I5
I17
tp131
a(I3
I5
I5
I18
tp132
a(I3
I4
I5
I17
tp133
a(I4
I5
I5
I17
tp134
a(I0
I7
I8
I25
tp135
a(I0
I7
I7
I24
tp136
a(I0
I6
I7
I23
tp137
a(I0
I6
I6
I22
tp138
a(I0
I5
I6
I21
tp139
a(I0
I5
I5
I20
tp140
a(I0
I4
I5
I19
tp141
a(I0
I3
I5
I18
tp142
a(I0
I2
I5
I17
tp143
a(I0
I1
I5
I16
tp144
a(I0
I0
I5
I17
tp145
a(I1
I5
I5
I19
tp146
a(I1
I4
I5
I18
tp147
a(I1
I3
I5
I17
tp148
a(I1
I2
I5
I16
tp149
a(I2
I5
I5
I18
tp150
a(I2
I4
I5
I17
tp151
a(I2
I3
I5
I16
tp152
a(I3
I5
I5
I17
tp153
a(I3
I4
I5
I16
tp154
a(I4
I5
I5
I16
tp155
a(I0
I8
I8
I25
tp156
a(I0
I7
I8
I24
tp157
a(I0
I7
I7
I23
tp158
a(I0
I6
I7
I22
tp159
a(I0
I6
I6
I21
tp160
a(I0
I5
I6
I20
tp161
a(I0
I5
I5
I19
tp162
a(I0
I4
I5
I18
tp163
a(I0
I3
I5
I17
tp164
a(I0
I2
I5
I16
tp165
a(I0
I1
I5
I15
tp166
a(I0
I0
I5
I16
tp167
a(I1
I5
I5
I18
tp168
a(I1
I4
I5
I17
tp169
a(I1
I3
I5
I16
tp170
a(I1
I2
I5
I15
tp171
a(I2
I5
I5
I17
tp172
a(I2
I4
I5
I16
tp173
a(I2
I3
I5
I15
tp174
a(I3
I5
I5
I16
tp175
a(I3
I4
I5
I15
tp176
a(I4
I5
I5
I15
tp177
a(I0
I8
I9
I25
tp178
a(I0
I8
I8
I24
tp179
a(I0
I7
I8
I23
tp180
a(I0
I7
I7
I22
tp181
a(I0
I6
I7
I21
tp182
a(I0
I6
I6
I20
tp183
a(I0
I5
I6
I19
tp184
a(I0
I5
I5
I18
tp185
a(I0
I4
I5
I17
tp186
a(I0
I3
I5
I16
tp187
a(I0
I2
I5
I15
tp188
a(I0
I1
I5
I14
tp189
a(I0
I0
I5
I15
tp190
a(I1
I5
I5
I17
tp191
a(I1
I4
I5
I16
tp192
a(I1
I3
I5
I15
tp193
a(I1
I2
I5
I14
tp194
a(I2
I5
I5
I16
tp195
a(I2
I4
I5
I15
tp196
a(I2
I3
I5
I14
tp197
a(I3
I5
I5
I15
tp198
a(I3
I4
I5
I14
tp199
a(I4
I5
I5
I14
tp200
a(I0
I9
I9
I25
tp201
a(I0
I8
I9
I24
tp202
a(I0
I8
I8
I23
tp203
a(I0
I7
I8
I22
tp204
a(I0
I7
I7
I21
tp205
a(I0
I6
I7
I20
tp206
a(I0
I6
I6
I19
tp207
a(I0
I5
I6
I18
tp208
a(I0
I5
I5
I17
tp209
a(I0
I4
I5
I16
tp210
a(I0
I3
I5
I15
tp211
a(I0
I2
I5
I14
tp212
a(I0
I1
I5
I13
tp213
a(I0
I0
I5
I14
tp214
a(I1
I5
I5
I16
tp215
a(I1
I4
I5
I15
tp216
a(I1
I3
I5
I14
tp217
a(I1
I2
I5
I13
tp218
a(I2
I5
I5
I15
tp219
a(I2
I4
I5
I14
tp220
a(I2
I3
I5
I13
tp221
a(I3
I5
I5
I14
tp222
a(I3
I4
I5
I13
tp223
a(I4
I5
I5
I13
tp224
a(I0
I9
I10
I25
tp225
a(I0
I9
I9
I24
tp226
a(I0
I8
I9
I23
tp227
a(I0
I8
I8
I22
tp228
a(I0
I7
I8
I21
tp229
a(I0
I7
I7
I20
tp230
a(I0
I6
I7
I19
tp231
a(I0
I6
I6
I18
tp232
a(I0
I5
I6
I17
tp233
a(I0
I5
I5
I16
tp234
a(I0
I4
I5
I15
tp235
a(I0
I3
I5
I14
tp236
a(I0
I2
I5
I13
tp237
a(I0
I1
I5
I12
tp238
a(I0
I0
I5
I13
tp239
a(I1
I5
I5
I15
tp240
a(I1
I4
I5
I14
tp241
a(I1
I3
I5
I13
tp242
a(I1
I2
I5
I12
tp243
a(I2
I5
I5
I14
tp244
a(I2
I4
I5
I13
tp245
a(I2
I3
I5
I12
tp246
a(I3
I5
I5
I13
tp247
a(I3
I4
I5
I12
tp248
a(I4
I5
I5
I12
tp249
a(I0
I10
I10
I25
tp250
a(I0
I9
I10
I24
tp251
a(I0
I9
I9
I23
tp252
a(I0
I8
I9
I22
tp253
a(I0
I8
I8
I21
tp254
a(I0
I7
I8
I20
tp255
a(I0
I7
I7
I19
tp256
a(I0
I6
I7
I18
tp257
a(I0
I6
I6
I17
tp258
a(I0
I5
I6
I16
tp259
a(I0
I5
I5
I15
tp260
a(I0
I4
I5
I14
tp261
a(I0
I3
I5
I13
tp262
a(I0
I2
I5
I12
tp263
a(I0
I1
I5
I11
tp264
a(I0
I0
I5
I12
tp265
a(I1
I5
I5
I14
tp266
a(I1
I4
I5
I13
tp267
a(I1
I3
I5
I12
tp268
a(I1
I2
I5
I11
tp269
a(I2
I5
I5
I13
tp270
a(I2
I4
I5
I12
tp271
a(I2
I3
I5
I11
tp272
a(I3
I5
I5
I12
tp273
a(I3
I4
I5
I11
tp274
a(I4
I5
I5
I11
tp275
a(I0
I10
I11
I25
tp276
a(I0
I10
I10
I24
tp277
a(I0
I9
I10
I23
tp278
a(I0
I9
I9
I22
tp279
a(I0
I8
I9
I21
tp280
a(I0
I8
I8
I20
tp281
a(I0
I7
I8
I19
tp282
a(I0
I7
I7
I18
tp283
a(I0
I6
I7
I17
tp284
a(I0
I6
I6
I16
tp285
a(I0
I5
I6
I15
tp286
a(I0
I5
I5
I14
tp287
a(I0
I4
I5
I13
tp288
a(I0
I3
I5
I12
tp289
a(I0
I2
I5
I11
tp290
a(I0
I1
I5
I10
tp291
a(I0
I0
I5
I11
tp292
a(I1
I5
I5
I13
tp293
a(I1
I4
I5
I12
tp294
a(I1
I3
I5
I11
tp295
a(I1
I2
I5
I10
tp296
a(I2
I5
I5
I12
tp297
a(I2
I4
I5
I11
tp298
a(I2
I3
I5
I10
tp299
a(I3
I5
I5
I11
tp300
a(I3
I4
I5
I10
tp301
a(I4
I5
I5
I10
tp302
a(I0
I11
I11
I25
tp303
a(I0
I10
I11
I24
tp304
a(I0
I10
I10
I23
tp305
a(I0
I9
I10
I22
tp306
a(I0
I9
I9
I21
tp307
a(I0
I8
I9
I20
tp308
a(I0
I8
I8
I19
tp309
a(I0
I7
I8
I18
tp310
a(I0
I7
I7
I17
tp311
a(I0
I6
I7
I16
tp312
a(I0
I6
I6
I15
tp313
a(I0
I5
I6
I14
tp314
a(I0
I5
I5
I13
tp315
a(I0
I4
I5
I12
tp316
a(I0
I3
I5
I11
tp317
a(I0
I2
I5
I10
tp318
a(I0
I1
I5
I9
tp319
a(I0
I0
I5
I10
tp320
a(I1
I5
I5
I12
tp321
a(I1
I4
I5
I11
tp322
a(I1
I3
I5
I10
tp323
a(I1
I2
I5
I9
tp324
a(I2
I5
I5
I11
tp325
a(I2
I4
I5
I10
tp326
a(I2
I3
I5
I9
tp327
a(I3
I5
I5
I10
tp328
a(I3
I4
I5
I9
tp329
a(I4
I5
I5
I9
tp330
a(I0
I11
I12
I25
tp331
a(I0
I11
I11
I24
tp332
a(I0
I10
I11
I23
tp333
a(I0
I10
I10
I22
tp334
a(I0
I9
I10
I21
tp335
a(I0
I9
I9
I20
tp336
a(I0
I8
I9
I19
tp337
a(I0
I8
I8
I18
tp338
a(I0
I7
I8
I17
tp339
a(I0
I7
I7
I16
tp340
a(I0
I6
I7
I15
tp341
a(I0
I6
I6
I14
tp342
a(I0
I5
I6
I13
tp343
a(I0
I5
I5
I12
tp344
a(I0
I4
I5
I11
tp345
a(I0
I3
I5
I10
tp346
a(I0
I2
I5
I9
tp347
a(I0
I1
I5
I8
tp348
a(I0
I0
I5
I9
tp349
a(I1
I5
I5
I11
tp350
a(I1
I4
I5
I10
tp351
a(I1
I3
I5
I9
tp352
a(I1
I2
I5
I8
tp353
a(I2
I5
I5
I10
tp354
a(I2
I4
I5
I9
tp355
a(I2
I3
I5
I8
tp356
a(I3
I5
I5
I9
tp357
a(I3
I4
I5
I8
tp358
a(I4
I5
I5
I8
tp359
a(I0
I12
I12
I25
tp360
a(I0
I11
I12
I24
tp361
a(I0
I11
I11
I23
tp362
a(I0
I10
I11
I22
tp363
a(I0
I10
I10
I21
tp364
a(I0
I9
I10
I20
tp365
a(I0
I9
I9
I19
tp366
a(I0
I8
I9
I18
tp367
a(I0
I8
I8
I17
tp368
a(I0
I7
I8
I16
tp369
a(I0
I7
I7
I15
tp370
a(I0
I6
I7
I14
tp371
a(I0
I6
I6
I13
tp372
a(I0
I5
I6
I12
tp373
a(I0
I5
I5
I11
tp374
a(I0
I4
I5
I10
tp375
a(I0
I3
I5
I9
tp376
a(I0
I2
I5
I8
tp377
a(I0
I1
I5
I7
tp378
a(I0
I0
I5
I8
tp379
a(I1
I5
I5
I10
tp380
a(I1
I4
I5
I9
tp381
a(I1
I3
I5
I8
tp382
a(I1
I2
I5
I7
tp383
a(I2
I5
I5
I9
tp384
a(I2
I4
I5
I8
tp385
a(I2
I3
I5
I7
tp386
a(I3
I5
I5
I8
tp387
a(I3
I4
I5
I7
tp388
a(I4
I5
I5
I7
tp389
a(I0
I12
I13
I25
tp390
a(I0
I12
I12
I24
tp391
a(I0
I11
I12
I23
tp392
a(I0
I11
I11
I22
tp393
a(I0
I10
I11
I21
tp394
a(I0
I10
I10
I20
tp395
a(I0
I9
I10
I19
tp396
a(I0
I9
I9
I18
tp397
a(I0
I8
I9
I17
tp398
a(I0
I8
I8
I16
tp399
a(I0
I7
I8
I15
tp400
a(I0
I7
I7
I14
tp401
a(I0
I6
I7
I13
tp402
a(I0
I6
I6
I12
tp403
a(I0
I5
I6
I11
tp404
a(I0
I5
I5
I10
tp405
a(I0
I4
I5
I9
tp406
a(I0
I3
I5
I8
tp407
a(I0
I2
I5
I7
tp408
a(I0
I1
I5
I6
tp409
a(I0
I0
I5
I7
tp410
a(I1
I5
I5
I9
tp411
a(I1
I4
I5
I8
tp412
a(I1
I3
I5
I7
tp413
a(I1
I2
I5
I6
tp414
a(I2
I5
I5
I8
tp415
a(I2
I4
I5
I7
tp416
a(I2
I3
I5
I6
tp417
a(I3
I5
I5
I7
tp418
a(I3
I4
I5
I6
tp419
a(I4
I5
I5
I6
tp420
a(I0
I13
I13
I25
tp421
a(I0
I12
I13
I24
tp422
a(I0
I12
I12
I23
tp423
a(I0
I11
I12
I22
tp424
a(I0
I11
I11
I21
tp425
a(I0
I10
I11
I20
tp426
a(I0
I10
I10
I19
tp427
a(I0
I9
I10
I18
tp428
a(I0
I9
I9
I17
tp429
a(I0
I8
I9
I16
tp430
a(I0
I8
I8
I15
tp431
a(I0
I7
I8
I14
tp432
a(I0
I7
I7
I13
tp433
a(I0
I6
I7
I12
tp434
a(I0
I6
I6
I11
tp435
a(I0
I5
I6
I10
tp436
a(I0
I5
I5
I9
tp437
a(I0
I4
I5
I8
tp438
a(I0
I3
I5
I7
tp439
a(I0
I2
I5
I6
tp440
a(I0
I0
I5
I6
tp441
a(I1
I5
I5
I8
tp442
a(I1
I4
I5
I7
tp443
a(I1
I3
I5
I6
tp444
a(I2
I5
I5
I7
tp445
a(I2
I4
I5
I6
tp446
a(I3
I5
I5
I6
tp447
a(I0
I13
I14
I25
tp448
a(I0
I13
I13
I24
tp449
a(I0
I12
I13
I23
tp450
a(I0
I12
I12
I22
tp451
a(I0
I11
I12
I21
tp452
a(I0
I11
I11
I20
tp453
a(I0
I10
I11
I19
tp454
a(I0
I10
I10
I18
tp455
a(I0
I9
I10
I17
tp456
a(I0
I9
I9
I16
tp457
a(I0
I8
I9
I15
tp458
a(I0
I8
I8
I14
tp459
a(I0
I7
I8
I13
tp460
a(I0
I7
I7
I12
tp461
a(I0
I6
I7
I11
tp462
a(I0
I6
I6
I10
tp463
a(I0
I5
I6
I9
tp464
a(I0
I5
I5
I8
tp465
a(I0
I4
I5
I7
tp466
a(I0
I3
I5
I6
tp467
a(I1
I5
I5
I7
tp468
a(I1
I4
I5
I6
tp469
a(I2
I5
I5
I6
tp470
a(I0
I14
I14
I25
tp471
a(I0
I13
I14
I24
tp472
a(I0
I13
I13
I23
tp473
a(I0
I12
I13
I22
tp474
a(I0
I12
I12
I21
tp475
a(I0
I11
I12
I20
tp476
a(I0
I11
I11
I19
tp477
a(I0
I10
I11
I18
tp478
a(I0
I10
I10
I17
tp479
a(I0
I9
I10
I16
tp480
a(I0
I9
I9
I15
tp481
a(I0
I8
I9
I14
tp482
a(I0
I8
I8
I13
tp483
a(I0
I7
I8
I12
tp484
a(I0
I7
I7
I11
tp485
a(I0
I6
I7
I10
tp486
a(I0
I6
I6
I9
tp487
a(I0
I5
I6
I8
tp488
a(I0
I5
I5
I7
tp489
a(I0
I4
I5
I6
tp490
a(I1
I5
I5
I6
tp491
a(I0
I14
I15
I25
tp492
a(I0
I14
I14
I24
tp493
a(I0
I13
I14
I23
tp494
a(I0
I13
I13
I22
tp495
a(I0
I12
I13
I21
tp496
a(I0
I12
I12
I20
tp497
a(I0
I11
I12
I19
tp498
a(I0
I11
I11
I18
tp499
a(I0
I10
I11
I17
tp500
a(I0
I10
I10
I16
tp501
a(I0
I9
I10
I15
tp502
a(I0
I9
I9
I14
tp503
a(I0
I8
I9
I13
tp504
a(I0
I8
I8
I12
tp505
a(I0
I7
I8
I11
tp506
a(I0
I7
I7
I10
tp507
a(I0
I6
I7
I9
tp508
a(I0
I6
I6
I8
tp509
a(I0
I5
I6
I7
tp510
a(I0
I5
I5
I6
tp511
a(I0
I15
I15
I25
tp512
a(I0
I14
I15
I24
tp513
a(I0
I14
I14
I23
tp514
a(I0
I13
I14
I22
tp515
a(I0
I13
I13
I21
tp516
a(I0
I12
I13
I20
tp517
a(I0
I12
I12
I19
tp518
a(I0
I11
I12
I18
tp519
a(I0
I11
I11
I17
tp520
a(I0
I10
I11
I16
tp521
a(I0
I10
I10
I15
tp522
a(I0
I9
I10
I14
tp523
a(I0
I9
I9
I13
tp524
a(I0
I8
I9
I12
tp525
a(I0
I8
I8
I11
tp526
a(I0
I7
I8
I10
tp527
a(I0
I7
I7
I9
tp528
a(I0
I6
I7
I8
tp529
a(I0
I6
I6
I7
tp530
a(I0
I15
I16
I25
tp531
a(I0
I15
I15
I24
tp532
a(I0
I14
I15
I23
tp533
a(I0
I14
I14
I22
tp534
a(I0
I13
I14
I21
tp535
a(I0
I13
I13
I20
tp536
a(I0
I12
I13
I19
tp537
a(I0
I12
I12
I18
tp538
a(I0
I11
I12
I17
tp539
a(I0
I11
I11
I16
tp540
a(I0
I10
I11
I15
tp541
a(I0
I10
I10
I14
tp542
a(I0
I9
I10
I13
tp543
a(I0
I9
I9
I12
tp544
a(I0
I8
I9
I11
tp545
a(I0
I8
I8
I10
tp546
a(I0
I7
I8
I9
tp547
a(I0
I7
I7
I8
tp548
a(I0
I16
I16
I25
tp549
a(I0
I15
I16
I24
tp550
a(I0
I15
I15
I23
tp551
a(I0
I14
I15
I22
tp552
a(I0
I14
I14
I21
tp553
a(I0
I13
I14
I20
tp554
a(I0
I13
I13
I19
tp555
a(I0
I12
I13
I18
tp556
a(I0
I12
I12
I17
tp557
a(I0
I11
I12
I16
tp558
a(I0
I11
I11
I15
tp559
a(I0
I10
I11
I14
tp560
a(I0
I10
I10
I13
tp561
a(I0
I9
I10
I12
tp562
a(I0
I9
I9
I11
tp563
a(I0
I8
I9
I10
tp564
a(I0
I8
I8
I9
tp565
a(I0
I16
I17
I25
tp566
a(I0
I16
I16
I24
tp567
a(I0
I15
I16
I23
tp568
a(I0
I15
I15
I22
tp569
a(I0
I14
I15
I21
tp570
a(I0
I14
I14
I20
tp571
a(I0
I13
I14
I19
tp572
a(I0
I13
I13
I18
tp573
a(I0
I12
I13
I17
tp574
a(I0
I12
I12
I16
tp575
a(I0
I11
I12
I15
tp576
a(I0
I11
I11
I14
tp577
a(I0
I10
I11
I13
tp578
a(I0
I10
I10
I12
tp579
a(I0
I9
I10
I11
tp580
a(I0
I9
I9
I10
tp581
a(I0
I17
I17
I25
tp582
a(I0
I16
I17
I24
tp583
a(I0
I16
I16
I23
tp584
a(I0
I15
I16
I22
tp585
a(I0
I15
I15
I21
tp586
a(I0
I14
I15
I20
tp587
a(I0
I14
I14
I19
tp588
a(I0
I13
I14
I18
tp589
a(I0
I13
I13
I17
tp590
a(I0
I12
I13
I16
tp591
a(I0
I12
I12
I15
tp592
a(I0
I11
I12
I14
tp593
a(I0
I11
I11
I13
tp594
a(I0
I10
I11
I12
tp595
a(I0
I10
I10
I11
tp596
a(I0
I17
I18
I25
tp597
a(I0
I17
I17
I24
tp598
a(I0
I16
I17
I23
tp599
a(I0
I16
I16
I22
tp600
a(I0
I15
I16
I21
tp601
a(I0
I15
I15
I20
tp602
a(I0
I14
I15
I19
tp603
a(I0
I14
I14
I18
tp604
a(I0
I13
I14
I17
tp605
a(I0
I13
I13
I16
tp606
a(I0
I12
I13
I15
tp607
a(I0
I12
I12
I14
tp608
a(I0
I11
I12
I13
tp609
a(I0
I11
I11
I12
tp610
a(I0
I18
I18
I25
tp611
a(I0
I17
I18
I24
tp612
a(I0
I17
I17
I23
tp613
a(I0
I16
I17
I22
tp614
a(I0
I16
I16
I21
tp615
a(I0
I15
I16
I20
tp616
a(I0
I15
I15
I19
tp617
a(I0
I14
I15
I18
tp618
a(I0
I14
I14
I17
tp619
a(I0
I13
I14
I16
tp620
a(I0
I13
I13
I15
tp621
a(I0
I12
I13
I14
tp622
a(I0
I12
I12
I13
tp623
a(I0
I18
I19
I25
tp624
a(I0
I18
I18
I24
tp625
a(I0
I17
I18
I23
tp626
a(I0
I17
I17
I22
tp627
a(I0
I16
I17
I21
tp628
a(I0
I16
I16
I20
tp629
a(I0
I15
I16
I19
tp630
a(I0
I15
I15
I18
tp631
a(I0
I14
I15
I17
tp632
a(I0
I14
I14
I16
tp633
a(I0
I13
I14
I15
tp634
a(I0
I13
I13
I14
tp635
a(I0
I19
I19
I25
tp636
a(I0
I18
I19
I24
tp637
a(I0
I18
I18
I23
tp638
a(I0
I17
I18
I22
tp639
a(I0
I17
I17
I21
tp640
a(I0
I16
I17
I20
tp641
a(I0
I16
I16
I19
tp642
a(I0
I15
I16
I18
tp643
a(I0
I15
I15
I17
tp644
a(I0
I14
I15
I16
tp645
a(I0
I14
I14
I15
tp646
a(I0
I19
I20
I25
tp647
a(I0
I19
I19
I24
tp648
a(I0
I18
I19
I23
tp649
a(I0
I18
I18
I22
tp650
a(I0
I17
I18
I21
tp651
a(I0
I17
I17
I20
tp652
a(I0
I16
I17
I19
tp653
a(I0
I16
I16
I18
tp654
a(I0
I15
I16
I17
tp655
a(I0
I15
I15
I16
tp656
a(I0
I20
I20
I25
tp657
a(I0
I19
I20
I24
tp658
a(I0
I19
I19
I23
tp659
a(I0
I18
I19
I22
tp660
a(I0
I18
I18
I21
tp661
a(I0
I17
I18
I20
tp662
a(I0
I17
I17
I19
tp663
a(I0
I16
I17
I18
tp664
a(I0
I16
I16
I17
tp665
a(I0
I20
I21
I25
tp666
a(I0
I20
I20
I24
tp667
a(I0
I19
I20
I23
tp668
a(I0
I19
I19
I22
tp669
a(I0
I18
I19
I21
tp670
a(I0
I18
I18
I20
tp671
a(I0
I17
I18
I19
tp672
a(I0
I17
I17
I18
tp673
a(I0
I21
I21
I25
tp674
a(I0
I20
I21
I24
tp675
a(I0
I20
I20
I23
tp676
a(I0
I19
I20
I22
tp677
a(I0
I19
I19
I21
tp678
a(I0
I18
I19
I20
tp679
a(I0
I18
I18
I19
tp680
a(I0
I21
I22
I25
tp681
a(I0
I21
I21
I24
tp682
a(I0
I20
I21
I23
tp683
a(I0
I20
I20
I22
tp684
a(I0
I19
I20
I21
tp685
a(I0
I19
I19
I20
tp686
a(I0
I22
I22
I25
tp687
a(I0
I21
I22
I24
tp688
a(I0
I21
I21
I23
tp689
a(I0
I20
I21
I22
tp690
a(I0
I20
I20
I21
tp691
a(I0
I22
I23
I25
tp692
a(I0
I22
I22
I24
tp693
a(I0
I21
I22
I23
tp694
a(I0
I21
I21
I22
tp695
a(I0
I23
I23
I25
tp696
a(I0
I22
I23
I24
tp697
a(I0
I22
I22
I23
tp698
a(I0
I23
I24
I25
tp699
a(I0
I23
I23
I24
tp700
a(I0
I24
I24
I25
tp701
a(I0
I24
I25
I25
tp702
a(I0
I25
I25
I25
tp703
a.