(lp1
(I0
I0
I3
I23
tp2
a(I0
I1
I3
I23
tp3
a(I1
I2
I3
I23
tp4
a(I2
I3
I3
I23
tp5
a(I0
I2
I3
I23
tp6
a(I0
I1
I3
I22
tp7
a(I1
I3
I3
I23
tp8
a(I1
I2
I3
I22
tp9
a(I2
I3
I3
I22
tp10
a(I0
I3
I3
I23
tp11
a(I0
I2
I3
I22
tp12
a(I0
I1
I3
I21
tp13
a(I0
I0
I3
I22
tp14
a(I1
I3
I3
I22
tp15
a(I1
I2
I3
I21
tp16
a(I2
I3
I3
I21
tp17
a(I0
I3
I4
I23
tp18
a(I0
I3
I3
I22
tp19
a(I0
I2
I3
I21
tp20
a(I0
I1
I3
I20
tp21
a(I0
I0
I3
I21
tp22
a(I1
I3
I3
I21
tp23
a(I1
I2
I3
I20
tp24
a(I2
I3
I3
I20
tp25
a(I0
I4
I4
I23
tp26
a(I0
I3
I4
I22
tp27
a(I0
I3
I3
I21
tp28
a(I0
I2
I3
I20
tp29
a(I0
I1
I3
I19
tp30
a(I0
I0
I3
I20
tp31
a(I1
I3
I3
I20
tp32
a(I1
I2
I3
I19
tp33
a(I2
I3
I3
I19
tp34
a(I0
I4
I5
I23
tp35
a(I0
I4
I4
I22
tp36
a(I0
I3
I4
I21
tp37
a(I0
I3
I3
I20
tp38
a(I0
I2
I3
I19
tp39
a(I0
I1
I3
I18
tp40
a(I0
I0
I3
I19
tp41
a(I1
I3
I3
I19
tp42
a(I1
I2
I3
I18
tp43
a(I2
I3
I3
I18
tp44
a(I0
I5
I5
I23
tp45
a(I0
I4
I5
I22
tp46
a(I0
I4
I4
I21
tp47
a(I0
I3
I4
I20
tp48
a(I0
I3
I3
I19
tp49
a(I0
I2
I3
I18
tp50
a(I0
I1
I3
I17
tp51
a(I0
I0
I3
I18
tp52
a(I1
I3
I3
I18
tp53
a(I1
I2
I3
I17
tp54
a(I2
I3
I3
I17
tp55
a(I0
I5
I6
I23
tp56
a(I0
I5
I5
I22
tp57
a(I0
I4
I5
I21
tp58
a(I0
I4
I4
I20
tp59
a(I0
I3
I4
I19
tp60
a(I0
I3
I3
I18
tp61
a(I0
I2
I3
I17
tp62
a(I0
I1
I3
I16
tp63
a(I0
I0
I3
I17
tp64
a(I1
I3
I3
I17
tp65
a(I1
I2
I3
I16
tp66
a(I2
I3
I3
I16
tp67
a(I0
I6
I6
I23
tp68
a(I0
I5
I6
I22
tp69
a(I0
I5
I5
I21
tp70
a(I0
I4
I5
I20
tp71
a(I0
I4
I4
I19
tp72
a(I0
I3
I4
I18
tp73
a(I0
I3
I3
I17
tp74
a(I0
I2
I3
I16
tp75
a(I0
I1
I3
I15
tp76
a(I0
I0
I3
I16
tp77
a(I1
I3
I3
I16
tp78
a(I1
I2
I3
I15
tp79
a(I2
I3
I3
I15
tp80
a(I0
I6
I7
I23
tp81
a(I0
I6
I6
I22
tp82
a(I0
I5
I6
I21
tp83
a(I0
I5
I5
I20
tp84
a(I0
I4
I5
I19
tp85
a(I0
I4
I4
I18
tp86
a(I0
I3
I4
I17
tp87
a(I0
I3
I3
I16
tp88
a(I0
I2
I3
I15
tp89
a(I0
I1
I3
I14
tp90
a(I0
I0
I3
I15
tp91
a(I1
I3
I3
I15
tp92
a(I1
I2
I3
I14
tp93
a(I2
I3
I3
I14
tp94
a(I0
I7
I7
I23
tp95
a(I0
I6
I7
I22
tp96
a(I0
I6
I6
I21
tp97
a(I0
I5
I6
I20
tp98
a(I0
I5
I5
I19
tp99
a(I0
I4
I5
I18
tp100
a(I0
I4
I4
I17
tp101
a(I0
I3
I4
I16
tp102
a(I0
I3
I3
I15
tp103
a(I0
I2
I3
I14
tp104
a(I0
I1
I3
I13
tp105
a(I0
I0
I3
I14
tp106
a(I1
I3
I3
I14
tp107
a(I1
I2
I3
I13
tp108
a(I2
I3
I3
I13
tp109
a(I0
I7
I8
I23
tp110
a(I0
I7
I7
I22
tp111
a(I0
I6
I7
I21
tp112
a(I0
I6
I6
I20
tp113
a(I0
I5
I6
I19
tp114
a(I0
I5
I5
I18
tp115
a(I0
I4
I5
I17
tp116
a(I0
I4
I4
I16
tp117
a(I0
I3
I4
I15
tp118
a(I0
I3
I3
I14
tp119
a(I0
I2
I3
I13
tp120
a(I0
I1
I3
I12
tp121
a(I0
I0
I3
I13
tp122
a(I1
I3
I3
I13
tp123
a(I1
I2
I3
I12
tp124
a(I2
I3
I3
I12
tp125
a(I0
I8
I8
I23
tp126
a(I0
I7
I8
I22
tp127
a(I0
I7
I7
I21
tp128
a(I0
I6
I7
I20
tp129
a(I0
I6
I6
I19
tp130
a(I0
I5
I6
I18
tp131
a(I0
I5
I5
I17
tp132
a(I0
I4
I5
I16
tp133
a(I0
I4
I4
I15
tp134
a(I0
I3
I4
I14
tp135
a(I0
I3
I3
I13
tp136
a(I0
I2
I3
I12
tp137
a(I0
I1
I3
I11
tp138
a(I0
I0
I3
I12
tp139
a(I1
I3
I3
I12
tp140
a(I1
I2
I3
I11
tp141
a(I2
I3
I3
I11
tp142
a(I0
I8
I9
I23
tp143
a(I0
I8
I8
I22
tp144
a(I0
I7
I8
I21
tp145
a(I0
I7
I7
I20
tp146
a(I0
I6
I7
I19
tp147
a(I0
I6
I6
I18
tp148
a(I0
I5
I6
I17
tp149
a(I0
I5
I5
I16
tp150
a(I0
I4
I5
I15
tp151
a(I0
I4
I4
I14
tp152
a(I0
I3
I4
I13
tp153
a(I0
I3
I3
I12
tp154
a(I0
I2
I3
I11
tp155
a(I0
I1
I3
I10
tp156
a(I0
I0
I3
I11
tp157
a(I1
I3
I3
I11
tp158
a(I1
I2
I3
I10
tp159
a(I2
I3
I3
I10
tp160
a(I0
I9
I9
I23
tp161
a(I0
I8
I9
I22
tp162
a(I0
I8
I8
I21
tp163
a(I0
I7
I8
I20
tp164
a(I0
I7
I7
I19
tp165
a(I0
I6
I7
I18
tp166
a(I0
I6
I6
I17
tp167
a(I0
I5
I6
I16
tp168
a(I0
I5
I5
I15
tp169
a(I0
I4
I5
I14
tp170
a(I0
I4
I4
I13
tp171
a(I0
I3
I4
I12
tp172
a(I0
I3
I3
I11
tp173
a(I0
I2
I3
I10
tp174
a(I0
I1
I3
I9
tp175
a(I0
I0
I3
I10
tp176
a(I1
I3
I3
I10
tp177
a(I1
I2
I3
I9
tp178
a(I2
I3
I3
I9
tp179
a(I0
I9
I10
I23
tp180
a(I0
I9
I9
I22
tp181
a(I0
I8
I9
I21
tp182
a(I0
I8
I8
I20
tp183
a(I0
I7
I8
I19
tp184
a(I0
I7
I7
I18
tp185
a(I0
I6
I7
I17
tp186
a(I0
I6
I6
I16
tp187
a(I0
I5
I6
I15
tp188
a(I0
I5
I5
I14
tp189
a(I0
I4
I5
I13
tp190
a(I0
I4
I4
I12
tp191
a(I0
I3
I4
I11
tp192
a(I0
I3
I3
I10
tp193
a(I0
I2
I3
I9
tp194
a(I0
I1
I3
I8
tp195
a(I0
I0
I3
I9
tp196
a(I1
I3
I3
I9
tp197
a(I1
I2
I3
I8
tp198
a(I2
I3
I3
I8
tp199
a(I0
I10
I10
I23
tp200
a(I0
I9
I10
I22
tp201
a(I0
I9
I9
I21
tp202
a(I0
I8
I9
I20
tp203
a(I0
I8
I8
I19
tp204
a(I0
I7
I8
I18
tp205
a(I0
I7
I7
I17
tp206
a(I0
I6
I7
I16
tp207
a(I0
I6
I6
I15
tp208
a(I0
I5
I6
I14
tp209
a(I0
I5
I5
I13
tp210
a(I0
I4
I5
I12
tp211
a(I0
I4
I4
I11
tp212
a(I0
I3
I4
I10
tp213
a(I0
I3
I3
I9
tp214
a(I0
I2
I3
I8
tp215
a(I0
I1
I3
I7
tp216
a(I0
I0
I3
I8
tp217
a(I1
I3
I3
I8
tp218
a(I1
I2
I3
I7
tp219
a(I2
I3
I3
I7
tp220
a(I0
I10
I11
I23
tp221
a(I0
I10
I10
I22
tp222
a(I0
I9
I10
I21
tp223
a(I0
I9
I9
I20
tp224
a(I0
I8
I9
I19
tp225
a(I0
I8
I8
I18
tp226
a(I0
I7
I8
I17
tp227
a(I0
I7
I7
I16
tp228
a(I0
I6
I7
I15
tp229
a(I0
I6
I6
I14
tp230
a(I0
I5
I6
I13
tp231
a(I0
I5
I5
I12
tp232
a(I0
I4
I5
I11
tp233
a(I0
I4
I4
I10
tp234
a(I0
I3
I4
I9
tp235
a(I0
I3
I3
I8
tp236
a(I0
I2
I3
I7
tp237
a(I0
I1
I3
I6
tp238
a(I0
I0
I3
I7
tp239
a(I1
I3
I3
I7
tp240
a(I1
I2
I3
I6
tp241
a(I2
I3
I3
I6
tp242
a(I0
I11
I11
I23
tp243
a(I0
I10
I11
I22
tp244
a(I0
I10
I10
I21
tp245
a(I0
I9
I10
I20
tp246
a(I0
I9
I9
I19
tp247
a(I0
I8
I9
I18
tp248
a(I0
I8
I8
I17
tp249
a(I0
I7
I8
I16
tp250
a(I0
I7
I7
I15
tp251
a(I0
I6
I7
I14
tp252
a(I0
I6
I6
I13
tp253
a(I0
I5
I6
I12
tp254
a(I0
I5
I5
I11
tp255
a(I0
I4
I5
I10
tp256
a(I0
I4
I4
I9
tp257
a(I0
I3
I4
I8
tp258
a(I0
I3
I3
I7
tp259
a(I0
I2
I3
I6
tp260
a(I0
I1
I3
I5
tp261
a(I0
I0
I3
I6
tp262
a(I1
I3
I3
I6
tp263
a(I1
I2
I3
I5
tp264
a(I2
I3
I3
I5
tp265
a(I0
I11
I12
I23
tp266
a(I0
I11
I11
I22
tp267
a(I0
I10
I11
I21
tp268
a(I0
I10
I10
I20
tp269
a(I0
I9
I10
I19
tp270
a(I0
I9
I9
I18
tp271
a(I0
I8
I9
I17
tp272
a(I0
I8
I8
I16
tp273
a(I0
I7
I8
I15
tp274
a(I0
I7
I7
I14
tp275
a(I0
I6
I7
I13
tp276
a(I0
I6
I6
I12
tp277
a(I0
I5
I6
I11
tp278
a(I0
I5
I5
I10
tp279
a(I0
I4
I5
I9
tp280
a(I0
I4
I4
I8
tp281
a(I0
I3
I4
I7
tp282
a(I0
I3
I3
I6
tp283
a(I0
I2
I3
I5
tp284
a(I0
I1
I3
I4
tp285
a(I0
I0
I3
I5
tp286
a(I1
I3
I3
I5
tp287
a(I1
I2
I3
I4
tp288
a(I2
I3
I3
I4
tp289
a(I0
I12
I12
I23
tp290
a(I0
I11
I12
I22
tp291
a(I0
I11
I11
I21
tp292
a(I0
I10
I11
I20
tp293
a(I0
I10
I10
I19
tp294
a(I0
I9
I10
I18
tp295
a(I0
I9
I9
I17
tp296
a(I0
I8
I9
I16
tp297
a(I0
I8
I8
I15
tp298
a(I0
I7
I8
I14
tp299
a(I0
I7
I7
I13
tp300
a(I0
I6
I7
I12
tp301
a(I0
I6
I6
I11
tp302
a(I0
I5
I6
I10
tp303
a(I0
I5
I5
I9
tp304
a(I0
I4
I5
I8
tp305
a(I0
I4
I4
I7
tp306
a(I0
I3
I4
I6
tp307
a(I0
I3
I3
I5
tp308
a(I0
I2
I3
I4
tp309
a(I0
I0
I3
I4
tp310
a(I1
I3
I3
I4
tp311
a(I0
I12
I13
I23
tp312
a(I0
I12
I12
I22
tp313
a(I0
I11
I12
I21
tp314
a(I0
I11
I11
I20
tp315
a(I0
I10
I11
I19
tp316
a(I0
I10
I10
I18
tp317
a(I0
I9
I10
I17
tp318
a(I0
I9
I9
I16
tp319
a(I0
I8
I9
I15
tp320
a(I0
I8
I8
I14
tp321
a(I0
I7
I8
I13
tp322
a(I0
I7
I7
I12
tp323
a(I0
I6
I7
I11
tp324
a(I0
I6
I6
I10
tp325
a(I0
I5
I6
I9
tp326
a(I0
I5
I5
I8
tp327
a(I0
I4
I5
I7
tp328
a(I0
I4
I4
I6
tp329
a(I0
I3
I4
I5
tp330
a(I0
I3
I3
I4
tp331
a(I0
I13
I13
I23
tp332
a(I0
I12
I13
I22
tp333
a(I0
I12
I12
I21
tp334
a(I0
I11
I12
I20
tp335
a(I0
I11
I11
I19
tp336
a(I0
I10
I11
I18
tp337
a(I0
I10
I10
I17
tp338
a(I0
I9
I10
I16
tp339
a(I0
I9
I9
I15
tp340
a(I0
I8
I9
I14
tp341
a(I0
I8
I8
I13
tp342
a(I0
I7
I8
I12
tp343
a(I0
I7
I7
I11
tp344
a(I0
I6
I7
I10
tp345
a(I0
I6
I6
I9
tp346
a(I0
I5
I6
I8
tp347
a(I0
I5
I5
I7
tp348
a(I0
I4
I5
I6
tp349
a(I0
I4
I4
I5
tp350
a(I0
I13
I14
I23
tp351
a(I0
I13
I13
I22
tp352
a(I0
I12
I13
I21
tp353
a(I0
I12
I12
I20
tp354
a(I0
I11
I12
I19
tp355
a(I0
I11
I11
I18
tp356
a(I0
I10
I11
I17
tp357
a(I0
I10
I10
I16
tp358
a(I0
I9
I10
I15
tp359
a(I0
I9
I9
I14
tp360
a(I0
I8
I9
I13
tp361
a(I0
I8
I8
I12
tp362
a(I0
I7
I8
I11
tp363
a(I0
I7
I7
I10
tp364
a(I0
I6
I7
I9
tp365
a(I0
I6
I6
I8
tp366
a(I0
I5
I6
I7
tp367
a(I0
I5
I5
I6
tp368
a(I0
I14
I14
I23
tp369
a(I0
I13
I14
I22
tp370
a(I0
I13
I13
I21
tp371
a(I0
I12
I13
I20
tp372
a(I0
I12
I12
I19
tp373
a(I0
I11
I12
I18
tp374
a(I0
I11
I11
I17
tp375
a(I0
I10
I11
I16
tp376
a(I0
I10
I10
I15
tp377
a(I0
I9
I10
I14
tp378
a(I0
I9
I9
I13
tp379
a(I0
I8
I9
I12
tp380
a(I0
I8
I8
I11
tp381
a(I0
I7
I8
I10
tp382
a(I0
I7
I7
I9
tp383
a(I0
I6
I7
I8
tp384
a(I0
I6
I6
I7
tp385
a(I0
I14
I15
I23
tp386
a(I0
I14
I14
I22
tp387
a(I0
I13
I14
I21
tp388
a(I0
I13
I13
I20
tp389
a(I0
I12
I13
I19
tp390
a(I0
I12
I12
I18
tp391
a(I0
I11
I12
I17
tp392
a(I0
I11
I11
I16
tp393
a(I0
I10
I11
I15
tp394
a(I0
I10
I10
I14
tp395
a(I0
I9
I10
I13
tp396
a(I0
I9
I9
I12
tp397
a(I0
I8
I9
I11
tp398
a(I0
I8
I8
I10
tp399
a(I0
I7
I8
I9
tp400
a(I0
I7
I7
I8
tp401
a(I0
I15
I15
I23
tp402
a(I0
I14
I15
I22
tp403
a(I0
I14
I14
I21
tp404
a(I0
I13
I14
I20
tp405
a(I0
I13
I13
I19
tp406
a(I0
I12
I13
I18
tp407
a(I0
I12
I12
I17
tp408
a(I0
I11
I12
I16
tp409
a(I0
I11
I11
I15
tp410
a(I0
I10
I11
I14
tp411
a(I0
I10
I10
I13
tp412
a(I0
I9
I10
I12
tp413
a(I0
I9
I9
I11
tp414
a(I0
I8
I9
I10
tp415
a(I0
I8
I8
I9
tp416
a(I0
I15
I16
I23
tp417
a(I0
I15
I15
I22
tp418
a(I0
I14
I15
I21
tp419
a(I0
I14
I14
I20
tp420
a(I0
I13
I14
I19
tp421
a(I0
I13
I13
I18
tp422
a(I0
I12
I13
I17
tp423
a(I0
I12
I12
I16
tp424
a(I0
I11
I12
I15
tp425
a(I0
I11
I11
I14
tp426
a(I0
I10
I11
I13
tp427
a(I0
I10
I10
I12
tp428
a(I0
I9
I10
I11
tp429
a(I0
I9
I9
I10
tp430
a(I0
I16
I16
I23
tp431
a(I0
I15
I16
I22
tp432
a(I0
I15
I15
I21
tp433
a(I0
I14
I15
I20
tp434
a(I0
I14
I14
I19
tp435
a(I0
I13
I14
I18
tp436
a(I0
I13
I13
I17
tp437
a(I0
I12
I13
I16
tp438
a(I0
I12
I12
I15
tp439
a(I0
I11
I12
I14
tp440
a(I0
I11
I11
I13
tp441
a(I0
I10
I11
I12
tp442
a(I0
I10
I10
I11
tp443
a(I0
I16
I17
I23
tp444
a(I0
I16
I16
I22
tp445
a(I0
I15
I16
I21
tp446
a(I0
I15
I15
I20
tp447
a(I0
I14
I15
I19
tp448
a(I0
I14
I14
I18
tp449
a(I0
I13
I14
I17
tp450
a(I0
I13
I13
I16
tp451
a(I0
I12
I13
I15
tp452
a(I0
I12
I12
I14
tp453
a(I0
I11
I12
I13
tp454
a(I0
I11
I11
I12
tp455
a(I0
I17
I17
I23
tp456
a(I0
I16
I17
I22
tp457
a(I0
I16
I16
I21
tp458
a(I0
I15
I16
I20
tp459
a(I0
I15
I15
I19
tp460
a(I0
I14
I15
I18
tp461
a(I0
I14
I14
I17
tp462
a(I0
I13
I14
I16
tp463
a(I0
I13
I13
I15
tp464
a(I0
I12
I13
I14
tp465
a(I0
I12
I12
I13
tp466
a(I0
I17
I18
I23
tp467
a(I0
I17
I17
I22
tp468
a(I0
I16
I17
I21
tp469
a(I0
I16
I16
I20
tp470
a(I0
I15
I16
I19
tp471
a(I0
I15
I15
I18
tp472
a(I0
I14
I15
I17
tp473
a(I0
I14
I14
I16
tp474
a(I0
I13
I14
I15
tp475
a(I0
I13
I13
I14
tp476
a(I0
I18
I18
I23
tp477
a(I0
I17
I18
I22
tp478
a(I0
I17
I17
I21
tp479
a(I0
I16
I17
I20
tp480
a(I0
I16
I16
I19
tp481
a(I0
I15
I16
I18
tp482
a(I0
I15
I15
I17
tp483
a(I0
I14
I15
I16
tp484
a(I0
I14
I14
I15
tp485
a(I0
I18
I19
I23
tp486
a(I0
I18
I18
I22
tp487
a(I0
I17
I18
I21
tp488
a(I0
I17
I17
I20
tp489
a(I0
I16
I17
I19
tp490
a(I0
I16
I16
I18
tp491
a(I0
I15
I16
I17
tp492
a(I0
I15
I15
I16
tp493
a(I0
I19
I19
I23
tp494
a(I0
I18
I19
I22
tp495
a(I0
I18
I18
I21
tp496
a(I0
I17
I18
I20
tp497
a(I0
I17
I17
I19
tp498
a(I0
I16
I17
I18
tp499
a(I0
I16
I16
I17
tp500
a(I0
I19
I20
I23
tp501
a(I0
I19
I19
I22
tp502
a(I0
I18
I19
I21
tp503
a(I0
I18
I18
I20
tp504
a(I0
I17
I18
I19
tp505
a(I0
I17
I17
I18
tp506
a(I0
I20
I20
I23
tp507
a(I0
I19
I20
I22
tp508
a(I0
I19
I19
I21
tp509
a(I0
I18
I19
I20
tp510
a(I0
I18
I18
I19
tp511
a(I0
I20
I21
I23
tp512
a(I0
I20
I20
I22
tp513
a(I0
I19
I20
I21
tp514
a(I0
I19
I19
I20
tp515
a(I0
I21
I21
I23
tp516
a(I0
I20
I21
I22
tp517
a(I0
I20
I20
I21
tp518
a(I0
I21
I22
I23
tp519
a(I0
I21
I21
I22
tp520
a(I0
I22
I22
I23
tp521
a(I0
I22
I23
I23
tp522
a(I0
I23
I23
I23
tp523
a.