(lp1
(I0
I0
I7
I27
tp2
a(I0
I1
I7
I27
tp3
a(I1
I2
I7
I27
tp4
a(I2
I3
I7
I27
tp5
a(I3
I4
I7
I27
tp6
a(I4
I5
I7
I27
tp7
a(I5
I6
I7
I27
tp8
a(I6
I7
I7
I27
tp9
a(I0
I2
I7
I27
tp10
a(I0
I1
I7
I26
tp11
a(I1
I3
I7
I27
tp12
a(I1
I2
I7
I26
tp13
a(I2
I4
I7
I27
tp14
a(I2
I3
I7
I26
tp15
a(I3
I5
I7
I27
tp16
a(I3
I4
I7
I26
tp17
a(I4
I6
I7
I27
tp18
a(I4
I5
I7
I26
tp19
a(I5
I7
I7
I27
tp20
a(I5
I6
I7
I26
tp21
a(I6
I7
I7
I26
tp22
a(I0
I3
I7
I27
tp23
a(I0
I2
I7
I26
tp24
a(I0
I1
I7
I25
tp25
a(I0
I0
I7
I26
tp26
a(I1
I4
I7
I27
tp27
a(I1
I3
I7
I26
tp28
a(I1
I2
I7
I25
tp29
a(I2
I5
I7
I27
tp30
a(I2
I4
I7
I26
tp31
a(I2
I3
I7
I25
tp32
a(I3
I6
I7
I27
tp33
a(I3
I5
I7
I26
tp34
a(I3
I4
I7
I25
tp35
a(I4
I7
I7
I27
tp36
a(I4
I6
I7
I26
tp37
a(I4
I5
I7
I25
tp38
a(I5
I7
I7
I26
tp39
a(I5
I6
I7
I25
tp40
a(I6
I7
I7
I25
tp41
a(I0
I4
I7
I27
tp42
a(I0
I3
I7
I26
tp43
a(I0
I2
I7
I25
tp44
a(I0
I1
I7
I24
tp45
a(I0
I0
I7
I25
tp46
a(I1
I5
I7
I27
tp47
a(I1
I4
I7
I26
tp48
a(I1
I3
I7
I25
tp49
a(I1
I2
I7
I24
tp50
a(I2
I6
I7
I27
tp51
a(I2
I5
I7
I26
tp52
a(I2
I4
I7
I25
tp53
a(I2
I3
I7
I24
tp54
a(I3
I7
I7
I27
tp55
a(I3
I6
I7
I26
tp56
a(I3
I5
I7
I25
tp57
a(I3
I4
I7
I24
tp58
a(I4
I7
I7
I26
tp59
a(I4
I6
I7
I25
tp60
a(I4
I5
I7
I24
tp61
a(I5
I7
I7
I25
tp62
a(I5
I6
I7
I24
tp63
a(I6
I7
I7
I24
tp64
a(I0
I5
I7
I27
tp65
a(I0
I4
I7
I26
tp66
a(I0
I3
I7
I25
tp67
a(I0
I2
I7
I24
tp68
a(I0
I1
I7
I23
tp69
a(I0
I0
I7
I24
tp70
a(I1
I6
I7
I27
tp71
a(I1
I5
I7
I26
tp72
a(I1
I4
I7
I25
tp73
a(I1
I3
I7
I24
tp74
a(I1
I2
I7
I23
tp75
a(I2
I7
I7
I27
tp76
a(I2
I6
I7
I26
tp77
a(I2
I5
I7
I25
tp78
a(I2
I4
I7
I24
tp79
a(I2
I3
I7
I23
tp80
a(I3
I7
I7
I26
tp81
a(I3
I6
I7
I25
tp82
a(I3
I5
I7
I24
tp83
a(I3
I4
I7
I23
tp84
a(I4
I7
I7
I25
tp85
a(I4
I6
I7
I24
tp86
a(I4
I5
I7
I23
tp87
a(I5
I7
I7
I24
tp88
a(I5
I6
I7
I23
tp89
a(I6
I7
I7
I23
tp90
a(I0
I6
I7
I27
tp91
a(I0
I5
I7
I26
tp92
a(I0
I4
I7
I25
tp93
a(I0
I3
I7
I24
tp94
a(I0
I2
I7
I23
tp95
a(I0
I1
I7
I22
tp96
a(I0
I0
I7
I23
tp97
a(I1
I7
I7
I27
tp98
a(I1
I6
I7
I26
tp99
a(I1
I5
I7
I25
tp100
a(I1
I4
I7
I24
tp101
a(I1
I3
I7
I23
tp102
a(I1
I2
I7
I22
tp103
a(I2
I7
I7
I26
tp104
a(I2
I6
I7
I25
tp105
a(I2
I5
I7
I24
tp106
a(I2
I4
I7
I23
tp107
a(I2
I3
I7
I22
tp108
a(I3
I7
I7
I25
tp109
a(I3
I6
I7
I24
tp110
a(I3
I5
I7
I23
tp111
a(I3
I4
I7
I22
tp112
a(I4
I7
I7
I24
tp113
a(I4
I6
I7
I23
tp114
a(I4
I5
I7
I22
tp115
a(I5
I7
I7
I23
tp116
a(I5
I6
I7
I22
tp117
a(I6
I7
I7
I22
tp118
a(I0
I7
I7
I27
tp119
a(I0
I6
I7
I26
tp120
a(I0
I5
I7
I25
tp121
a(I0
I4
I7
I24
tp122
a(I0
I3
I7
I23
tp123
a(I0
I2
I7
I22
tp124
a(I0
I1
I7
I21
tp125
a(I0
I0
I7
I22
tp126
a(I1
I7
I7
I26
tp127
a(I1
I6
I7
I25
tp128
a(I1
I5
I7
I24
tp129
a(I1
I4
I7
I23
tp130
a(I1
I3
I7
I22
tp131
a(I1
I2
I7
I21
tp132
a(I2
I7
I7
I25
tp133
a(I2
I6
I7
I24
tp134
a(I2
I5
I7
I23
tp135
a(I2
I4
I7
I22
tp136
a(I2
I3
I7
I21
tp137
a(I3
I7
I7
I24
tp138
a(I3
I6
I7
I23
tp139
a(I3
I5
I7
I22
tp140
a(I3
I4
I7
I21
tp141
a(I4
I7
I7
I23
tp142
a(I4
I6
I7
I22
tp143
a(I4
I5
I7
I21
tp144
a(I5
I7
I7
I22
tp145
a(I5
I6
I7
I21
tp146
a(I6
I7
I7
I21
tp147
a(I0
I7
I8
I27
tp148
a(I0
I7
I7
I26
tp149
a(I0
I6
I7
I25
tp150
a(I0
I5
I7
I24
tp151
a(I0
I4
I7
I23
tp152
a(I0
I3
I7
I22
tp153
a(I0
I2
I7
I21
tp154
a(I0
I1
I7
I20
tp155
a(I0
I0
I7
I21
tp156
a(I1
I7
I7
I25
tp157
a(I1
I6
I7
I24
tp158
a(I1
I5
I7
I23
tp159
a(I1
I4
I7
I22
tp160
a(I1
I3
I7
I21
tp161
a(I1
I2
I7
I20
tp162
a(I2
I7
I7
I24
tp163
a(I2
I6
I7
I23
tp164
a(I2
I5
I7
I22
tp165
a(I2
I4
I7
I21
tp166
a(I2
I3
I7
I20
tp167
a(I3
I7
I7
I23
tp168
a(I3
I6
I7
I22
tp169
a(I3
I5
I7
I21
tp170
a(I3
I4
I7
I20
tp171
a(I4
I7
I7
I22
tp172
a(I4
I6
I7
I21
tp173
a(I4
I5
I7
I20
tp174
a(I5
I7
I7
I21
tp175
a(I5
I6
I7
I20
tp176
a(I6
I7
I7
I20
tp177
a(I0
I8
I8
I27
tp178
a(I0
I7
I8
I26
tp179
a(I0
I7
I7
I25
tp180
a(I0
I6
I7
I24
tp181
a(I0
I5
I7
I23
tp182
a(I0
I4
I7
I22
tp183
a(I0
I3
I7
I21
tp184
a(I0
I2
I7
I20
tp185
a(I0
I1
I7
I19
tp186
a(I0
I0
I7
I20
tp187
a(I1
I7
I7
I24
tp188
a(I1
I6
I7
I23
tp189
a(I1
I5
I7
I22
tp190
a(I1
I4
I7
I21
tp191
a(I1
I3
I7
I20
tp192
a(I1
I2
I7
I19
tp193
a(I2
I7
I7
I23
tp194
a(I2
I6
I7
I22
tp195
a(I2
I5
I7
I21
tp196
a(I2
I4
I7
I20
tp197
a(I2
I3
I7
I19
tp198
a(I3
I7
I7
I22
tp199
a(I3
I6
I7
I21
tp200
a(I3
I5
I7
I20
tp201
a(I3
I4
I7
I19
tp202
a(I4
I7
I7
I21
tp203
a(I4
I6
I7
I20
tp204
a(I4
I5
I7
I19
tp205
a(I5
I7
I7
I20
tp206
a(I5
I6
I7
I19
tp207
a(I6
I7
I7
I19
tp208
a(I0
I8
I9
I27
tp209
a(I0
I8
I8
I26
tp210
a(I0
I7
I8
I25
tp211
a(I0
I7
I7
I24
tp212
a(I0
I6
I7
I23
tp213
a(I0
I5
I7
I22
tp214
a(I0
I4
I7
I21
tp215
a(I0
I3
I7
I20
tp216
a(I0
I2
I7
I19
tp217
a(I0
I1
I7
I18
tp218
a(I0
I0
I7
I19
tp219
a(I1
I7
I7
I23
tp220
a(I1
I6
I7
I22
tp221
a(I1
I5
I7
I21
tp222
a(I1
I4
I7
I20
tp223
a(I1
I3
I7
I19
tp224
a(I1
I2
I7
I18
tp225
a(I2
I7
I7
I22
tp226
a(I2
I6
I7
I21
tp227
a(I2
I5
I7
I20
tp228
a(I2
I4
I7
I19
tp229
a(I2
I3
I7
I18
tp230
a(I3
I7
I7
I21
tp231
a(I3
I6
I7
I20
tp232
a(I3
I5
I7
I19
tp233
a(I3
I4
I7
I18
tp234
a(I4
I7
I7
I20
tp235
a(I4
I6
I7
I19
tp236
a(I4
I5
I7
I18
tp237
a(I5
I7
I7
I19
tp238
a(I5
I6
I7
I18
tp239
a(I6
I7
I7
I18
tp240
a(I0
I9
I9
I27
tp241
a(I0
I8
I9
I26
tp242
a(I0
I8
I8
I25
tp243
a(I0
I7
I8
I24
tp244
a(I0
I7
I7
I23
tp245
a(I0
I6
I7
I22
tp246
a(I0
I5
I7
I21
tp247
a(I0
I4
I7
I20
tp248
a(I0
I3
I7
I19
tp249
a(I0
I2
I7
I18
tp250
a(I0
I1
I7
I17
tp251
a(I0
I0
I7
I18
tp252
a(I1
I7
I7
I22
tp253
a(I1
I6
I7
I21
tp254
a(I1
I5
I7
I20
tp255
a(I1
I4
I7
I19
tp256
a(I1
I3
I7
I18
tp257
a(I1
I2
I7
I17
tp258
a(I2
I7
I7
I21
tp259
a(I2
I6
I7
I20
tp260
a(I2
I5
I7
I19
tp261
a(I2
I4
I7
I18
tp262
a(I2
I3
I7
I17
tp263
a(I3
I7
I7
I20
tp264
a(I3
I6
I7
I19
tp265
a(I3
I5
I7
I18
tp266
a(I3
I4
I7
I17
tp267
a(I4
I7
I7
I19
tp268
a(I4
I6
I7
I18
tp269
a(I4
I5
I7
I17
tp270
a(I5
I7
I7
I18
tp271
a(I5
I6
I7
I17
tp272
a(I6
I7
I7
I17
tp273
a(I0
I9
I10
I27
tp274
a(I0
I9
I9
I26
tp275
a(I0
I8
I9
I25
tp276
a(I0
I8
I8
I24
tp277
a(I0
I7
I8
I23
tp278
a(I0
I7
I7
I22
tp279
a(I0
I6
I7
I21
tp280
a(I0
I5
I7
I20
tp281
a(I0
I4
I7
I19
tp282
a(I0
I3
I7
I18
tp283
a(I0
I2
I7
I17
tp284
a(I0
I1
I7
I16
tp285
a(I0
I0
I7
I17
tp286
a(I1
I7
I7
I21
tp287
a(I1
I6
I7
I20
tp288
a(I1
I5
I7
I19
tp289
a(I1
I4
I7
I18
tp290
a(I1
I3
I7
I17
tp291
a(I1
I2
I7
I16
tp292
a(I2
I7
I7
I20
tp293
a(I2
I6
I7
I19
tp294
a(I2
I5
I7
I18
tp295
a(I2
I4
I7
I17
tp296
a(I2
I3
I7
I16
tp297
a(I3
I7
I7
I19
tp298
a(I3
I6
I7
I18
tp299
a(I3
I5
I7
I17
tp300
a(I3
I4
I7
I16
tp301
a(I4
I7
I7
I18
tp302
a(I4
I6
I7
I17
tp303
a(I4
I5
I7
I16
tp304
a(I5
I7
I7
I17
tp305
a(I5
I6
I7
I16
tp306
a(I6
I7
I7
I16
tp307
a(I0
I10
I10
I27
tp308
a(I0
I9
I10
I26
tp309
a(I0
I9
I9
I25
tp310
a(I0
I8
I9
I24
tp311
a(I0
I8
I8
I23
tp312
a(I0
I7
I8
I22
tp313
a(I0
I7
I7
I21
tp314
a(I0
I6
I7
I20
tp315
a(I0
I5
I7
I19
tp316
a(I0
I4
I7
I18
tp317
a(I0
I3
I7
I17
tp318
a(I0
I2
I7
I16
tp319
a(I0
I1
I7
I15
tp320
a(I0
I0
I7
I16
tp321
a(I1
I7
I7
I20
tp322
a(I1
I6
I7
I19
tp323
a(I1
I5
I7
I18
tp324
a(I1
I4
I7
I17
tp325
a(I1
I3
I7
I16
tp326
a(I1
I2
I7
I15
tp327
a(I2
I7
I7
I19
tp328
a(I2
I6
I7
I18
tp329
a(I2
I5
I7
I17
tp330
a(I2
I4
I7
I16
tp331
a(I2
I3
I7
I15
tp332
a(I3
I7
I7
I18
tp333
a(I3
I6
I7
I17
tp334
a(I3
I5
I7
I16
tp335
a(I3
I4
I7
I15
tp336
a(I4
I7
I7
I17
tp337
a(I4
I6
I7
I16
tp338
a(I4
I5
I7
I15
tp339
a(I5
I7
I7
I16
tp340
a(I5
I6
I7
I15
tp341
a(I6
I7
I7
I15
tp342
a(I0
I10
I11
I27
tp343
a(I0
I10
I10
I26
tp344
a(I0
I9
I10
I25
tp345
a(I0
I9
I9
I24
tp346
a(I0
I8
I9
I23
tp347
a(I0
I8
I8
I22
tp348
a(I0
I7
I8
I21
tp349
a(I0
I7
I7
I20
tp350
a(I0
I6
I7
I19
tp351
a(I0
I5
I7
I18
tp352
a(I0
I4
I7
I17
tp353
a(I0
I3
I7
I16
tp354
a(I0
I2
I7
I15
tp355
a(I0
I1
I7
I14
tp356
a(I0
I0
I7
I15
tp357
a(I1
I7
I7
I19
tp358
a(I1
I6
I7
I18
tp359
a(I1
I5
I7
I17
tp360
a(I1
I4
I7
I16
tp361
a(I1
I3
I7
I15
tp362
a(I1
I2
I7
I14
tp363
a(I2
I7
I7
I18
tp364
a(I2
I6
I7
I17
tp365
a(I2
I5
I7
I16
tp366
a(I2
I4
I7
I15
tp367
a(I2
I3
I7
I14
tp368
a(I3
I7
I7
I17
tp369
a(I3
I6
I7
I16
tp370
a(I3
I5
I7
I15
tp371
a(I3
I4
I7
I14
tp372
a(I4
I7
I7
I16
tp373
a(I4
I6
I7
I15
tp374
a(I4
I5
I7
I14
tp375
a(I5
I7
I7
I15
tp376
a(I5
I6
I7
I14
tp377
a(I6
I7
I7
I14
tp378
a(I0
I11
I11
I27
tp379
a(I0
I10
I11
I26
tp380
a(I0
I10
I10
I25
tp381
a(I0
I9
I10
I24
tp382
a(I0
I9
I9
I23
tp383
a(I0
I8
I9
I22
tp384
a(I0
I8
I8
I21
tp385
a(I0
I7
I8
I20
tp386
a(I0
I7
I7
I19
tp387
a(I0
I6
I7
I18
tp388
a(I0
I5
I7
I17
tp389
a(I0
I4
I7
I16
tp390
a(I0
I3
I7
I15
tp391
a(I0
I2
I7
I14
tp392
a(I0
I1
I7
I13
tp393
a(I0
I0
I7
I14
tp394
a(I1
I7
I7
I18
tp395
a(I1
I6
I7
I17
tp396
a(I1
I5
I7
I16
tp397
a(I1
I4
I7
I15
tp398
a(I1
I3
I7
I14
tp399
a(I1
I2
I7
I13
tp400
a(I2
I7
I7
I17
tp401
a(I2
I6
I7
I16
tp402
a(I2
I5
I7
I15
tp403
a(I2
I4
I7
I14
tp404
a(I2
I3
I7
I13
tp405
a(I3
I7
I7
I16
tp406
a(I3
I6
I7
I15
tp407
a(I3
I5
I7
I14
tp408
a(I3
I4
I7
I13
tp409
a(I4
I7
I7
I15
tp410
a(I4
I6
I7
I14
tp411
a(I4
I5
I7
I13
tp412
a(I5
I7
I7
I14
tp413
a(I5
I6
I7
I13
tp414
a(I6
I7
I7
I13
tp415
a(I0
I11
I12
I27
tp416
a(I0
I11
I11
I26
tp417
a(I0
I10
I11
I25
tp418
a(I0
I10
I10
I24
tp419
a(I0
I9
I10
I23
tp420
a(I0
I9
I9
I22
tp421
a(I0
I8
I9
I21
tp422
a(I0
I8
I8
I20
tp423
a(I0
I7
I8
I19
tp424
a(I0
I7
I7
I18
tp425
a(I0
I6
I7
I17
tp426
a(I0
I5
I7
I16
tp427
a(I0
I4
I7
I15
tp428
a(I0
I3
I7
I14
tp429
a(I0
I2
I7
I13
tp430
a(I0
I1
I7
I12
tp431
a(I0
I0
I7
I13
tp432
a(I1
I7
I7
I17
tp433
a(I1
I6
I7
I16
tp434
a(I1
I5
I7
I15
tp435
a(I1
I4
I7
I14
tp436
a(I1
I3
I7
I13
tp437
a(I1
I2
I7
I12
tp438
a(I2
I7
I7
I16
tp439
a(I2
I6
I7
I15
tp440
a(I2
I5
I7
I14
tp441
a(I2
I4
I7
I13
tp442
a(I2
I3
I7
I12
tp443
a(I3
I7
I7
I15
tp444
a(I3
I6
I7
I14
tp445
a(I3
I5
I7
I13
tp446
a(I3
I4
I7
I12
tp447
a(I4
I7
I7
I14
tp448
a(I4
I6
I7
I13
tp449
a(I4
I5
I7
I12
tp450
a(I5
I7
I7
I13
tp451
a(I5
I6
I7
I12
tp452
a(I6
I7
I7
I12
tp453
a(I0
I12
I12
I27
tp454
a(I0
I11
I12
I26
tp455
a(I0
I11
I11
I25
tp456
a(I0
I10
I11
I24
tp457
a(I0
I10
I10
I23
tp458
a(I0
I9
I10
I22
tp459
a(I0
I9
I9
I21
tp460
a(I0
I8
I9
I20
tp461
a(I0
I8
I8
I19
tp462
a(I0
I7
I8
I18
tp463
a(I0
I7
I7
I17
tp464
a(I0
I6
I7
I16
tp465
a(I0
I5
I7
I15
tp466
a(I0
I4
I7
I14
tp467
a(I0
I3
I7
I13
tp468
a(I0
I2
I7
I12
tp469
a(I0
I1
I7
I11
tp470
a(I0
I0
I7
I12
tp471
a(I1
I7
I7
I16
tp472
a(I1
I6
I7
I15
tp473
a(I1
I5
I7
I14
tp474
a(I1
I4
I7
I13
tp475
a(I1
I3
I7
I12
tp476
a(I1
I2
I7
I11
tp477
a(I2
I7
I7
I15
tp478
a(I2
I6
I7
I14
tp479
a(I2
I5
I7
I13
tp480
a(I2
I4
I7
I12
tp481
a(I2
I3
I7
I11
tp482
a(I3
I7
I7
I14
tp483
a(I3
I6
I7
I13
tp484
a(I3
I5
I7
I12
tp485
a(I3
I4
I7
I11
tp486
a(I4
I7
I7
I13
tp487
a(I4
I6
I7
I12
tp488
a(I4
I5
I7
I11
tp489
a(I5
I7
I7
I12
tp490
a(I5
I6
I7
I11
tp491
a(I6
I7
I7
I11
tp492
a(I0
I12
I13
I27
tp493
a(I0
I12
I12
I26
tp494
a(I0
I11
I12
I25
tp495
a(I0
I11
I11
I24
tp496
a(I0
I10
I11
I23
tp497
a(I0
I10
I10
I22
tp498
a(I0
I9
I10
I21
tp499
a(I0
I9
I9
I20
tp500
a(I0
I8
I9
I19
tp501
a(I0
I8
I8
I18
tp502
a(I0
I7
I8
I17
tp503
a(I0
I7
I7
I16
tp504
a(I0
I6
I7
I15
tp505
a(I0
I5
I7
I14
tp506
a(I0
I4
I7
I13
tp507
a(I0
I3
I7
I12
tp508
a(I0
I2
I7
I11
tp509
a(I0
I1
I7
I10
tp510
a(I0
I0
I7
I11
tp511
a(I1
I7
I7
I15
tp512
a(I1
I6
I7
I14
tp513
a(I1
I5
I7
I13
tp514
a(I1
I4
I7
I12
tp515
a(I1
I3
I7
I11
tp516
a(I1
I2
I7
I10
tp517
a(I2
I7
I7
I14
tp518
a(I2
I6
I7
I13
tp519
a(I2
I5
I7
I12
tp520
a(I2
I4
I7
I11
tp521
a(I2
I3
I7
I10
tp522
a(I3
I7
I7
I13
tp523
a(I3
I6
I7
I12
tp524
a(I3
I5
I7
I11
tp525
a(I3
I4
I7
I10
tp526
a(I4
I7
I7
I12
tp527
a(I4
I6
I7
I11
tp528
a(I4
I5
I7
I10
tp529
a(I5
I7
I7
I11
tp530
a(I5
I6
I7
I10
tp531
a(I6
I7
I7
I10
tp532
a(I0
I13
I13
I27
tp533
a(I0
I12
I13
I26
tp534
a(I0
I12
I12
I25
tp535
a(I0
I11
I12
I24
tp536
a(I0
I11
I11
I23
tp537
a(I0
I10
I11
I22
tp538
a(I0
I10
I10
I21
tp539
a(I0
I9
I10
I20
tp540
a(I0
I9
I9
I19
tp541
a(I0
I8
I9
I18
tp542
a(I0
I8
I8
I17
tp543
a(I0
I7
I8
I16
tp544
a(I0
I7
I7
I15
tp545
a(I0
I6
I7
I14
tp546
a(I0
I5
I7
I13
tp547
a(I0
I4
I7
I12
tp548
a(I0
I3
I7
I11
tp549
a(I0
I2
I7
I10
tp550
a(I0
I1
I7
I9
tp551
a(I0
I0
I7
I10
tp552
a(I1
I7
I7
I14
tp553
a(I1
I6
I7
I13
tp554
a(I1
I5
I7
I12
tp555
a(I1
I4
I7
I11
tp556
a(I1
I3
I7
I10
tp557
a(I1
I2
I7
I9
tp558
a(I2
I7
I7
I13
tp559
a(I2
I6
I7
I12
tp560
a(I2
I5
I7
I11
tp561
a(I2
I4
I7
I10
tp562
a(I2
I3
I7
I9
tp563
a(I3
I7
I7
I12
tp564
a(I3
I6
I7
I11
tp565
a(I3
I5
I7
I10
tp566
a(I3
I4
I7
I9
tp567
a(I4
I7
I7
I11
tp568
a(I4
I6
I7
I10
tp569
a(I4
I5
I7
I9
tp570
a(I5
I7
I7
I10
tp571
a(I5
I6
I7
I9
tp572
a(I6
I7
I7
I9
tp573
a(I0
I13
I14
I27
tp574
a(I0
I13
I13
I26
tp575
a(I0
I12
I13
I25
tp576
a(I0
I12
I12
I24
tp577
a(I0
I11
I12
I23
tp578
a(I0
I11
I11
I22
tp579
a(I0
I10
I11
I21
tp580
a(I0
I10
I10
I20
tp581
a(I0
I9
I10
I19
tp582
a(I0
I9
I9
I18
tp583
a(I0
I8
I9
I17
tp584
a(I0
I8
I8
I16
tp585
a(I0
I7
I8
I15
tp586
a(I0
I7
I7
I14
tp587
a(I0
I6
I7
I13
tp588
a(I0
I5
I7
I12
tp589
a(I0
I4
I7
I11
tp590
a(I0
I3
I7
I10
tp591
a(I0
I2
I7
I9
tp592
a(I0
I1
I7
I8
tp593
a(I0
I0
I7
I9
tp594
a(I1
I7
I7
I13
tp595
a(I1
I6
I7
I12
tp596
a(I1
I5
I7
I11
tp597
a(I1
I4
I7
I10
tp598
a(I1
I3
I7
I9
tp599
a(I1
I2
I7
I8
tp600
a(I2
I7
I7
I12
tp601
a(I2
I6
I7
I11
tp602
a(I2
I5
I7
I10
tp603
a(I2
I4
I7
I9
tp604
a(I2
I3
I7
I8
tp605
a(I3
I7
I7
I11
tp606
a(I3
I6
I7
I10
tp607
a(I3
I5
I7
I9
tp608
a(I3
I4
I7
I8
tp609
a(I4
I7
I7
I10
tp610
a(I4
I6
I7
I9
tp611
a(I4
I5
I7
I8
tp612
a(I5
I7
I7
I9
tp613
a(I5
I6
I7
I8
tp614
a(I6
I7
I7
I8
tp615
a(I0
I14
I14
I27
tp616
a(I0
I13
I14
I26
tp617
a(I0
I13
I13
I25
tp618
a(I0
I12
I13
I24
tp619
a(I0
I12
I12
I23
tp620
a(I0
I11
I12
I22
tp621
a(I0
I11
I11
I21
tp622
a(I0
I10
I11
I20
tp623
a(I0
I10
I10
I19
tp624
a(I0
I9
I10
I18
tp625
a(I0
I9
I9
I17
tp626
a(I0
I8
I9
I16
tp627
a(I0
I8
I8
I15
tp628
a(I0
I7
I8
I14
tp629
a(I0
I7
I7
I13
tp630
a(I0
I6
I7
I12
tp631
a(I0
I5
I7
I11
tp632
a(I0
I4
I7
I10
tp633
a(I0
I3
I7
I9
tp634
a(I0
I2
I7
I8
tp635
a(I0
I0
I7
I8
tp636
a(I1
I7
I7
I12
tp637
a(I1
I6
I7
I11
tp638
a(I1
I5
I7
I10
tp639
a(I1
I4
I7
I9
tp640
a(I1
I3
I7
I8
tp641
a(I2
I7
I7
I11
tp642
a(I2
I6
I7
I10
tp643
a(I2
I5
I7
I9
tp644
a(I2
I4
I7
I8
tp645
a(I3
I7
I7
I10
tp646
a(I3
I6
I7
I9
tp647
a(I3
I5
I7
I8
tp648
a(I4
I7
I7
I9
tp649
a(I4
I6
I7
I8
tp650
a(I5
I7
I7
I8
tp651
a(I0
I14
I15
I27
tp652
a(I0
I14
I14
I26
tp653
a(I0
I13
I14
I25
tp654
a(I0
I13
I13
I24
tp655
a(I0
I12
I13
I23
tp656
a(I0
I12
I12
I22
tp657
a(I0
I11
I12
I21
tp658
a(I0
I11
I11
I20
tp659
a(I0
I10
I11
I19
tp660
a(I0
I10
I10
I18
tp661
a(I0
I9
I10
I17
tp662
a(I0
I9
I9
I16
tp663
a(I0
I8
I9
I15
tp664
a(I0
I8
I8
I14
tp665
a(I0
I7
I8
I13
tp666
a(I0
I7
I7
I12
tp667
a(I0
I6
I7
I11
tp668
a(I0
I5
I7
I10
tp669
a(I0
I4
I7
I9
tp670
a(I0
I3
I7
I8
tp671
a(I1
I7
I7
I11
tp672
a(I1
I6
I7
I10
tp673
a(I1
I5
I7
I9
tp674
a(I1
I4
I7
I8
tp675
a(I2
I7
I7
I10
tp676
a(I2
I6
I7
I9
tp677
a(I2
I5
I7
I8
tp678
a(I3
I7
I7
I9
tp679
a(I3
I6
I7
I8
tp680
a(I4
I7
I7
I8
tp681
a(I0
I15
I15
I27
tp682
a(I0
I14
I15
I26
tp683
a(I0
I14
I14
I25
tp684
a(I0
I13
I14
I24
tp685
a(I0
I13
I13
I23
tp686
a(I0
I12
I13
I22
tp687
a(I0
I12
I12
I21
tp688
a(I0
I11
I12
I20
tp689
a(I0
I11
I11
I19
tp690
a(I0
I10
I11
I18
tp691
a(I0
I10
I10
I17
tp692
a(I0
I9
I10
I16
tp693
a(I0
I9
I9
I15
tp694
a(I0
I8
I9
I14
tp695
a(I0
I8
I8
I13
tp696
a(I0
I7
I8
I12
tp697
a(I0
I7
I7
I11
tp698
a(I0
I6
I7
I10
tp699
a(I0
I5
I7
I9
tp700
a(I0
I4
I7
I8
tp701
a(I1
I7
I7
I10
tp702
a(I1
I6
I7
I9
tp703
a(I1
I5
I7
I8
tp704
a(I2
I7
I7
I9
tp705
a(I2
I6
I7
I8
tp706
a(I3
I7
I7
I8
tp707
a(I0
I15
I16
I27
tp708
a(I0
I15
I15
I26
tp709
a(I0
I14
I15
I25
tp710
a(I0
I14
I14
I24
tp711
a(I0
I13
I14
I23
tp712
a(I0
I13
I13
I22
tp713
a(I0
I12
I13
I21
tp714
a(I0
I12
I12
I20
tp715
a(I0
I11
I12
I19
tp716
a(I0
I11
I11
I18
tp717
a(I0
I10
I11
I17
tp718
a(I0
I10
I10
I16
tp719
a(I0
I9
I10
I15
tp720
a(I0
I9
I9
I14
tp721
a(I0
I8
I9
I13
tp722
a(I0
I8
I8
I12
tp723
a(I0
I7
I8
I11
tp724
a(I0
I7
I7
I10
tp725
a(I0
I6
I7
I9
tp726
a(I0
I5
I7
I8
tp727
a(I1
I7
I7
I9
tp728
a(I1
I6
I7
I8
tp729
a(I2
I7
I7
I8
tp730
a(I0
I16
I16
I27
tp731
a(I0
I15
I16
I26
tp732
a(I0
I15
I15
I25
tp733
a(I0
I14
I15
I24
tp734
a(I0
I14
I14
I23
tp735
a(I0
I13
I14
I22
tp736
a(I0
I13
I13
I21
tp737
a(I0
I12
I13
I20
tp738
a(I0
I12
I12
I19
tp739
a(I0
I11
I12
I18
tp740
a(I0
I11
I11
I17
tp741
a(I0
I10
I11
I16
tp742
a(I0
I10
I10
I15
tp743
a(I0
I9
I10
I14
tp744
a(I0
I9
I9
I13
tp745
a(I0
I8
I9
I12
tp746
a(I0
I8
I8
I11
tp747
a(I0
I7
I8
I10
tp748
a(I0
I7
I7
I9
tp749
a(I0
I6
I7
I8
tp750
a(I1
I7
I7
I8
tp751
a(I0
I16
I17
I27
tp752
a(I0
I16
I16
I26
tp753
a(I0
I15
I16
I25
tp754
a(I0
I15
I15
I24
tp755
a(I0
I14
I15
I23
tp756
a(I0
I14
I14
I22
tp757
a(I0
I13
I14
I21
tp758
a(I0
I13
I13
I20
tp759
a(I0
I12
I13
I19
tp760
a(I0
I12
I12
I18
tp761
a(I0
I11
I12
I17
tp762
a(I0
I11
I11
I16
tp763
a(I0
I10
I11
I15
tp764
a(I0
I10
I10
I14
tp765
a(I0
I9
I10
I13
tp766
a(I0
I9
I9
I12
tp767
a(I0
I8
I9
I11
tp768
a(I0
I8
I8
I10
tp769
a(I0
I7
I8
I9
tp770
a(I0
I7
I7
I8
tp771
a(I0
I17
I17
I27
tp772
a(I0
I16
I17
I26
tp773
a(I0
I16
I16
I25
tp774
a(I0
I15
I16
I24
tp775
a(I0
I15
I15
I23
tp776
a(I0
I14
I15
I22
tp777
a(I0
I14
I14
I21
tp778
a(I0
I13
I14
I20
tp779
a(I0
I13
I13
I19
tp780
a(I0
I12
I13
I18
tp781
a(I0
I12
I12
I17
tp782
a(I0
I11
I12
I16
tp783
a(I0
I11
I11
I15
tp784
a(I0
I10
I11
I14
tp785
a(I0
I10
I10
I13
tp786
a(I0
I9
I10
I12
tp787
a(I0
I9
I9
I11
tp788
a(I0
I8
I9
I10
tp789
a(I0
I8
I8
I9
tp790
a(I0
I17
I18
I27
tp791
a(I0
I17
I17
I26
tp792
a(I0
I16
I17
I25
tp793
a(I0
I16
I16
I24
tp794
a(I0
I15
I16
I23
tp795
a(I0
I15
I15
I22
tp796
a(I0
I14
I15
I21
tp797
a(I0
I14
I14
I20
tp798
a(I0
I13
I14
I19
tp799
a(I0
I13
I13
I18
tp800
a(I0
I12
I13
I17
tp801
a(I0
I12
I12
I16
tp802
a(I0
I11
I12
I15
tp803
a(I0
I11
I11
I14
tp804
a(I0
I10
I11
I13
tp805
a(I0
I10
I10
I12
tp806
a(I0
I9
I10
I11
tp807
a(I0
I9
I9
I10
tp808
a(I0
I18
I18
I27
tp809
a(I0
I17
I18
I26
tp810
a(I0
I17
I17
I25
tp811
a(I0
I16
I17
I24
tp812
a(I0
I16
I16
I23
tp813
a(I0
I15
I16
I22
tp814
a(I0
I15
I15
I21
tp815
a(I0
I14
I15
I20
tp816
a(I0
I14
I14
I19
tp817
a(I0
I13
I14
I18
tp818
a(I0
I13
I13
I17
tp819
a(I0
I12
I13
I16
tp820
a(I0
I12
I12
I15
tp821
a(I0
I11
I12
I14
tp822
a(I0
I11
I11
I13
tp823
a(I0
I10
I11
I12
tp824
a(I0
I10
I10
I11
tp825
a(I0
I18
I19
I27
tp826
a(I0
I18
I18
I26
tp827
a(I0
I17
I18
I25
tp828
a(I0
I17
I17
I24
tp829
a(I0
I16
I17
I23
tp830
a(I0
I16
I16
I22
tp831
a(I0
I15
I16
I21
tp832
a(I0
I15
I15
I20
tp833
a(I0
I14
I15
I19
tp834
a(I0
I14
I14
I18
tp835
a(I0
I13
I14
I17
tp836
a(I0
I13
I13
I16
tp837
a(I0
I12
I13
I15
tp838
a(I0
I12
I12
I14
tp839
a(I0
I11
I12
I13
tp840
a(I0
I11
I11
I12
tp841
a(I0
I19
I19
I27
tp842
a(I0
I18
I19
I26
tp843
a(I0
I18
I18
I25
tp844
a(I0
I17
I18
I24
tp845
a(I0
I17
I17
I23
tp846
a(I0
I16
I17
I22
tp847
a(I0
I16
I16
I21
tp848
a(I0
I15
I16
I20
tp849
a(I0
I15
I15
I19
tp850
a(I0
I14
I15
I18
tp851
a(I0
I14
I14
I17
tp852
a(I0
I13
I14
I16
tp853
a(I0
I13
I13
I15
tp854
a(I0
I12
I13
I14
tp855
a(I0
I12
I12
I13
tp856
a(I0
I19
I20
I27
tp857
a(I0
I19
I19
I26
tp858
a(I0
I18
I19
I25
tp859
a(I0
I18
I18
I24
tp860
a(I0
I17
I18
I23
tp861
a(I0
I17
I17
I22
tp862
a(I0
I16
I17
I21
tp863
a(I0
I16
I16
I20
tp864
a(I0
I15
I16
I19
tp865
a(I0
I15
I15
I18
tp866
a(I0
I14
I15
I17
tp867
a(I0
I14
I14
I16
tp868
a(I0
I13
I14
I15
tp869
a(I0
I13
I13
I14
tp870
a(I0
I20
I20
I27
tp871
a(I0
I19
I20
I26
tp872
a(I0
I19
I19
I25
tp873
a(I0
I18
I19
I24
tp874
a(I0
I18
I18
I23
tp875
a(I0
I17
I18
I22
tp876
a(I0
I17
I17
I21
tp877
a(I0
I16
I17
I20
tp878
a(I0
I16
I16
I19
tp879
a(I0
I15
I16
I18
tp880
a(I0
I15
I15
I17
tp881
a(I0
I14
I15
I16
tp882
a(I0
I14
I14
I15
tp883
a(I0
I20
I21
I27
tp884
a(I0
I20
I20
I26
tp885
a(I0
I19
I20
I25
tp886
a(I0
I19
I19
I24
tp887
a(I0
I18
I19
I23
tp888
a(I0
I18
I18
I22
tp889
a(I0
I17
I18
I21
tp890
a(I0
I17
I17
I20
tp891
a(I0
I16
I17
I19
tp892
a(I0
I16
I16
I18
tp893
a(I0
I15
I16
I17
tp894
a(I0
I15
I15
I16
tp895
a(I0
I21
I21
I27
tp896
a(I0
I20
I21
I26
tp897
a(I0
I20
I20
I25
tp898
a(I0
I19
I20
I24
tp899
a(I0
I19
I19
I23
tp900
a(I0
I18
I19
I22
tp901
a(I0
I18
I18
I21
tp902
a(I0
I17
I18
I20
tp903
a(I0
I17
I17
I19
tp904
a(I0
I16
I17
I18
tp905
a(I0
I16
I16
I17
tp906
a(I0
I21
I22
I27
tp907
a(I0
I21
I21
I26
tp908
a(I0
I20
I21
I25
tp909
a(I0
I20
I20
I24
tp910
a(I0
I19
I20
I23
tp911
a(I0
I19
I19
I22
tp912
a(I0
I18
I19
I21
tp913
a(I0
I18
I18
I20
tp914
a(I0
I17
I18
I19
tp915
a(I0
I17
I17
I18
tp916
a(I0
I22
I22
I27
tp917
a(I0
I21
I22
I26
tp918
a(I0
I21
I21
I25
tp919
a(I0
I20
I21
I24
tp920
a(I0
I20
I20
I23
tp921
a(I0
I19
I20
I22
tp922
a(I0
I19
I19
I21
tp923
a(I0
I18
I19
I20
tp924
a(I0
I18
I18
I19
tp925
a(I0
I22
I23
I27
tp926
a(I0
I22
I22
I26
tp927
a(I0
I21
I22
I25
tp928
a(I0
I21
I21
I24
tp929
a(I0
I20
I21
I23
tp930
a(I0
I20
I20
I22
tp931
a(I0
I19
I20
I21
tp932
a(I0
I19
I19
I20
tp933
a(I0
I23
I23
I27
tp934
a(I0
I22
I23
I26
tp935
a(I0
I22
I22
I25
tp936
a(I0
I21
I22
I24
tp937
a(I0
I21
I21
I23
tp938
a(I0
I20
I21
I22
tp939
a(I0
I20
I20
I21
tp940
a(I0
I23
I24
I27
tp941
a(I0
I23
I23
I26
tp942
a(I0
I22
I23
I25
tp943
a(I0
I22
I22
I24
tp944
a(I0
I21
I22
I23
tp945
a(I0
I21
I21
I22
tp946
a(I0
I24
I24
I27
tp947
a(I0
I23
I24
I26
tp948
a(I0
I23
I23
I25
tp949
a(I0
I22
I23
I24
tp950
a(I0
I22
I22
I23
tp951
a(I0
I24
I25
I27
tp952
a(I0
I24
I24
I26
tp953
a(I0
I23
I24
I25
tp954
a(I0
I23
I23
I24
tp955
a(I0
I25
I25
I27
tp956
a(I0
I24
I25
I26
tp957
a(I0
I24
I24
I25
tp958
a(I0
I25
I26
I27
tp959
a(I0
I25
I25
I26
tp960
a(I0
I26
I26
I27
tp961
a(I0
I26
I27
I27
tp962
a(I0
I27
I27
I27
tp963
a.