(lp1
(I0
I0
tp2
a(I0
I1
tp3
a(I1
I2
tp4
a(I2
I3
tp5
a(I3
I4
tp6
a(I4
I5
tp7
a(I0
I2
tp8
a(I1
I3
tp9
a(I2
I4
tp10
a(I3
I5
tp11
a(I0
I3
tp12
a(I1
I4
tp13
a(I2
I5
tp14
a(I0
I4
tp15
a(I1
I5
tp16
a(I0
I5
tp17
a.