(lp1
(I0
I12
tp2
a(I1
I12
tp3
a(I0
I11
tp4
a(I2
I12
tp5
a(I1
I11
tp6
a(I0
I10
tp7
a(I3
I12
tp8
a(I2
I11
tp9
a(I1
I10
tp10
a(I0
I9
tp11
a(I4
I12
tp12
a(I3
I11
tp13
a(I2
I10
tp14
a(I1
I9
tp15
a(I0
I8
tp16
a(I5
I12
tp17
a(I4
I11
tp18
a(I3
I10
tp19
a(I2
I9
tp20
a(I1
I8
tp21
a(I0
I7
tp22
a(I6
I12
tp23
a(I5
I11
tp24
a(I4
I10
tp25
a(I3
I9
tp26
a(I2
I8
tp27
a(I1
I7
tp28
a(I0
I6
tp29
a(I7
I12
tp30
a(I6
I11
tp31
a(I5
I10
tp32
a(I4
I9
tp33
a(I3
I8
tp34
a(I2
I7
tp35
a(I1
I6
tp36
a(I0
I5
tp37
a(I8
I12
tp38
a(I7
I11
tp39
a(I6
I10
tp40
a(I5
I9
tp41
a(I4
I8
tp42
a(I3
I7
tp43
a(I2
I6
tp44
a(I1
I5
tp45
a(I0
I4
tp46
a(I9
I12
tp47
a(I8
I11
tp48
a(I7
I10
tp49
a(I6
I9
tp50
a(I5
I8
tp51
a(I4
I7
tp52
a(I3
I6
tp53
a(I2
I5
tp54
a(I1
I4
tp55
a(I0
I3
tp56
a(I10
I12
tp57
a(I9
I11
tp58
a(I8
I10
tp59
a(I7
I9
tp60
a(I6
I8
tp61
a(I5
I7
tp62
a(I4
I6
tp63
a(I3
I5
tp64
a(I2
I4
tp65
a(I1
I3
tp66
a(I0
I2
tp67
a(I11
I12
tp68
a(I10
I11
tp69
a(I9
I10
tp70
a(I8
I9
tp71
a(I7
I8
tp72
a(I6
I7
tp73
a(I5
I6
tp74
a(I4
I5
tp75
a(I3
I4
tp76
a(I2
I3
tp77
a(I1
I2
tp78
a(I0
I1
tp79
a(I0
I0
tp80
a.